	.section __DWARF,__debug_frame,regular,debug
Lsection__debug_frame:
	.section __DWARF,__debug_info,regular,debug
Lsection__debug_info:
	.section __DWARF,__debug_abbrev,regular,debug
Lsection__debug_abbrev:
	.section __DWARF,__debug_aranges,regular,debug
Lsection__debug_aranges:
	.section __DWARF,__debug_macinfo,regular,debug
Lsection__debug_macinfo:
	.section __DWARF,__debug_line,regular,debug
Lsection__debug_line:
	.section __DWARF,__debug_loc,regular,debug
Lsection__debug_loc:
	.section __DWARF,__debug_pubnames,regular,debug
Lsection__debug_pubnames:
	.section __DWARF,__debug_pubtypes,regular,debug
Lsection__debug_pubtypes:
	.section __DWARF,__debug_inlined,regular,debug
Lsection__debug_inlined:
	.section __DWARF,__debug_str,regular,debug
Lsection__debug_str:
	.section __DWARF,__debug_ranges,regular,debug
Lsection__debug_ranges:
	.section __DWARF,__debug_abbrev,regular,debug
Ldebug_abbrev0:
	.section __DWARF,__debug_info,regular,debug
Ldebug_info0:
	.section __DWARF,__debug_line,regular,debug
Ldebug_line0:
	.text
Ltext0:
	.mod_init_func
	.align 2
	.long	__GLOBAL__I_fout
	.text
__ZL18__gthread_active_pv:
LFB10:
	.file 1 "/usr/include/c++/4.2.1/i686-apple-darwin10/bits/gthr-default.h"
	.loc 1 215 0
	nop
	nop
	nop
	nop
	nop
	nop
	pushl	%ebp
LCFI0:
	movl	%esp, %ebp
LCFI1:
	subl	$8, %esp
LCFI2:
	.loc 1 217 0
	movl	$1, %eax
	.loc 1 218 0
	leave
	ret
LFE10:
__ZN9__gnu_cxxL25__exchange_and_add_singleEPii:
LFB285:
	.file 2 "/usr/include/c++/4.2.1/ext/atomicity.h"
	.loc 2 67 0
	nop
	nop
	nop
	nop
	nop
	nop
	pushl	%ebp
LCFI3:
	movl	%esp, %ebp
LCFI4:
	subl	$40, %esp
LCFI5:
	movl	%eax, -28(%ebp)
	movl	%edx, -32(%ebp)
LBB2:
	.loc 2 69 0
	movl	-28(%ebp), %eax
	movl	(%eax), %eax
	movl	%eax, -12(%ebp)
	.loc 2 70 0
	movl	-28(%ebp), %eax
	movl	(%eax), %eax
	movl	%eax, %edx
	addl	-32(%ebp), %edx
	movl	-28(%ebp), %eax
	movl	%edx, (%eax)
	.loc 2 71 0
	movl	-12(%ebp), %eax
LBE2:
	.loc 2 72 0
	leave
	ret
LFE285:
	.section __TEXT,__textcoal_nt,coalesced,pure_instructions
.globl __ZStorSt13_Ios_OpenmodeS_
	.weak_definition __ZStorSt13_Ios_OpenmodeS_
__ZStorSt13_Ios_OpenmodeS_:
LFB952:
	.file 3 "/usr/include/c++/4.2.1/bits/ios_base.h"
	.loc 3 123 0
	nop
	nop
	nop
	nop
	nop
	nop
	pushl	%ebp
LCFI6:
	movl	%esp, %ebp
LCFI7:
	subl	$8, %esp
LCFI8:
	.loc 3 124 0
	movl	8(%ebp), %edx
	movl	12(%ebp), %eax
	orl	%edx, %eax
	leave
	ret
LFE952:
	.align 1
.globl __ZN4Game19setCurrentGamePieceE6BPiece
	.weak_definition __ZN4Game19setCurrentGamePieceE6BPiece
	.private_extern __ZN4Game19setCurrentGamePieceE6BPiece
__ZN4Game19setCurrentGamePieceE6BPiece:
LFB2360:
	.file 4 "/Users/Feysal/Flocks/game.h"
	.loc 4 55 0
	nop
	nop
	nop
	nop
	nop
	nop
	pushl	%ebp
LCFI9:
	movl	%esp, %ebp
LCFI10:
	subl	$8, %esp
LCFI11:
	.loc 4 55 0
	movl	8(%ebp), %ecx
	movl	12(%ebp), %edx
	movl	(%edx), %eax
	movl	%eax, 844(%ecx)
	movl	4(%edx), %eax
	movl	%eax, 848(%ecx)
	movl	8(%edx), %eax
	movl	%eax, 852(%ecx)
	movl	12(%edx), %eax
	movl	%eax, 856(%ecx)
	movl	16(%edx), %eax
	movl	%eax, 860(%ecx)
	leave
	ret
LFE2360:
	.align 1
.globl __ZN4Game12setNextPieceE6BPiece
	.weak_definition __ZN4Game12setNextPieceE6BPiece
	.private_extern __ZN4Game12setNextPieceE6BPiece
__ZN4Game12setNextPieceE6BPiece:
LFB2362:
	.loc 4 58 0
	nop
	nop
	nop
	nop
	nop
	nop
	pushl	%ebp
LCFI12:
	movl	%esp, %ebp
LCFI13:
	subl	$8, %esp
LCFI14:
	.loc 4 58 0
	movl	8(%ebp), %ecx
	movl	12(%ebp), %edx
	movl	(%edx), %eax
	movl	%eax, 864(%ecx)
	movl	4(%edx), %eax
	movl	%eax, 868(%ecx)
	movl	8(%edx), %eax
	movl	%eax, 872(%ecx)
	movl	12(%edx), %eax
	movl	%eax, 876(%ecx)
	movl	16(%edx), %eax
	movl	%eax, 880(%ecx)
	leave
	ret
LFE2362:
	.align 1
.globl __ZN4Game12setHoldPieceE6BPiece
	.weak_definition __ZN4Game12setHoldPieceE6BPiece
	.private_extern __ZN4Game12setHoldPieceE6BPiece
__ZN4Game12setHoldPieceE6BPiece:
LFB2364:
	.loc 4 61 0
	nop
	nop
	nop
	nop
	nop
	nop
	pushl	%ebp
LCFI15:
	movl	%esp, %ebp
LCFI16:
	subl	$8, %esp
LCFI17:
	.loc 4 61 0
	movl	8(%ebp), %ecx
	movl	12(%ebp), %edx
	movl	(%edx), %eax
	movl	%eax, 884(%ecx)
	movl	4(%edx), %eax
	movl	%eax, 888(%ecx)
	movl	8(%edx), %eax
	movl	%eax, 892(%ecx)
	movl	12(%edx), %eax
	movl	%eax, 896(%ecx)
	movl	16(%edx), %eax
	movl	%eax, 900(%ecx)
	leave
	ret
LFE2364:
	.align 1
.globl __ZN4Game17setLinesCompletedEi
	.weak_definition __ZN4Game17setLinesCompletedEi
	.private_extern __ZN4Game17setLinesCompletedEi
__ZN4Game17setLinesCompletedEi:
LFB2368:
	.loc 4 67 0
	nop
	nop
	nop
	nop
	nop
	nop
	pushl	%ebp
LCFI18:
	movl	%esp, %ebp
LCFI19:
	subl	$8, %esp
LCFI20:
	.loc 4 67 0
	movl	8(%ebp), %edx
	movl	12(%ebp), %eax
	movl	%eax, 908(%edx)
	leave
	ret
LFE2368:
	.align 1
.globl __ZN4Game17getLinesCompletedEv
	.weak_definition __ZN4Game17getLinesCompletedEv
	.private_extern __ZN4Game17getLinesCompletedEv
__ZN4Game17getLinesCompletedEv:
LFB2369:
	.loc 4 68 0
	nop
	nop
	nop
	nop
	nop
	nop
	pushl	%ebp
LCFI21:
	movl	%esp, %ebp
LCFI22:
	subl	$8, %esp
LCFI23:
	.loc 4 68 0
	movl	8(%ebp), %eax
	movl	908(%eax), %eax
	leave
	ret
LFE2369:
	.align 1
.globl __ZN4Game8setLevelEi
	.weak_definition __ZN4Game8setLevelEi
	.private_extern __ZN4Game8setLevelEi
__ZN4Game8setLevelEi:
LFB2370:
	.loc 4 70 0
	nop
	nop
	nop
	nop
	nop
	nop
	pushl	%ebp
LCFI24:
	movl	%esp, %ebp
LCFI25:
	subl	$8, %esp
LCFI26:
	.loc 4 70 0
	movl	8(%ebp), %edx
	movl	12(%ebp), %eax
	movl	%eax, 912(%edx)
	leave
	ret
LFE2370:
	.align 1
.globl __ZN4Game8getLevelEv
	.weak_definition __ZN4Game8getLevelEv
	.private_extern __ZN4Game8getLevelEv
__ZN4Game8getLevelEv:
LFB2371:
	.loc 4 71 0
	nop
	nop
	nop
	nop
	nop
	nop
	pushl	%ebp
LCFI27:
	movl	%esp, %ebp
LCFI28:
	subl	$8, %esp
LCFI29:
	.loc 4 71 0
	movl	8(%ebp), %eax
	movl	912(%eax), %eax
	leave
	ret
LFE2371:
	.align 1
.globl __ZN4Game21setFallIterationDelayEf
	.weak_definition __ZN4Game21setFallIterationDelayEf
	.private_extern __ZN4Game21setFallIterationDelayEf
__ZN4Game21setFallIterationDelayEf:
LFB2372:
	.loc 4 73 0
	nop
	nop
	nop
	nop
	nop
	nop
	pushl	%ebp
LCFI30:
	movl	%esp, %ebp
LCFI31:
	subl	$8, %esp
LCFI32:
	.loc 4 73 0
	movl	8(%ebp), %edx
	movl	12(%ebp), %eax
	movl	%eax, 916(%edx)
	leave
	ret
LFE2372:
	.align 1
.globl __ZN4Game21getFallIterationDelayEv
	.weak_definition __ZN4Game21getFallIterationDelayEv
	.private_extern __ZN4Game21getFallIterationDelayEv
__ZN4Game21getFallIterationDelayEv:
LFB2373:
	.loc 4 74 0
	nop
	nop
	nop
	nop
	nop
	nop
	pushl	%ebp
LCFI33:
	movl	%esp, %ebp
LCFI34:
	subl	$24, %esp
LCFI35:
	.loc 4 74 0
	movl	8(%ebp), %eax
	movl	916(%eax), %eax
	movl	%eax, -12(%ebp)
	movss	-12(%ebp), %xmm0
	movss	%xmm0, -12(%ebp)
	flds	-12(%ebp)
	leave
	ret
LFE2373:
	.align 1
.globl __ZN4Game8setScoreEi
	.weak_definition __ZN4Game8setScoreEi
	.private_extern __ZN4Game8setScoreEi
__ZN4Game8setScoreEi:
LFB2374:
	.loc 4 76 0
	nop
	nop
	nop
	nop
	nop
	nop
	pushl	%ebp
LCFI36:
	movl	%esp, %ebp
LCFI37:
	subl	$8, %esp
LCFI38:
	.loc 4 76 0
	movl	8(%ebp), %edx
	movl	12(%ebp), %eax
	movl	%eax, 920(%edx)
	leave
	ret
LFE2374:
	.align 1
.globl __ZN4Game8getScoreEv
	.weak_definition __ZN4Game8getScoreEv
	.private_extern __ZN4Game8getScoreEv
__ZN4Game8getScoreEv:
LFB2375:
	.loc 4 77 0
	nop
	nop
	nop
	nop
	nop
	nop
	pushl	%ebp
LCFI39:
	movl	%esp, %ebp
LCFI40:
	subl	$8, %esp
LCFI41:
	.loc 4 77 0
	movl	8(%ebp), %eax
	movl	920(%eax), %eax
	leave
	ret
LFE2375:
	.text
	.align 1,0x90
.globl __ZN4Game12computeLevelEv
__ZN4Game12computeLevelEv:
LFB2376:
	.file 5 "/Users/Feysal/Flocks/game.cpp"
	.loc 5 11 0
	nop
	nop
	nop
	nop
	nop
	nop
	pushl	%ebp
LCFI42:
	movl	%esp, %ebp
LCFI43:
	subl	$72, %esp
LCFI44:
LBB3:
	.loc 5 13 0
	movl	8(%ebp), %eax
	movl	%eax, (%esp)
	call	__ZN4Game17getLinesCompletedEv
	movl	%eax, -12(%ebp)
	.loc 5 15 0
	cmpl	$0, -12(%ebp)
	jne	L30
	.loc 5 16 0
	movl	$1, -28(%ebp)
	jmp	L32
L30:
	.loc 5 17 0
	cmpl	$0, -12(%ebp)
	jle	L33
	cmpl	$90, -12(%ebp)
	jg	L33
LBB4:
	.loc 5 19 0
	movl	-12(%ebp), %ecx
	decl	%ecx
	movl	$1717986919, -44(%ebp)
	movl	-44(%ebp), %eax
	imull	%ecx
	sarl	$2, %edx
	movl	%ecx, %eax
	sarl	$31, %eax
	movl	%edx, %ecx
	subl	%eax, %ecx
	movl	%ecx, %eax
	incl	%eax
	movl	%eax, -16(%ebp)
	.loc 5 20 0
	movl	-16(%ebp), %eax
	movl	%eax, -28(%ebp)
	jmp	L32
L33:
LBE4:
	.loc 5 23 0
	movl	$10, -28(%ebp)
L32:
	movl	-28(%ebp), %eax
LBE3:
	.loc 5 24 0
	leave
	ret
LFE2376:
	.align 1,0x90
.globl __ZN4Game25computeFallIterationDelayEv
__ZN4Game25computeFallIterationDelayEv:
LFB2377:
	.loc 5 26 0
	nop
	nop
	nop
	nop
	nop
	nop
	pushl	%ebp
LCFI45:
	movl	%esp, %ebp
LCFI46:
	pushl	%ebx
LCFI47:
	subl	$52, %esp
LCFI48:
	call	L39
"L00000000001$pb":
L39:
	popl	%ebx
LBB5:
	.loc 5 28 0
	movl	8(%ebp), %eax
	movl	%eax, (%esp)
	call	__ZN4Game8getLevelEv
	movl	%eax, -12(%ebp)
	.loc 5 30 0
	movl	$11, %eax
	subl	-12(%ebp), %eax
	cvtsi2sd	%eax, %xmm1
	leal	LC0-"L00000000001$pb"(%ebx), %eax
	movsd	(%eax), %xmm0
	mulsd	%xmm1, %xmm0
	cvtsd2ss	%xmm0, %xmm0
	movss	%xmm0, -16(%ebp)
	.loc 5 32 0
	movl	-16(%ebp), %eax
	movl	%eax, -28(%ebp)
	movss	-28(%ebp), %xmm0
	movss	%xmm0, -28(%ebp)
	flds	-28(%ebp)
LBE5:
	.loc 5 33 0
	addl	$52, %esp
	popl	%ebx
	leave
	ret
LFE2377:
	.align 1,0x90
.globl __ZN4Game12computeScoreEi
__ZN4Game12computeScoreEi:
LFB2378:
	.loc 5 35 0
	nop
	nop
	nop
	nop
	nop
	nop
	pushl	%ebp
LCFI49:
	movl	%esp, %ebp
LCFI50:
	subl	$40, %esp
LCFI51:
LBB6:
	.loc 5 37 0
	movl	8(%ebp), %eax
	movl	%eax, (%esp)
	call	__ZN4Game8getLevelEv
	movl	%eax, -12(%ebp)
	.loc 5 39 0
	movl	$0, -16(%ebp)
	.loc 5 41 0
	cmpl	$1, 12(%ebp)
	jne	L41
	.loc 5 42 0
	movl	-12(%ebp), %eax
	incl	%eax
	movl	%eax, %edx
	sall	$2, %edx
	addl	%eax, %edx
	leal	0(,%edx,8), %eax
	movl	%eax, -16(%ebp)
L41:
	.loc 5 43 0
	cmpl	$2, 12(%ebp)
	jne	L43
	.loc 5 44 0
	movl	-12(%ebp), %eax
	incl	%eax
	imull	$100, %eax, %eax
	movl	%eax, -16(%ebp)
L43:
	.loc 5 45 0
	cmpl	$3, 12(%ebp)
	jne	L45
	.loc 5 46 0
	movl	-12(%ebp), %eax
	incl	%eax
	imull	$300, %eax, %eax
	movl	%eax, -16(%ebp)
L45:
	.loc 5 47 0
	cmpl	$4, 12(%ebp)
	jne	L47
	.loc 5 48 0
	movl	-12(%ebp), %eax
	incl	%eax
	imull	$1200, %eax, %eax
	movl	%eax, -16(%ebp)
L47:
	.loc 5 50 0
	movl	-16(%ebp), %eax
LBE6:
	.loc 5 51 0
	leave
	ret
LFE2378:
	.align 1,0x90
.globl __ZN4Game15updateGameInfosEi
__ZN4Game15updateGameInfosEi:
LFB2381:
	.loc 5 68 0
	nop
	nop
	nop
	nop
	nop
	nop
	pushl	%ebp
LCFI52:
	movl	%esp, %ebp
LCFI53:
	pushl	%esi
LCFI54:
	subl	$20, %esp
LCFI55:
	.loc 5 70 0
	movl	8(%ebp), %eax
	movl	%eax, (%esp)
	call	__ZN4Game17getLinesCompletedEv
	addl	12(%ebp), %eax
	movl	%eax, 4(%esp)
	movl	8(%ebp), %eax
	movl	%eax, (%esp)
	call	__ZN4Game17setLinesCompletedEi
	.loc 5 71 0
	movl	8(%ebp), %eax
	movl	%eax, (%esp)
	call	__ZN4Game12computeLevelEv
	movl	%eax, 4(%esp)
	movl	8(%ebp), %eax
	movl	%eax, (%esp)
	call	__ZN4Game8setLevelEi
	.loc 5 72 0
	movl	8(%ebp), %eax
	movl	%eax, (%esp)
	call	__ZN4Game25computeFallIterationDelayEv
	fstps	4(%esp)
	movl	8(%ebp), %eax
	movl	%eax, (%esp)
	call	__ZN4Game21setFallIterationDelayEf
	.loc 5 73 0
	movl	12(%ebp), %eax
	movl	%eax, 4(%esp)
	movl	8(%ebp), %eax
	movl	%eax, (%esp)
	call	__ZN4Game12computeScoreEi
	movl	%eax, %esi
	movl	8(%ebp), %eax
	movl	%eax, (%esp)
	call	__ZN4Game8getScoreEv
	leal	(%esi,%eax), %eax
	movl	%eax, 4(%esp)
	movl	8(%ebp), %eax
	movl	%eax, (%esp)
	call	__ZN4Game8setScoreEi
	.loc 5 74 0
	addl	$20, %esp
	popl	%esi
	leave
	ret
LFE2381:
	.section __TEXT,__textcoal_nt,coalesced,pure_instructions
.globl __ZSt3minImERKT_S2_S2_
	.weak_definition __ZSt3minImERKT_S2_S2_
__ZSt3minImERKT_S2_S2_:
LFB2410:
	.file 6 "/usr/include/c++/4.2.1/bits/stl_algobase.h"
	.loc 6 182 0
	nop
	nop
	nop
	nop
	nop
	nop
	pushl	%ebp
LCFI56:
	movl	%esp, %ebp
LCFI57:
	subl	$24, %esp
LCFI58:
	.loc 6 187 0
	movl	12(%ebp), %eax
	movl	(%eax), %edx
	movl	8(%ebp), %eax
	movl	(%eax), %eax
	cmpl	%eax, %edx
	jae	L53
	.loc 6 188 0
	movl	12(%ebp), %eax
	movl	%eax, -12(%ebp)
	jmp	L55
L53:
	.loc 6 189 0
	movl	8(%ebp), %eax
	movl	%eax, -12(%ebp)
L55:
	movl	-12(%ebp), %eax
	leave
	ret
LFE2410:
	.text
__ZStL17__verify_groupingPKcmRKSs:
LFB1407:
	.file 7 "/usr/include/c++/4.2.1/bits/locale_facets.tcc"
	.loc 7 2558 0
	nop
	nop
	nop
	nop
	nop
	nop
	pushl	%ebp
LCFI59:
	movl	%esp, %ebp
LCFI60:
	pushl	%esi
LCFI61:
	subl	$52, %esp
LCFI62:
LBB7:
	.loc 7 2560 0
	movl	16(%ebp), %eax
	movl	%eax, (%esp)
	call	__ZNKSs4sizeEv
	decl	%eax
	movl	%eax, -16(%ebp)
	.loc 7 2561 0
	movl	12(%ebp), %eax
	decl	%eax
	movl	%eax, -24(%ebp)
	leal	-24(%ebp), %eax
	movl	%eax, 4(%esp)
	leal	-16(%ebp), %eax
	movl	%eax, (%esp)
	call	__ZSt3minImERKT_S2_S2_
	movl	(%eax), %eax
	movl	%eax, -20(%ebp)
	.loc 7 2562 0
	movl	-16(%ebp), %eax
	movl	%eax, -28(%ebp)
	.loc 7 2563 0
	movb	$1, -9(%ebp)
LBB8:
	.loc 7 2568 0
	movl	$0, -32(%ebp)
	jmp	L58
L59:
	.loc 7 2569 0
	movl	-28(%ebp), %eax
	movl	%eax, 4(%esp)
	movl	16(%ebp), %eax
	movl	%eax, (%esp)
	call	__ZNKSsixEm
	movzbl	(%eax), %edx
	movl	-32(%ebp), %eax
	addl	8(%ebp), %eax
	movzbl	(%eax), %eax
	cmpb	%al, %dl
	sete	%al
	movb	%al, -9(%ebp)
	.loc 7 2568 0
	decl	-28(%ebp)
	incl	-32(%ebp)
L58:
	movl	-32(%ebp), %eax
	cmpl	-20(%ebp), %eax
	jae	L62
	cmpb	$0, -9(%ebp)
	jne	L59
	.loc 7 2570 0
	jmp	L62
L63:
LBE8:
	.loc 7 2571 0
	movl	-28(%ebp), %eax
	movl	%eax, 4(%esp)
	movl	16(%ebp), %eax
	movl	%eax, (%esp)
	call	__ZNKSsixEm
	movzbl	(%eax), %edx
	movl	-20(%ebp), %eax
	addl	8(%ebp), %eax
	movzbl	(%eax), %eax
	cmpb	%al, %dl
	sete	%al
	movb	%al, -9(%ebp)
	.loc 7 2570 0
	decl	-28(%ebp)
L62:
	cmpl	$0, -28(%ebp)
	je	L64
	cmpb	$0, -9(%ebp)
	jne	L63
L64:
	.loc 7 2575 0
	movl	-20(%ebp), %eax
	addl	8(%ebp), %eax
	movzbl	(%eax), %eax
	testb	%al, %al
	jle	L66
	.loc 7 2576 0
	movzbl	-9(%ebp), %esi
	movl	$0, 4(%esp)
	movl	16(%ebp), %eax
	movl	%eax, (%esp)
	call	__ZNKSsixEm
	movzbl	(%eax), %edx
	movl	-20(%ebp), %eax
	addl	8(%ebp), %eax
	movzbl	(%eax), %eax
	cmpb	%al, %dl
	setle	%al
	movzbl	%al, %eax
	andl	%esi, %eax
	testl	%eax, %eax
	setne	%al
	movb	%al, -9(%ebp)
L66:
	.loc 7 2577 0
	movzbl	-9(%ebp), %eax
LBE7:
	.loc 7 2578 0
	addl	$52, %esp
	popl	%esi
	leave
	ret
LFE1407:
	.section __TEXT,__textcoal_nt,coalesced,pure_instructions
	.align 1
.globl __ZN9__gnu_cxx13new_allocatorIcEC2Ev
	.weak_definition __ZN9__gnu_cxx13new_allocatorIcEC2Ev
	.private_extern __ZN9__gnu_cxx13new_allocatorIcEC2Ev
__ZN9__gnu_cxx13new_allocatorIcEC2Ev:
LFB2492:
	.file 8 "/usr/include/c++/4.2.1/ext/new_allocator.h"
	.loc 8 68 0
	nop
	nop
	nop
	nop
	nop
	nop
	pushl	%ebp
LCFI63:
	movl	%esp, %ebp
LCFI64:
	subl	$8, %esp
LCFI65:
	.loc 8 68 0
	leave
	ret
LFE2492:
	.align 1
.globl __ZNKSt23_Rb_tree_const_iteratorIPN2sf11ResourcePtrINS0_4FontEEEEneERKS5_
	.weak_definition __ZNKSt23_Rb_tree_const_iteratorIPN2sf11ResourcePtrINS0_4FontEEEEneERKS5_
	.private_extern __ZNKSt23_Rb_tree_const_iteratorIPN2sf11ResourcePtrINS0_4FontEEEEneERKS5_
__ZNKSt23_Rb_tree_const_iteratorIPN2sf11ResourcePtrINS0_4FontEEEEneERKS5_:
LFB2538:
	.file 9 "/usr/include/c++/4.2.1/bits/stl_tree.h"
	.loc 9 292 0
	nop
	nop
	nop
	nop
	nop
	nop
	pushl	%ebp
LCFI66:
	movl	%esp, %ebp
LCFI67:
	subl	$8, %esp
LCFI68:
	.loc 9 293 0
	movl	8(%ebp), %eax
	movl	(%eax), %edx
	movl	12(%ebp), %eax
	movl	(%eax), %eax
	cmpl	%eax, %edx
	setne	%al
	movzbl	%al, %eax
	leave
	ret
LFE2538:
	.align 1
.globl __ZNKSt23_Rb_tree_const_iteratorIPN2sf11ResourcePtrINS0_4FontEEEEdeEv
	.weak_definition __ZNKSt23_Rb_tree_const_iteratorIPN2sf11ResourcePtrINS0_4FontEEEEdeEv
	.private_extern __ZNKSt23_Rb_tree_const_iteratorIPN2sf11ResourcePtrINS0_4FontEEEEdeEv
__ZNKSt23_Rb_tree_const_iteratorIPN2sf11ResourcePtrINS0_4FontEEEEdeEv:
LFB2540:
	.loc 9 250 0
	nop
	nop
	nop
	nop
	nop
	nop
	pushl	%ebp
LCFI69:
	movl	%esp, %ebp
LCFI70:
	subl	$8, %esp
LCFI71:
	.loc 9 251 0
	movl	8(%ebp), %eax
	movl	(%eax), %eax
	addl	$16, %eax
	leave
	ret
LFE2540:
	.align 1
.globl __ZN2sf11ResourcePtrINS_4FontEE19OnResourceDestroyedEv
	.weak_definition __ZN2sf11ResourcePtrINS_4FontEE19OnResourceDestroyedEv
__ZN2sf11ResourcePtrINS_4FontEE19OnResourceDestroyedEv:
LFB2541:
	.file 10 "/System/Library/Frameworks/SFML.framework/Headers/System/ResourcePtr.inl"
	.loc 10 146 0
	nop
	nop
	nop
	nop
	nop
	nop
	pushl	%ebp
LCFI72:
	movl	%esp, %ebp
LCFI73:
	subl	$8, %esp
LCFI74:
	.loc 10 148 0
	movl	8(%ebp), %eax
	movl	$0, (%eax)
	leave
	ret
LFE2541:
	.align 1
.globl __ZNSt8_Rb_treeIjSt4pairIKjN2sf5GlyphEESt10_Select1stIS4_ESt4lessIjESaIS4_EE8_M_beginEv
	.weak_definition __ZNSt8_Rb_treeIjSt4pairIKjN2sf5GlyphEESt10_Select1stIS4_ESt4lessIjESaIS4_EE8_M_beginEv
	.private_extern __ZNSt8_Rb_treeIjSt4pairIKjN2sf5GlyphEESt10_Select1stIS4_ESt4lessIjESaIS4_EE8_M_beginEv
__ZNSt8_Rb_treeIjSt4pairIKjN2sf5GlyphEESt10_Select1stIS4_ESt4lessIjESaIS4_EE8_M_beginEv:
LFB2546:
	.loc 9 476 0
	nop
	nop
	nop
	nop
	nop
	nop
	pushl	%ebp
LCFI75:
	movl	%esp, %ebp
LCFI76:
	subl	$8, %esp
LCFI77:
	.loc 9 477 0
	movl	8(%ebp), %eax
	movl	8(%eax), %eax
	leave
	ret
LFE2546:
	.align 1
.globl __ZNSt8_Rb_treeIPN2sf11ResourcePtrINS0_4FontEEES4_St9_IdentityIS4_ESt4lessIS4_ESaIS4_EE8_M_beginEv
	.weak_definition __ZNSt8_Rb_treeIPN2sf11ResourcePtrINS0_4FontEEES4_St9_IdentityIS4_ESt4lessIS4_ESaIS4_EE8_M_beginEv
	.private_extern __ZNSt8_Rb_treeIPN2sf11ResourcePtrINS0_4FontEEES4_St9_IdentityIS4_ESt4lessIS4_ESaIS4_EE8_M_beginEv
__ZNSt8_Rb_treeIPN2sf11ResourcePtrINS0_4FontEEES4_St9_IdentityIS4_ESt4lessIS4_ESaIS4_EE8_M_beginEv:
LFB2578:
	.loc 9 476 0
	nop
	nop
	nop
	nop
	nop
	nop
	pushl	%ebp
LCFI78:
	movl	%esp, %ebp
LCFI79:
	subl	$8, %esp
LCFI80:
	.loc 9 477 0
	movl	8(%ebp), %eax
	movl	8(%eax), %eax
	leave
	ret
LFE2578:
	.align 1
.globl __ZN9__gnu_cxx13new_allocatorISt13_Rb_tree_nodeISt4pairIKjN2sf5GlyphEEEED2Ev
	.weak_definition __ZN9__gnu_cxx13new_allocatorISt13_Rb_tree_nodeISt4pairIKjN2sf5GlyphEEEED2Ev
	.private_extern __ZN9__gnu_cxx13new_allocatorISt13_Rb_tree_nodeISt4pairIKjN2sf5GlyphEEEED2Ev
__ZN9__gnu_cxx13new_allocatorISt13_Rb_tree_nodeISt4pairIKjN2sf5GlyphEEEED2Ev:
LFB2582:
	.loc 8 75 0
	nop
	nop
	nop
	nop
	nop
	nop
	pushl	%ebp
LCFI81:
	movl	%esp, %ebp
LCFI82:
	subl	$8, %esp
LCFI83:
	.loc 8 75 0
	leave
	ret
LFE2582:
	.align 1
.globl __ZNSaISt13_Rb_tree_nodeISt4pairIKjN2sf5GlyphEEEED2Ev
	.weak_definition __ZNSaISt13_Rb_tree_nodeISt4pairIKjN2sf5GlyphEEEED2Ev
	.private_extern __ZNSaISt13_Rb_tree_nodeISt4pairIKjN2sf5GlyphEEEED2Ev
__ZNSaISt13_Rb_tree_nodeISt4pairIKjN2sf5GlyphEEEED2Ev:
LFB2543:
	.file 11 "/usr/include/c++/4.2.1/bits/allocator.h"
	.loc 11 108 0
	nop
	nop
	nop
	nop
	nop
	nop
	pushl	%ebp
LCFI84:
	movl	%esp, %ebp
LCFI85:
	subl	$24, %esp
LCFI86:
	.loc 11 108 0
	movl	8(%ebp), %eax
	movl	%eax, (%esp)
	call	__ZN9__gnu_cxx13new_allocatorISt13_Rb_tree_nodeISt4pairIKjN2sf5GlyphEEEED2Ev
	leave
	ret
LFE2543:
	.align 1
.globl __ZNSt8_Rb_treeIjSt4pairIKjN2sf5GlyphEESt10_Select1stIS4_ESt4lessIjESaIS4_EE13_Rb_tree_implIS8_Lb0EED1Ev
	.weak_definition __ZNSt8_Rb_treeIjSt4pairIKjN2sf5GlyphEESt10_Select1stIS4_ESt4lessIjESaIS4_EE13_Rb_tree_implIS8_Lb0EED1Ev
	.private_extern __ZNSt8_Rb_treeIjSt4pairIKjN2sf5GlyphEESt10_Select1stIS4_ESt4lessIjESaIS4_EE13_Rb_tree_implIS8_Lb0EED1Ev
__ZNSt8_Rb_treeIjSt4pairIKjN2sf5GlyphEESt10_Select1stIS4_ESt4lessIjESaIS4_EE13_Rb_tree_implIS8_Lb0EED1Ev:
LFB2472:
	.loc 9 410 0
	nop
	nop
	nop
	nop
	nop
	nop
	pushl	%ebp
LCFI87:
	movl	%esp, %ebp
LCFI88:
	subl	$24, %esp
LCFI89:
	.loc 9 410 0
	movl	8(%ebp), %eax
	movl	%eax, (%esp)
	call	__ZNSaISt13_Rb_tree_nodeISt4pairIKjN2sf5GlyphEEEED2Ev
	leave
	ret
LFE2472:
.globl __ZNSt8_Rb_treeIjSt4pairIKjN2sf5GlyphEESt10_Select1stIS4_ESt4lessIjESaIS4_EE8_S_rightEPSt18_Rb_tree_node_base
	.weak_definition __ZNSt8_Rb_treeIjSt4pairIKjN2sf5GlyphEESt10_Select1stIS4_ESt4lessIjESaIS4_EE8_S_rightEPSt18_Rb_tree_node_base
	.private_extern __ZNSt8_Rb_treeIjSt4pairIKjN2sf5GlyphEESt10_Select1stIS4_ESt4lessIjESaIS4_EE8_S_rightEPSt18_Rb_tree_node_base
__ZNSt8_Rb_treeIjSt4pairIKjN2sf5GlyphEESt10_Select1stIS4_ESt4lessIjESaIS4_EE8_S_rightEPSt18_Rb_tree_node_base:
LFB2584:
	.loc 9 511 0
	nop
	nop
	nop
	nop
	nop
	nop
	pushl	%ebp
LCFI90:
	movl	%esp, %ebp
LCFI91:
	subl	$8, %esp
LCFI92:
	.loc 9 512 0
	movl	8(%ebp), %eax
	movl	12(%eax), %eax
	leave
	ret
LFE2584:
.globl __ZNSt8_Rb_treeIjSt4pairIKjN2sf5GlyphEESt10_Select1stIS4_ESt4lessIjESaIS4_EE7_S_leftEPSt18_Rb_tree_node_base
	.weak_definition __ZNSt8_Rb_treeIjSt4pairIKjN2sf5GlyphEESt10_Select1stIS4_ESt4lessIjESaIS4_EE7_S_leftEPSt18_Rb_tree_node_base
	.private_extern __ZNSt8_Rb_treeIjSt4pairIKjN2sf5GlyphEESt10_Select1stIS4_ESt4lessIjESaIS4_EE7_S_leftEPSt18_Rb_tree_node_base
__ZNSt8_Rb_treeIjSt4pairIKjN2sf5GlyphEESt10_Select1stIS4_ESt4lessIjESaIS4_EE7_S_leftEPSt18_Rb_tree_node_base:
LFB2585:
	.loc 9 503 0
	nop
	nop
	nop
	nop
	nop
	nop
	pushl	%ebp
LCFI93:
	movl	%esp, %ebp
LCFI94:
	subl	$8, %esp
LCFI95:
	.loc 9 504 0
	movl	8(%ebp), %eax
	movl	8(%eax), %eax
	leave
	ret
LFE2585:
	.align 1
.globl __ZN9__gnu_cxx13new_allocatorIjED2Ev
	.weak_definition __ZN9__gnu_cxx13new_allocatorIjED2Ev
	.private_extern __ZN9__gnu_cxx13new_allocatorIjED2Ev
__ZN9__gnu_cxx13new_allocatorIjED2Ev:
LFB2588:
	.loc 8 75 0
	nop
	nop
	nop
	nop
	nop
	nop
	pushl	%ebp
LCFI96:
	movl	%esp, %ebp
LCFI97:
	subl	$8, %esp
LCFI98:
	.loc 8 75 0
	leave
	ret
LFE2588:
	.align 1
.globl __ZNSaIjED1Ev
	.weak_definition __ZNSaIjED1Ev
	.private_extern __ZNSaIjED1Ev
__ZNSaIjED1Ev:
LFB2549:
	.loc 11 108 0
	nop
	nop
	nop
	nop
	nop
	nop
	pushl	%ebp
LCFI99:
	movl	%esp, %ebp
LCFI100:
	subl	$24, %esp
LCFI101:
	.loc 11 108 0
	movl	8(%ebp), %eax
	movl	%eax, (%esp)
	call	__ZN9__gnu_cxx13new_allocatorIjED2Ev
	leave
	ret
LFE2549:
	.align 1
.globl __ZNSaIjED2Ev
	.weak_definition __ZNSaIjED2Ev
	.private_extern __ZNSaIjED2Ev
__ZNSaIjED2Ev:
LFB2548:
	.loc 11 108 0
	nop
	nop
	nop
	nop
	nop
	nop
	pushl	%ebp
LCFI102:
	movl	%esp, %ebp
LCFI103:
	subl	$24, %esp
LCFI104:
	.loc 11 108 0
	movl	8(%ebp), %eax
	movl	%eax, (%esp)
	call	__ZN9__gnu_cxx13new_allocatorIjED2Ev
	leave
	ret
LFE2548:
	.align 1
.globl __ZNSbIjSt11char_traitsIjESaIjEE12_Alloc_hiderD1Ev
	.weak_definition __ZNSbIjSt11char_traitsIjESaIjEE12_Alloc_hiderD1Ev
	.private_extern __ZNSbIjSt11char_traitsIjESaIjEE12_Alloc_hiderD1Ev
__ZNSbIjSt11char_traitsIjESaIjEE12_Alloc_hiderD1Ev:
LFB2478:
	.file 12 "/usr/include/c++/4.2.1/bits/basic_string.h"
	.loc 12 260 0
	nop
	nop
	nop
	nop
	nop
	nop
	pushl	%ebp
LCFI105:
	movl	%esp, %ebp
LCFI106:
	subl	$24, %esp
LCFI107:
	.loc 12 260 0
	movl	8(%ebp), %eax
	movl	%eax, (%esp)
	call	__ZNSaIjED2Ev
	leave
	ret
LFE2478:
	.align 1
.globl __ZNKSbIjSt11char_traitsIjESaIjEE7_M_dataEv
	.weak_definition __ZNKSbIjSt11char_traitsIjESaIjEE7_M_dataEv
	.private_extern __ZNKSbIjSt11char_traitsIjESaIjEE7_M_dataEv
__ZNKSbIjSt11char_traitsIjESaIjEE7_M_dataEv:
LFB2590:
	.loc 12 279 0
	nop
	nop
	nop
	nop
	nop
	nop
	pushl	%ebp
LCFI108:
	movl	%esp, %ebp
LCFI109:
	subl	$8, %esp
LCFI110:
	.loc 12 280 0
	movl	8(%ebp), %eax
	movl	(%eax), %eax
	leave
	ret
LFE2590:
	.align 1
.globl __ZNKSbIjSt11char_traitsIjESaIjEE6_M_repEv
	.weak_definition __ZNKSbIjSt11char_traitsIjESaIjEE6_M_repEv
	.private_extern __ZNKSbIjSt11char_traitsIjESaIjEE6_M_repEv
__ZNKSbIjSt11char_traitsIjESaIjEE6_M_repEv:
LFB2550:
	.loc 12 287 0
	nop
	nop
	nop
	nop
	nop
	nop
	pushl	%ebp
LCFI111:
	movl	%esp, %ebp
LCFI112:
	subl	$24, %esp
LCFI113:
	.loc 12 288 0
	movl	8(%ebp), %eax
	movl	%eax, (%esp)
	call	__ZNKSbIjSt11char_traitsIjESaIjEE7_M_dataEv
	subl	$12, %eax
	leave
	ret
LFE2550:
	.align 1
.globl __ZN9__gnu_cxx13new_allocatorIjEC2ERKS1_
	.weak_definition __ZN9__gnu_cxx13new_allocatorIjEC2ERKS1_
	.private_extern __ZN9__gnu_cxx13new_allocatorIjEC2ERKS1_
__ZN9__gnu_cxx13new_allocatorIjEC2ERKS1_:
LFB2592:
	.loc 8 70 0
	nop
	nop
	nop
	nop
	nop
	nop
	pushl	%ebp
LCFI114:
	movl	%esp, %ebp
LCFI115:
	subl	$8, %esp
LCFI116:
	.loc 8 70 0
	leave
	ret
LFE2592:
	.align 1
.globl __ZNSaIjEC1ERKS_
	.weak_definition __ZNSaIjEC1ERKS_
	.private_extern __ZNSaIjEC1ERKS_
__ZNSaIjEC1ERKS_:
LFB2554:
	.loc 11 102 0
	nop
	nop
	nop
	nop
	nop
	nop
	pushl	%ebp
LCFI117:
	movl	%esp, %ebp
LCFI118:
	subl	$24, %esp
LCFI119:
	.loc 11 103 0
	movl	12(%ebp), %eax
	movl	8(%ebp), %edx
	movl	%eax, 4(%esp)
	movl	%edx, (%esp)
	call	__ZN9__gnu_cxx13new_allocatorIjEC2ERKS1_
	leave
	ret
LFE2554:
	.align 1
.globl __ZNKSbIjSt11char_traitsIjESaIjEE13get_allocatorEv
	.weak_definition __ZNKSbIjSt11char_traitsIjESaIjEE13get_allocatorEv
	.private_extern __ZNKSbIjSt11char_traitsIjESaIjEE13get_allocatorEv
__ZNKSbIjSt11char_traitsIjESaIjEE13get_allocatorEv:
LFB2551:
	.loc 12 1549 0
	nop
	nop
	nop
	nop
	nop
	nop
	pushl	%ebp
LCFI120:
	movl	%esp, %ebp
LCFI121:
	pushl	%esi
LCFI122:
	subl	$20, %esp
LCFI123:
	movl	8(%ebp), %esi
	.loc 12 1550 0
	movl	%esi, %edx
	movl	12(%ebp), %eax
	movl	%eax, 4(%esp)
	movl	%edx, (%esp)
	call	__ZNSaIjEC1ERKS_
	movl	%esi, %eax
	addl	$20, %esp
	popl	%esi
	leave
	ret	$4
LFE2551:
.globl __ZNSbIjSt11char_traitsIjESaIjEE4_Rep12_S_empty_repEv
	.weak_definition __ZNSbIjSt11char_traitsIjESaIjEE4_Rep12_S_empty_repEv
	.private_extern __ZNSbIjSt11char_traitsIjESaIjEE4_Rep12_S_empty_repEv
__ZNSbIjSt11char_traitsIjESaIjEE4_Rep12_S_empty_repEv:
LFB2594:
	.loc 12 180 0
	nop
	nop
	nop
	nop
	nop
	nop
	pushl	%ebp
LCFI124:
	movl	%esp, %ebp
LCFI125:
	subl	$24, %esp
LCFI126:
	call	L118
"L00000000002$pb":
L118:
	popl	%ecx
LBB9:
	.loc 12 185 0
	leal	L__ZNSbIjSt11char_traitsIjESaIjEE4_Rep20_S_empty_rep_storageE$non_lazy_ptr-"L00000000002$pb"(%ecx), %eax
	movl	(%eax), %eax
	movl	%eax, -12(%ebp)
	.loc 12 186 0
	movl	-12(%ebp), %eax
LBE9:
	leave
	ret
LFE2594:
	.align 1
.globl __ZN9__gnu_cxx13new_allocatorISt13_Rb_tree_nodeIPN2sf11ResourcePtrINS2_4FontEEEEED2Ev
	.weak_definition __ZN9__gnu_cxx13new_allocatorISt13_Rb_tree_nodeIPN2sf11ResourcePtrINS2_4FontEEEEED2Ev
	.private_extern __ZN9__gnu_cxx13new_allocatorISt13_Rb_tree_nodeIPN2sf11ResourcePtrINS2_4FontEEEEED2Ev
__ZN9__gnu_cxx13new_allocatorISt13_Rb_tree_nodeIPN2sf11ResourcePtrINS2_4FontEEEEED2Ev:
LFB2606:
	.loc 8 75 0
	nop
	nop
	nop
	nop
	nop
	nop
	pushl	%ebp
LCFI127:
	movl	%esp, %ebp
LCFI128:
	subl	$8, %esp
LCFI129:
	.loc 8 75 0
	leave
	ret
LFE2606:
	.align 1
.globl __ZNSaISt13_Rb_tree_nodeIPN2sf11ResourcePtrINS0_4FontEEEEED2Ev
	.weak_definition __ZNSaISt13_Rb_tree_nodeIPN2sf11ResourcePtrINS0_4FontEEEEED2Ev
	.private_extern __ZNSaISt13_Rb_tree_nodeIPN2sf11ResourcePtrINS0_4FontEEEEED2Ev
__ZNSaISt13_Rb_tree_nodeIPN2sf11ResourcePtrINS0_4FontEEEEED2Ev:
LFB2575:
	.loc 11 108 0
	nop
	nop
	nop
	nop
	nop
	nop
	pushl	%ebp
LCFI130:
	movl	%esp, %ebp
LCFI131:
	subl	$24, %esp
LCFI132:
	.loc 11 108 0
	movl	8(%ebp), %eax
	movl	%eax, (%esp)
	call	__ZN9__gnu_cxx13new_allocatorISt13_Rb_tree_nodeIPN2sf11ResourcePtrINS2_4FontEEEEED2Ev
	leave
	ret
LFE2575:
	.align 1
.globl __ZNSt8_Rb_treeIPN2sf11ResourcePtrINS0_4FontEEES4_St9_IdentityIS4_ESt4lessIS4_ESaIS4_EE13_Rb_tree_implIS8_Lb0EED1Ev
	.weak_definition __ZNSt8_Rb_treeIPN2sf11ResourcePtrINS0_4FontEEES4_St9_IdentityIS4_ESt4lessIS4_ESaIS4_EE13_Rb_tree_implIS8_Lb0EED1Ev
	.private_extern __ZNSt8_Rb_treeIPN2sf11ResourcePtrINS0_4FontEEES4_St9_IdentityIS4_ESt4lessIS4_ESaIS4_EE13_Rb_tree_implIS8_Lb0EED1Ev
__ZNSt8_Rb_treeIPN2sf11ResourcePtrINS0_4FontEEES4_St9_IdentityIS4_ESt4lessIS4_ESaIS4_EE13_Rb_tree_implIS8_Lb0EED1Ev:
LFB2533:
	.loc 9 410 0
	nop
	nop
	nop
	nop
	nop
	nop
	pushl	%ebp
LCFI133:
	movl	%esp, %ebp
LCFI134:
	subl	$24, %esp
LCFI135:
	.loc 9 410 0
	movl	8(%ebp), %eax
	movl	%eax, (%esp)
	call	__ZNSaISt13_Rb_tree_nodeIPN2sf11ResourcePtrINS0_4FontEEEEED2Ev
	leave
	ret
LFE2533:
.globl __ZNSt8_Rb_treeIPN2sf11ResourcePtrINS0_4FontEEES4_St9_IdentityIS4_ESt4lessIS4_ESaIS4_EE8_S_rightEPSt18_Rb_tree_node_base
	.weak_definition __ZNSt8_Rb_treeIPN2sf11ResourcePtrINS0_4FontEEES4_St9_IdentityIS4_ESt4lessIS4_ESaIS4_EE8_S_rightEPSt18_Rb_tree_node_base
	.private_extern __ZNSt8_Rb_treeIPN2sf11ResourcePtrINS0_4FontEEES4_St9_IdentityIS4_ESt4lessIS4_ESaIS4_EE8_S_rightEPSt18_Rb_tree_node_base
__ZNSt8_Rb_treeIPN2sf11ResourcePtrINS0_4FontEEES4_St9_IdentityIS4_ESt4lessIS4_ESaIS4_EE8_S_rightEPSt18_Rb_tree_node_base:
LFB2608:
	.loc 9 511 0
	nop
	nop
	nop
	nop
	nop
	nop
	pushl	%ebp
LCFI136:
	movl	%esp, %ebp
LCFI137:
	subl	$8, %esp
LCFI138:
	.loc 9 512 0
	movl	8(%ebp), %eax
	movl	12(%eax), %eax
	leave
	ret
LFE2608:
.globl __ZNSt8_Rb_treeIPN2sf11ResourcePtrINS0_4FontEEES4_St9_IdentityIS4_ESt4lessIS4_ESaIS4_EE7_S_leftEPSt18_Rb_tree_node_base
	.weak_definition __ZNSt8_Rb_treeIPN2sf11ResourcePtrINS0_4FontEEES4_St9_IdentityIS4_ESt4lessIS4_ESaIS4_EE7_S_leftEPSt18_Rb_tree_node_base
	.private_extern __ZNSt8_Rb_treeIPN2sf11ResourcePtrINS0_4FontEEES4_St9_IdentityIS4_ESt4lessIS4_ESaIS4_EE7_S_leftEPSt18_Rb_tree_node_base
__ZNSt8_Rb_treeIPN2sf11ResourcePtrINS0_4FontEEES4_St9_IdentityIS4_ESt4lessIS4_ESaIS4_EE7_S_leftEPSt18_Rb_tree_node_base:
LFB2609:
	.loc 9 503 0
	nop
	nop
	nop
	nop
	nop
	nop
	pushl	%ebp
LCFI139:
	movl	%esp, %ebp
LCFI140:
	subl	$8, %esp
LCFI141:
	.loc 9 504 0
	movl	8(%ebp), %eax
	movl	8(%eax), %eax
	leave
	ret
LFE2609:
	.align 1
.globl __ZNSt23_Rb_tree_const_iteratorIPN2sf11ResourcePtrINS0_4FontEEEEC1EPKSt13_Rb_tree_nodeIS4_E
	.weak_definition __ZNSt23_Rb_tree_const_iteratorIPN2sf11ResourcePtrINS0_4FontEEEEC1EPKSt13_Rb_tree_nodeIS4_E
	.private_extern __ZNSt23_Rb_tree_const_iteratorIPN2sf11ResourcePtrINS0_4FontEEEEC1EPKSt13_Rb_tree_nodeIS4_E
__ZNSt23_Rb_tree_const_iteratorIPN2sf11ResourcePtrINS0_4FontEEEEC1EPKSt13_Rb_tree_nodeIS4_E:
LFB2613:
	.loc 9 243 0
	nop
	nop
	nop
	nop
	nop
	nop
	pushl	%ebp
LCFI142:
	movl	%esp, %ebp
LCFI143:
	subl	$8, %esp
LCFI144:
LBB10:
	.loc 9 244 0
	movl	12(%ebp), %edx
	movl	8(%ebp), %eax
	movl	%edx, (%eax)
LBE10:
	leave
	ret
LFE2613:
	.align 1
.globl __ZNKSt8_Rb_treeIPN2sf11ResourcePtrINS0_4FontEEES4_St9_IdentityIS4_ESt4lessIS4_ESaIS4_EE5beginEv
	.weak_definition __ZNKSt8_Rb_treeIPN2sf11ResourcePtrINS0_4FontEEES4_St9_IdentityIS4_ESt4lessIS4_ESaIS4_EE5beginEv
	.private_extern __ZNKSt8_Rb_treeIPN2sf11ResourcePtrINS0_4FontEEES4_St9_IdentityIS4_ESt4lessIS4_ESaIS4_EE5beginEv
__ZNKSt8_Rb_treeIPN2sf11ResourcePtrINS0_4FontEEES4_St9_IdentityIS4_ESt4lessIS4_ESaIS4_EE5beginEv:
LFB2579:
	.loc 9 612 0
	nop
	nop
	nop
	nop
	nop
	nop
	pushl	%ebp
LCFI145:
	movl	%esp, %ebp
LCFI146:
	subl	$40, %esp
LCFI147:
	.loc 9 615 0
	movl	8(%ebp), %eax
	movl	12(%eax), %eax
	movl	%eax, 4(%esp)
	leal	-12(%ebp), %eax
	movl	%eax, (%esp)
	call	__ZNSt23_Rb_tree_const_iteratorIPN2sf11ResourcePtrINS0_4FontEEEEC1EPKSt13_Rb_tree_nodeIS4_E
	movl	-12(%ebp), %eax
	leave
	ret
LFE2579:
	.align 1
.globl __ZNKSt3setIPN2sf11ResourcePtrINS0_4FontEEESt4lessIS4_ESaIS4_EE5beginEv
	.weak_definition __ZNKSt3setIPN2sf11ResourcePtrINS0_4FontEEESt4lessIS4_ESaIS4_EE5beginEv
	.private_extern __ZNKSt3setIPN2sf11ResourcePtrINS0_4FontEEESt4lessIS4_ESaIS4_EE5beginEv
__ZNKSt3setIPN2sf11ResourcePtrINS0_4FontEEESt4lessIS4_ESaIS4_EE5beginEv:
LFB2536:
	.file 13 "/usr/include/c++/4.2.1/bits/stl_set.h"
	.loc 13 230 0
	nop
	nop
	nop
	nop
	nop
	nop
	pushl	%ebp
LCFI148:
	movl	%esp, %ebp
LCFI149:
	subl	$24, %esp
LCFI150:
	.loc 13 231 0
	movl	8(%ebp), %eax
	movl	%eax, (%esp)
	call	__ZNKSt8_Rb_treeIPN2sf11ResourcePtrINS0_4FontEEES4_St9_IdentityIS4_ESt4lessIS4_ESaIS4_EE5beginEv
	leave
	ret
LFE2536:
	.align 1
.globl __ZNKSt8_Rb_treeIPN2sf11ResourcePtrINS0_4FontEEES4_St9_IdentityIS4_ESt4lessIS4_ESaIS4_EE3endEv
	.weak_definition __ZNKSt8_Rb_treeIPN2sf11ResourcePtrINS0_4FontEEES4_St9_IdentityIS4_ESt4lessIS4_ESaIS4_EE3endEv
	.private_extern __ZNKSt8_Rb_treeIPN2sf11ResourcePtrINS0_4FontEEES4_St9_IdentityIS4_ESt4lessIS4_ESaIS4_EE3endEv
__ZNKSt8_Rb_treeIPN2sf11ResourcePtrINS0_4FontEEES4_St9_IdentityIS4_ESt4lessIS4_ESaIS4_EE3endEv:
LFB2580:
	.loc 9 623 0
	nop
	nop
	nop
	nop
	nop
	nop
	pushl	%ebp
LCFI151:
	movl	%esp, %ebp
LCFI152:
	subl	$40, %esp
LCFI153:
	.loc 9 626 0
	movl	8(%ebp), %eax
	addl	$4, %eax
	movl	%eax, 4(%esp)
	leal	-12(%ebp), %eax
	movl	%eax, (%esp)
	call	__ZNSt23_Rb_tree_const_iteratorIPN2sf11ResourcePtrINS0_4FontEEEEC1EPKSt13_Rb_tree_nodeIS4_E
	movl	-12(%ebp), %eax
	leave
	ret
LFE2580:
	.align 1
.globl __ZNKSt3setIPN2sf11ResourcePtrINS0_4FontEEESt4lessIS4_ESaIS4_EE3endEv
	.weak_definition __ZNKSt3setIPN2sf11ResourcePtrINS0_4FontEEESt4lessIS4_ESaIS4_EE3endEv
	.private_extern __ZNKSt3setIPN2sf11ResourcePtrINS0_4FontEEESt4lessIS4_ESaIS4_EE3endEv
__ZNKSt3setIPN2sf11ResourcePtrINS0_4FontEEESt4lessIS4_ESaIS4_EE3endEv:
LFB2537:
	.loc 13 238 0
	nop
	nop
	nop
	nop
	nop
	nop
	pushl	%ebp
LCFI154:
	movl	%esp, %ebp
LCFI155:
	subl	$24, %esp
LCFI156:
	.loc 13 239 0
	movl	8(%ebp), %eax
	movl	%eax, (%esp)
	call	__ZNKSt8_Rb_treeIPN2sf11ResourcePtrINS0_4FontEEES4_St9_IdentityIS4_ESt4lessIS4_ESaIS4_EE3endEv
	leave
	ret
LFE2537:
	.align 1
.globl __ZNSt4pairIKjN2sf5GlyphEED1Ev
	.weak_definition __ZNSt4pairIKjN2sf5GlyphEED1Ev
	.private_extern __ZNSt4pairIKjN2sf5GlyphEED1Ev
__ZNSt4pairIKjN2sf5GlyphEED1Ev:
LFB2621:
	.file 14 "/usr/include/c++/4.2.1/bits/stl_pair.h"
	.loc 14 69 0
	nop
	nop
	nop
	nop
	nop
	nop
	pushl	%ebp
LCFI157:
	movl	%esp, %ebp
LCFI158:
	subl	$8, %esp
LCFI159:
	.loc 14 69 0
	leave
	ret
LFE2621:
	.align 1
.globl __ZN9__gnu_cxx13new_allocatorISt4pairIKjN2sf5GlyphEEE7destroyEPS5_
	.weak_definition __ZN9__gnu_cxx13new_allocatorISt4pairIKjN2sf5GlyphEEE7destroyEPS5_
	.private_extern __ZN9__gnu_cxx13new_allocatorISt4pairIKjN2sf5GlyphEEE7destroyEPS5_
__ZN9__gnu_cxx13new_allocatorISt4pairIKjN2sf5GlyphEEE7destroyEPS5_:
LFB2618:
	.loc 8 110 0
	nop
	nop
	nop
	nop
	nop
	nop
	pushl	%ebp
LCFI160:
	movl	%esp, %ebp
LCFI161:
	subl	$24, %esp
LCFI162:
	.loc 8 110 0
	movl	12(%ebp), %eax
	movl	%eax, (%esp)
	call	__ZNSt4pairIKjN2sf5GlyphEED1Ev
	leave
	ret
LFE2618:
	.align 1
.globl __ZNSaIcEC1IjEERKSaIT_E
	.weak_definition __ZNSaIcEC1IjEERKSaIT_E
	.private_extern __ZNSaIcEC1IjEERKSaIT_E
__ZNSaIcEC1IjEERKSaIT_E:
LFB2625:
	.loc 11 106 0
	nop
	nop
	nop
	nop
	nop
	nop
	pushl	%ebp
LCFI163:
	movl	%esp, %ebp
LCFI164:
	subl	$24, %esp
LCFI165:
	.loc 11 106 0
	movl	8(%ebp), %eax
	movl	%eax, (%esp)
	call	__ZN9__gnu_cxx13new_allocatorIcEC2Ev
	leave
	ret
LFE2625:
	.align 1
.globl __ZNKSt8_Rb_treeIPN2sf11ResourcePtrINS0_5ImageEEES4_St9_IdentityIS4_ESt4lessIS4_ESaIS4_EE4sizeEv
	.weak_definition __ZNKSt8_Rb_treeIPN2sf11ResourcePtrINS0_5ImageEEES4_St9_IdentityIS4_ESt4lessIS4_ESaIS4_EE4sizeEv
	.private_extern __ZNKSt8_Rb_treeIPN2sf11ResourcePtrINS0_5ImageEEES4_St9_IdentityIS4_ESt4lessIS4_ESaIS4_EE4sizeEv
__ZNKSt8_Rb_treeIPN2sf11ResourcePtrINS0_5ImageEEES4_St9_IdentityIS4_ESt4lessIS4_ESaIS4_EE4sizeEv:
LFB2642:
	.loc 9 650 0
	nop
	nop
	nop
	nop
	nop
	nop
	pushl	%ebp
LCFI166:
	movl	%esp, %ebp
LCFI167:
	subl	$8, %esp
LCFI168:
	.loc 9 651 0
	movl	8(%ebp), %eax
	movl	20(%eax), %eax
	leave
	ret
LFE2642:
	.align 1
.globl __ZN9__gnu_cxx13new_allocatorIPN2sf11ResourcePtrINS1_4FontEEEE7destroyEPS5_
	.weak_definition __ZN9__gnu_cxx13new_allocatorIPN2sf11ResourcePtrINS1_4FontEEEE7destroyEPS5_
	.private_extern __ZN9__gnu_cxx13new_allocatorIPN2sf11ResourcePtrINS1_4FontEEEE7destroyEPS5_
__ZN9__gnu_cxx13new_allocatorIPN2sf11ResourcePtrINS1_4FontEEEE7destroyEPS5_:
LFB2648:
	.loc 8 110 0
	nop
	nop
	nop
	nop
	nop
	nop
	pushl	%ebp
LCFI169:
	movl	%esp, %ebp
LCFI170:
	subl	$8, %esp
LCFI171:
	.loc 8 110 0
	leave
	ret
LFE2648:
	.align 1
.globl __ZNKSt8_Rb_treeIjSt4pairIKjN2sf5GlyphEESt10_Select1stIS4_ESt4lessIjESaIS4_EE21_M_get_Node_allocatorEv
	.weak_definition __ZNKSt8_Rb_treeIjSt4pairIKjN2sf5GlyphEESt10_Select1stIS4_ESt4lessIjESaIS4_EE21_M_get_Node_allocatorEv
	.private_extern __ZNKSt8_Rb_treeIjSt4pairIKjN2sf5GlyphEESt10_Select1stIS4_ESt4lessIjESaIS4_EE21_M_get_Node_allocatorEv
__ZNKSt8_Rb_treeIjSt4pairIKjN2sf5GlyphEESt10_Select1stIS4_ESt4lessIjESaIS4_EE21_M_get_Node_allocatorEv:
LFB2650:
	.loc 9 359 0
	nop
	nop
	nop
	nop
	nop
	nop
	pushl	%ebp
LCFI172:
	movl	%esp, %ebp
LCFI173:
	subl	$8, %esp
LCFI174:
	.loc 9 360 0
	movl	8(%ebp), %eax
	leave
	ret
LFE2650:
	.align 1
.globl __ZN9__gnu_cxx13new_allocatorISt4pairIKjN2sf5GlyphEEED2Ev
	.weak_definition __ZN9__gnu_cxx13new_allocatorISt4pairIKjN2sf5GlyphEEED2Ev
	.private_extern __ZN9__gnu_cxx13new_allocatorISt4pairIKjN2sf5GlyphEEED2Ev
__ZN9__gnu_cxx13new_allocatorISt4pairIKjN2sf5GlyphEEED2Ev:
LFB2658:
	.loc 8 75 0
	nop
	nop
	nop
	nop
	nop
	nop
	pushl	%ebp
LCFI175:
	movl	%esp, %ebp
LCFI176:
	subl	$8, %esp
LCFI177:
	.loc 8 75 0
	leave
	ret
LFE2658:
	.align 1
.globl __ZNSaISt4pairIKjN2sf5GlyphEEED1Ev
	.weak_definition __ZNSaISt4pairIKjN2sf5GlyphEEED1Ev
	.private_extern __ZNSaISt4pairIKjN2sf5GlyphEEED1Ev
__ZNSaISt4pairIKjN2sf5GlyphEEED1Ev:
LFB2617:
	.loc 11 108 0
	nop
	nop
	nop
	nop
	nop
	nop
	pushl	%ebp
LCFI178:
	movl	%esp, %ebp
LCFI179:
	subl	$24, %esp
LCFI180:
	.loc 11 108 0
	movl	8(%ebp), %eax
	movl	%eax, (%esp)
	call	__ZN9__gnu_cxx13new_allocatorISt4pairIKjN2sf5GlyphEEED2Ev
	leave
	ret
LFE2617:
	.align 1
.globl __ZNKSt8_Rb_treeIPN2sf11ResourcePtrINS0_4FontEEES4_St9_IdentityIS4_ESt4lessIS4_ESaIS4_EE4sizeEv
	.weak_definition __ZNKSt8_Rb_treeIPN2sf11ResourcePtrINS0_4FontEEES4_St9_IdentityIS4_ESt4lessIS4_ESaIS4_EE4sizeEv
	.private_extern __ZNKSt8_Rb_treeIPN2sf11ResourcePtrINS0_4FontEEES4_St9_IdentityIS4_ESt4lessIS4_ESaIS4_EE4sizeEv
__ZNKSt8_Rb_treeIPN2sf11ResourcePtrINS0_4FontEEES4_St9_IdentityIS4_ESt4lessIS4_ESaIS4_EE4sizeEv:
LFB2662:
	.loc 9 650 0
	nop
	nop
	nop
	nop
	nop
	nop
	pushl	%ebp
LCFI181:
	movl	%esp, %ebp
LCFI182:
	subl	$8, %esp
LCFI183:
	.loc 9 651 0
	movl	8(%ebp), %eax
	movl	20(%eax), %eax
	leave
	ret
LFE2662:
	.align 1
.globl __ZNSt4pairISt17_Rb_tree_iteratorIPN2sf11ResourcePtrINS1_5ImageEEEES6_EC1ERKS6_S9_
	.weak_definition __ZNSt4pairISt17_Rb_tree_iteratorIPN2sf11ResourcePtrINS1_5ImageEEEES6_EC1ERKS6_S9_
	.private_extern __ZNSt4pairISt17_Rb_tree_iteratorIPN2sf11ResourcePtrINS1_5ImageEEEES6_EC1ERKS6_S9_
__ZNSt4pairISt17_Rb_tree_iteratorIPN2sf11ResourcePtrINS1_5ImageEEEES6_EC1ERKS6_S9_:
LFB2669:
	.loc 14 84 0
	nop
	nop
	nop
	nop
	nop
	nop
	pushl	%ebp
LCFI184:
	movl	%esp, %ebp
LCFI185:
	subl	$8, %esp
LCFI186:
LBB11:
	.loc 14 85 0
	movl	12(%ebp), %eax
	movl	(%eax), %edx
	movl	8(%ebp), %eax
	movl	%edx, (%eax)
	movl	16(%ebp), %eax
	movl	(%eax), %edx
	movl	8(%ebp), %eax
	movl	%edx, 4(%eax)
LBE11:
	leave
	ret
LFE2669:
	.align 1
.globl __ZNKSt17_Rb_tree_iteratorIPN2sf11ResourcePtrINS0_5ImageEEEEeqERKS5_
	.weak_definition __ZNKSt17_Rb_tree_iteratorIPN2sf11ResourcePtrINS0_5ImageEEEEeqERKS5_
	.private_extern __ZNKSt17_Rb_tree_iteratorIPN2sf11ResourcePtrINS0_5ImageEEEEeqERKS5_
__ZNKSt17_Rb_tree_iteratorIPN2sf11ResourcePtrINS0_5ImageEEEEeqERKS5_:
LFB2671:
	.loc 9 213 0
	nop
	nop
	nop
	nop
	nop
	nop
	pushl	%ebp
LCFI187:
	movl	%esp, %ebp
LCFI188:
	subl	$8, %esp
LCFI189:
	.loc 9 214 0
	movl	8(%ebp), %eax
	movl	(%eax), %edx
	movl	12(%ebp), %eax
	movl	(%eax), %eax
	cmpl	%eax, %edx
	sete	%al
	movzbl	%al, %eax
	leave
	ret
LFE2671:
	.align 1
.globl __ZNKSt17_Rb_tree_iteratorIPN2sf11ResourcePtrINS0_5ImageEEEEneERKS5_
	.weak_definition __ZNKSt17_Rb_tree_iteratorIPN2sf11ResourcePtrINS0_5ImageEEEEneERKS5_
	.private_extern __ZNKSt17_Rb_tree_iteratorIPN2sf11ResourcePtrINS0_5ImageEEEEneERKS5_
__ZNKSt17_Rb_tree_iteratorIPN2sf11ResourcePtrINS0_5ImageEEEEneERKS5_:
LFB2674:
	.loc 9 217 0
	nop
	nop
	nop
	nop
	nop
	nop
	pushl	%ebp
LCFI190:
	movl	%esp, %ebp
LCFI191:
	subl	$8, %esp
LCFI192:
	.loc 9 218 0
	movl	8(%ebp), %eax
	movl	(%eax), %edx
	movl	12(%ebp), %eax
	movl	(%eax), %eax
	cmpl	%eax, %edx
	setne	%al
	movzbl	%al, %eax
	leave
	ret
LFE2674:
	.align 1
.globl __ZNKSt8_Rb_treeIPN2sf11ResourcePtrINS0_4FontEEES4_St9_IdentityIS4_ESt4lessIS4_ESaIS4_EE21_M_get_Node_allocatorEv
	.weak_definition __ZNKSt8_Rb_treeIPN2sf11ResourcePtrINS0_4FontEEES4_St9_IdentityIS4_ESt4lessIS4_ESaIS4_EE21_M_get_Node_allocatorEv
	.private_extern __ZNKSt8_Rb_treeIPN2sf11ResourcePtrINS0_4FontEEES4_St9_IdentityIS4_ESt4lessIS4_ESaIS4_EE21_M_get_Node_allocatorEv
__ZNKSt8_Rb_treeIPN2sf11ResourcePtrINS0_4FontEEES4_St9_IdentityIS4_ESt4lessIS4_ESaIS4_EE21_M_get_Node_allocatorEv:
LFB2677:
	.loc 9 359 0
	nop
	nop
	nop
	nop
	nop
	nop
	pushl	%ebp
LCFI193:
	movl	%esp, %ebp
LCFI194:
	subl	$8, %esp
LCFI195:
	.loc 9 360 0
	movl	8(%ebp), %eax
	leave
	ret
LFE2677:
	.align 1
.globl __ZN9__gnu_cxx13new_allocatorIPN2sf11ResourcePtrINS1_4FontEEEED2Ev
	.weak_definition __ZN9__gnu_cxx13new_allocatorIPN2sf11ResourcePtrINS1_4FontEEEED2Ev
	.private_extern __ZN9__gnu_cxx13new_allocatorIPN2sf11ResourcePtrINS1_4FontEEEED2Ev
__ZN9__gnu_cxx13new_allocatorIPN2sf11ResourcePtrINS1_4FontEEEED2Ev:
LFB2685:
	.loc 8 75 0
	nop
	nop
	nop
	nop
	nop
	nop
	pushl	%ebp
LCFI196:
	movl	%esp, %ebp
LCFI197:
	subl	$8, %esp
LCFI198:
	.loc 8 75 0
	leave
	ret
LFE2685:
	.align 1
.globl __ZNSaIPN2sf11ResourcePtrINS_4FontEEEED1Ev
	.weak_definition __ZNSaIPN2sf11ResourcePtrINS_4FontEEEED1Ev
	.private_extern __ZNSaIPN2sf11ResourcePtrINS_4FontEEEED1Ev
__ZNSaIPN2sf11ResourcePtrINS_4FontEEEED1Ev:
LFB2647:
	.loc 11 108 0
	nop
	nop
	nop
	nop
	nop
	nop
	pushl	%ebp
LCFI199:
	movl	%esp, %ebp
LCFI200:
	subl	$24, %esp
LCFI201:
	.loc 11 108 0
	movl	8(%ebp), %eax
	movl	%eax, (%esp)
	call	__ZN9__gnu_cxx13new_allocatorIPN2sf11ResourcePtrINS1_4FontEEEED2Ev
	leave
	ret
LFE2647:
	.align 1
.globl __ZN9__gnu_cxx13new_allocatorISt4pairIKjN2sf5GlyphEEEC2Ev
	.weak_definition __ZN9__gnu_cxx13new_allocatorISt4pairIKjN2sf5GlyphEEEC2Ev
	.private_extern __ZN9__gnu_cxx13new_allocatorISt4pairIKjN2sf5GlyphEEEC2Ev
__ZN9__gnu_cxx13new_allocatorISt4pairIKjN2sf5GlyphEEEC2Ev:
LFB2689:
	.loc 8 68 0
	nop
	nop
	nop
	nop
	nop
	nop
	pushl	%ebp
LCFI202:
	movl	%esp, %ebp
LCFI203:
	subl	$8, %esp
LCFI204:
	.loc 8 68 0
	leave
	ret
LFE2689:
	.align 1
.globl __ZNSaISt4pairIKjN2sf5GlyphEEEC1ISt13_Rb_tree_nodeIS3_EEERKSaIT_E
	.weak_definition __ZNSaISt4pairIKjN2sf5GlyphEEEC1ISt13_Rb_tree_nodeIS3_EEERKSaIT_E
	.private_extern __ZNSaISt4pairIKjN2sf5GlyphEEEC1ISt13_Rb_tree_nodeIS3_EEERKSaIT_E
__ZNSaISt4pairIKjN2sf5GlyphEEEC1ISt13_Rb_tree_nodeIS3_EEERKSaIT_E:
LFB2653:
	.loc 11 106 0
	nop
	nop
	nop
	nop
	nop
	nop
	pushl	%ebp
LCFI205:
	movl	%esp, %ebp
LCFI206:
	subl	$24, %esp
LCFI207:
	.loc 11 106 0
	movl	8(%ebp), %eax
	movl	%eax, (%esp)
	call	__ZN9__gnu_cxx13new_allocatorISt4pairIKjN2sf5GlyphEEEC2Ev
	leave
	ret
LFE2653:
	.align 1
.globl __ZNKSt8_Rb_treeIjSt4pairIKjN2sf5GlyphEESt10_Select1stIS4_ESt4lessIjESaIS4_EE13get_allocatorEv
	.weak_definition __ZNKSt8_Rb_treeIjSt4pairIKjN2sf5GlyphEESt10_Select1stIS4_ESt4lessIjESaIS4_EE13get_allocatorEv
	.private_extern __ZNKSt8_Rb_treeIjSt4pairIKjN2sf5GlyphEESt10_Select1stIS4_ESt4lessIjESaIS4_EE13get_allocatorEv
__ZNKSt8_Rb_treeIjSt4pairIKjN2sf5GlyphEESt10_Select1stIS4_ESt4lessIjESaIS4_EE13get_allocatorEv:
LFB2614:
	.loc 9 363 0
	nop
	nop
	nop
	nop
	nop
	nop
	pushl	%ebp
LCFI208:
	movl	%esp, %ebp
LCFI209:
	pushl	%edi
LCFI210:
	pushl	%esi
LCFI211:
	subl	$16, %esp
LCFI212:
	movl	8(%ebp), %esi
	.loc 9 364 0
	movl	%esi, %edi
	movl	12(%ebp), %eax
	movl	%eax, (%esp)
	call	__ZNKSt8_Rb_treeIjSt4pairIKjN2sf5GlyphEESt10_Select1stIS4_ESt4lessIjESaIS4_EE21_M_get_Node_allocatorEv
	movl	%eax, 4(%esp)
	movl	%edi, (%esp)
	call	__ZNSaISt4pairIKjN2sf5GlyphEEEC1ISt13_Rb_tree_nodeIS3_EEERKSaIT_E
	movl	%esi, %eax
	addl	$16, %esp
	popl	%esi
	popl	%edi
	leave
	ret	$4
LFE2614:
	.align 1
.globl __ZNSt4pairISt17_Rb_tree_iteratorIPN2sf11ResourcePtrINS1_4FontEEEES6_EC1ERKS6_S9_
	.weak_definition __ZNSt4pairISt17_Rb_tree_iteratorIPN2sf11ResourcePtrINS1_4FontEEEES6_EC1ERKS6_S9_
	.private_extern __ZNSt4pairISt17_Rb_tree_iteratorIPN2sf11ResourcePtrINS1_4FontEEEES6_EC1ERKS6_S9_
__ZNSt4pairISt17_Rb_tree_iteratorIPN2sf11ResourcePtrINS1_4FontEEEES6_EC1ERKS6_S9_:
LFB2698:
	.loc 14 84 0
	nop
	nop
	nop
	nop
	nop
	nop
	pushl	%ebp
LCFI213:
	movl	%esp, %ebp
LCFI214:
	subl	$8, %esp
LCFI215:
LBB12:
	.loc 14 85 0
	movl	12(%ebp), %eax
	movl	(%eax), %edx
	movl	8(%ebp), %eax
	movl	%edx, (%eax)
	movl	16(%ebp), %eax
	movl	(%eax), %edx
	movl	8(%ebp), %eax
	movl	%edx, 4(%eax)
LBE12:
	leave
	ret
LFE2698:
	.align 1
.globl __ZNKSt17_Rb_tree_iteratorIPN2sf11ResourcePtrINS0_4FontEEEEeqERKS5_
	.weak_definition __ZNKSt17_Rb_tree_iteratorIPN2sf11ResourcePtrINS0_4FontEEEEeqERKS5_
	.private_extern __ZNKSt17_Rb_tree_iteratorIPN2sf11ResourcePtrINS0_4FontEEEEeqERKS5_
__ZNKSt17_Rb_tree_iteratorIPN2sf11ResourcePtrINS0_4FontEEEEeqERKS5_:
LFB2700:
	.loc 9 213 0
	nop
	nop
	nop
	nop
	nop
	nop
	pushl	%ebp
LCFI216:
	movl	%esp, %ebp
LCFI217:
	subl	$8, %esp
LCFI218:
	.loc 9 214 0
	movl	8(%ebp), %eax
	movl	(%eax), %edx
	movl	12(%ebp), %eax
	movl	(%eax), %eax
	cmpl	%eax, %edx
	sete	%al
	movzbl	%al, %eax
	leave
	ret
LFE2700:
	.align 1
.globl __ZNKSt17_Rb_tree_iteratorIPN2sf11ResourcePtrINS0_4FontEEEEneERKS5_
	.weak_definition __ZNKSt17_Rb_tree_iteratorIPN2sf11ResourcePtrINS0_4FontEEEEneERKS5_
	.private_extern __ZNKSt17_Rb_tree_iteratorIPN2sf11ResourcePtrINS0_4FontEEEEneERKS5_
__ZNKSt17_Rb_tree_iteratorIPN2sf11ResourcePtrINS0_4FontEEEEneERKS5_:
LFB2703:
	.loc 9 217 0
	nop
	nop
	nop
	nop
	nop
	nop
	pushl	%ebp
LCFI219:
	movl	%esp, %ebp
LCFI220:
	subl	$8, %esp
LCFI221:
	.loc 9 218 0
	movl	8(%ebp), %eax
	movl	(%eax), %edx
	movl	12(%ebp), %eax
	movl	(%eax), %eax
	cmpl	%eax, %edx
	setne	%al
	movzbl	%al, %eax
	leave
	ret
LFE2703:
	.align 1
.globl __ZNSt8_Rb_treeIPN2sf11ResourcePtrINS0_5ImageEEES4_St9_IdentityIS4_ESt4lessIS4_ESaIS4_EE8_M_beginEv
	.weak_definition __ZNSt8_Rb_treeIPN2sf11ResourcePtrINS0_5ImageEEES4_St9_IdentityIS4_ESt4lessIS4_ESaIS4_EE8_M_beginEv
	.private_extern __ZNSt8_Rb_treeIPN2sf11ResourcePtrINS0_5ImageEEES4_St9_IdentityIS4_ESt4lessIS4_ESaIS4_EE8_M_beginEv
__ZNSt8_Rb_treeIPN2sf11ResourcePtrINS0_5ImageEEES4_St9_IdentityIS4_ESt4lessIS4_ESaIS4_EE8_M_beginEv:
LFB2711:
	.loc 9 476 0
	nop
	nop
	nop
	nop
	nop
	nop
	pushl	%ebp
LCFI222:
	movl	%esp, %ebp
LCFI223:
	subl	$8, %esp
LCFI224:
	.loc 9 477 0
	movl	8(%ebp), %eax
	movl	8(%eax), %eax
	leave
	ret
LFE2711:
	.align 1
.globl __ZNSt8_Rb_treeIPN2sf11ResourcePtrINS0_5ImageEEES4_St9_IdentityIS4_ESt4lessIS4_ESaIS4_EE6_M_endEv
	.weak_definition __ZNSt8_Rb_treeIPN2sf11ResourcePtrINS0_5ImageEEES4_St9_IdentityIS4_ESt4lessIS4_ESaIS4_EE6_M_endEv
	.private_extern __ZNSt8_Rb_treeIPN2sf11ResourcePtrINS0_5ImageEEES4_St9_IdentityIS4_ESt4lessIS4_ESaIS4_EE6_M_endEv
__ZNSt8_Rb_treeIPN2sf11ResourcePtrINS0_5ImageEEES4_St9_IdentityIS4_ESt4lessIS4_ESaIS4_EE6_M_endEv:
LFB2712:
	.loc 9 487 0
	nop
	nop
	nop
	nop
	nop
	nop
	pushl	%ebp
LCFI225:
	movl	%esp, %ebp
LCFI226:
	subl	$8, %esp
LCFI227:
	.loc 9 488 0
	movl	8(%ebp), %eax
	addl	$4, %eax
	leave
	ret
LFE2712:
	.align 1
.globl __ZNSt14unary_functionIPN2sf11ResourcePtrINS0_5ImageEEES4_EC2Ev
	.weak_definition __ZNSt14unary_functionIPN2sf11ResourcePtrINS0_5ImageEEES4_EC2Ev
	.private_extern __ZNSt14unary_functionIPN2sf11ResourcePtrINS0_5ImageEEES4_EC2Ev
__ZNSt14unary_functionIPN2sf11ResourcePtrINS0_5ImageEEES4_EC2Ev:
LFB2716:
	.file 15 "/usr/include/c++/4.2.1/bits/stl_function.h"
	.loc 15 103 0
	nop
	nop
	nop
	nop
	nop
	nop
	pushl	%ebp
LCFI228:
	movl	%esp, %ebp
LCFI229:
	subl	$8, %esp
LCFI230:
	.loc 15 103 0
	leave
	ret
LFE2716:
	.align 1
.globl __ZNSt9_IdentityIPN2sf11ResourcePtrINS0_5ImageEEEEC1Ev
	.weak_definition __ZNSt9_IdentityIPN2sf11ResourcePtrINS0_5ImageEEEEC1Ev
	.private_extern __ZNSt9_IdentityIPN2sf11ResourcePtrINS0_5ImageEEEEC1Ev
__ZNSt9_IdentityIPN2sf11ResourcePtrINS0_5ImageEEEEC1Ev:
LFB2719:
	.loc 15 531 0
	nop
	nop
	nop
	nop
	nop
	nop
	pushl	%ebp
LCFI231:
	movl	%esp, %ebp
LCFI232:
	subl	$24, %esp
LCFI233:
LBB13:
	.loc 15 531 0
	movl	8(%ebp), %eax
	movl	%eax, (%esp)
	call	__ZNSt14unary_functionIPN2sf11ResourcePtrINS0_5ImageEEES4_EC2Ev
LBE13:
	leave
	ret
LFE2719:
	.align 1
.globl __ZNKSt4lessIPN2sf11ResourcePtrINS0_5ImageEEEEclERKS4_S7_
	.weak_definition __ZNKSt4lessIPN2sf11ResourcePtrINS0_5ImageEEEEclERKS4_S7_
	.private_extern __ZNKSt4lessIPN2sf11ResourcePtrINS0_5ImageEEEEclERKS4_S7_
__ZNKSt4lessIPN2sf11ResourcePtrINS0_5ImageEEEEclERKS4_S7_:
LFB2720:
	.loc 15 226 0
	nop
	nop
	nop
	nop
	nop
	nop
	pushl	%ebp
LCFI234:
	movl	%esp, %ebp
LCFI235:
	subl	$8, %esp
LCFI236:
	.loc 15 227 0
	movl	12(%ebp), %eax
	movl	(%eax), %edx
	movl	16(%ebp), %eax
	movl	(%eax), %eax
	cmpl	%eax, %edx
	setb	%al
	movzbl	%al, %eax
	leave
	ret
LFE2720:
.globl __ZNSt8_Rb_treeIPN2sf11ResourcePtrINS0_5ImageEEES4_St9_IdentityIS4_ESt4lessIS4_ESaIS4_EE7_S_leftEPSt18_Rb_tree_node_base
	.weak_definition __ZNSt8_Rb_treeIPN2sf11ResourcePtrINS0_5ImageEEES4_St9_IdentityIS4_ESt4lessIS4_ESaIS4_EE7_S_leftEPSt18_Rb_tree_node_base
	.private_extern __ZNSt8_Rb_treeIPN2sf11ResourcePtrINS0_5ImageEEES4_St9_IdentityIS4_ESt4lessIS4_ESaIS4_EE7_S_leftEPSt18_Rb_tree_node_base
__ZNSt8_Rb_treeIPN2sf11ResourcePtrINS0_5ImageEEES4_St9_IdentityIS4_ESt4lessIS4_ESaIS4_EE7_S_leftEPSt18_Rb_tree_node_base:
LFB2721:
	.loc 9 503 0
	nop
	nop
	nop
	nop
	nop
	nop
	pushl	%ebp
LCFI237:
	movl	%esp, %ebp
LCFI238:
	subl	$8, %esp
LCFI239:
	.loc 9 504 0
	movl	8(%ebp), %eax
	movl	8(%eax), %eax
	leave
	ret
LFE2721:
.globl __ZNSt8_Rb_treeIPN2sf11ResourcePtrINS0_5ImageEEES4_St9_IdentityIS4_ESt4lessIS4_ESaIS4_EE8_S_rightEPSt18_Rb_tree_node_base
	.weak_definition __ZNSt8_Rb_treeIPN2sf11ResourcePtrINS0_5ImageEEES4_St9_IdentityIS4_ESt4lessIS4_ESaIS4_EE8_S_rightEPSt18_Rb_tree_node_base
	.private_extern __ZNSt8_Rb_treeIPN2sf11ResourcePtrINS0_5ImageEEES4_St9_IdentityIS4_ESt4lessIS4_ESaIS4_EE8_S_rightEPSt18_Rb_tree_node_base
__ZNSt8_Rb_treeIPN2sf11ResourcePtrINS0_5ImageEEES4_St9_IdentityIS4_ESt4lessIS4_ESaIS4_EE8_S_rightEPSt18_Rb_tree_node_base:
LFB2722:
	.loc 9 511 0
	nop
	nop
	nop
	nop
	nop
	nop
	pushl	%ebp
LCFI240:
	movl	%esp, %ebp
LCFI241:
	subl	$8, %esp
LCFI242:
	.loc 9 512 0
	movl	8(%ebp), %eax
	movl	12(%eax), %eax
	leave
	ret
LFE2722:
	.align 1
.globl __ZNSt17_Rb_tree_iteratorIPN2sf11ResourcePtrINS0_5ImageEEEEC1EPSt13_Rb_tree_nodeIS4_E
	.weak_definition __ZNSt17_Rb_tree_iteratorIPN2sf11ResourcePtrINS0_5ImageEEEEC1EPSt13_Rb_tree_nodeIS4_E
	.private_extern __ZNSt17_Rb_tree_iteratorIPN2sf11ResourcePtrINS0_5ImageEEEEC1EPSt13_Rb_tree_nodeIS4_E
__ZNSt17_Rb_tree_iteratorIPN2sf11ResourcePtrINS0_5ImageEEEEC1EPSt13_Rb_tree_nodeIS4_E:
LFB2725:
	.loc 9 171 0
	nop
	nop
	nop
	nop
	nop
	nop
	pushl	%ebp
LCFI243:
	movl	%esp, %ebp
LCFI244:
	subl	$8, %esp
LCFI245:
LBB14:
	.loc 9 172 0
	movl	12(%ebp), %edx
	movl	8(%ebp), %eax
	movl	%edx, (%eax)
LBE14:
	leave
	ret
LFE2725:
	.align 1
.globl __ZNSt8_Rb_treeIPN2sf11ResourcePtrINS0_5ImageEEES4_St9_IdentityIS4_ESt4lessIS4_ESaIS4_EE5beginEv
	.weak_definition __ZNSt8_Rb_treeIPN2sf11ResourcePtrINS0_5ImageEEES4_St9_IdentityIS4_ESt4lessIS4_ESaIS4_EE5beginEv
	.private_extern __ZNSt8_Rb_treeIPN2sf11ResourcePtrINS0_5ImageEEES4_St9_IdentityIS4_ESt4lessIS4_ESaIS4_EE5beginEv
__ZNSt8_Rb_treeIPN2sf11ResourcePtrINS0_5ImageEEES4_St9_IdentityIS4_ESt4lessIS4_ESaIS4_EE5beginEv:
LFB2672:
	.loc 9 605 0
	nop
	nop
	nop
	nop
	nop
	nop
	pushl	%ebp
LCFI246:
	movl	%esp, %ebp
LCFI247:
	subl	$40, %esp
LCFI248:
	.loc 9 608 0
	movl	8(%ebp), %eax
	movl	12(%eax), %eax
	movl	%eax, 4(%esp)
	leal	-12(%ebp), %eax
	movl	%eax, (%esp)
	call	__ZNSt17_Rb_tree_iteratorIPN2sf11ResourcePtrINS0_5ImageEEEEC1EPSt13_Rb_tree_nodeIS4_E
	movl	-12(%ebp), %eax
	leave
	ret
LFE2672:
	.align 1
.globl __ZNSt8_Rb_treeIPN2sf11ResourcePtrINS0_5ImageEEES4_St9_IdentityIS4_ESt4lessIS4_ESaIS4_EE3endEv
	.weak_definition __ZNSt8_Rb_treeIPN2sf11ResourcePtrINS0_5ImageEEES4_St9_IdentityIS4_ESt4lessIS4_ESaIS4_EE3endEv
	.private_extern __ZNSt8_Rb_treeIPN2sf11ResourcePtrINS0_5ImageEEES4_St9_IdentityIS4_ESt4lessIS4_ESaIS4_EE3endEv
__ZNSt8_Rb_treeIPN2sf11ResourcePtrINS0_5ImageEEES4_St9_IdentityIS4_ESt4lessIS4_ESaIS4_EE3endEv:
LFB2670:
	.loc 9 619 0
	nop
	nop
	nop
	nop
	nop
	nop
	pushl	%ebp
LCFI249:
	movl	%esp, %ebp
LCFI250:
	subl	$40, %esp
LCFI251:
	.loc 9 620 0
	movl	8(%ebp), %eax
	addl	$4, %eax
	movl	%eax, 4(%esp)
	leal	-12(%ebp), %eax
	movl	%eax, (%esp)
	call	__ZNSt17_Rb_tree_iteratorIPN2sf11ResourcePtrINS0_5ImageEEEEC1EPSt13_Rb_tree_nodeIS4_E
	movl	-12(%ebp), %eax
	leave
	ret
LFE2670:
	.align 1
.globl __ZNSt8_Rb_treeIPN2sf11ResourcePtrINS0_5ImageEEES4_St9_IdentityIS4_ESt4lessIS4_ESaIS4_EE11_M_leftmostEv
	.weak_definition __ZNSt8_Rb_treeIPN2sf11ResourcePtrINS0_5ImageEEES4_St9_IdentityIS4_ESt4lessIS4_ESaIS4_EE11_M_leftmostEv
	.private_extern __ZNSt8_Rb_treeIPN2sf11ResourcePtrINS0_5ImageEEES4_St9_IdentityIS4_ESt4lessIS4_ESaIS4_EE11_M_leftmostEv
__ZNSt8_Rb_treeIPN2sf11ResourcePtrINS0_5ImageEEES4_St9_IdentityIS4_ESt4lessIS4_ESaIS4_EE11_M_leftmostEv:
LFB2727:
	.loc 9 460 0
	nop
	nop
	nop
	nop
	nop
	nop
	pushl	%ebp
LCFI252:
	movl	%esp, %ebp
LCFI253:
	subl	$8, %esp
LCFI254:
	.loc 9 461 0
	movl	8(%ebp), %eax
	addl	$12, %eax
	leave
	ret
LFE2727:
	.align 1
.globl __ZNSt8_Rb_treeIPN2sf11ResourcePtrINS0_5ImageEEES4_St9_IdentityIS4_ESt4lessIS4_ESaIS4_EE7_M_rootEv
	.weak_definition __ZNSt8_Rb_treeIPN2sf11ResourcePtrINS0_5ImageEEES4_St9_IdentityIS4_ESt4lessIS4_ESaIS4_EE7_M_rootEv
	.private_extern __ZNSt8_Rb_treeIPN2sf11ResourcePtrINS0_5ImageEEES4_St9_IdentityIS4_ESt4lessIS4_ESaIS4_EE7_M_rootEv
__ZNSt8_Rb_treeIPN2sf11ResourcePtrINS0_5ImageEEES4_St9_IdentityIS4_ESt4lessIS4_ESaIS4_EE7_M_rootEv:
LFB2728:
	.loc 9 452 0
	nop
	nop
	nop
	nop
	nop
	nop
	pushl	%ebp
LCFI255:
	movl	%esp, %ebp
LCFI256:
	subl	$8, %esp
LCFI257:
	.loc 9 453 0
	movl	8(%ebp), %eax
	addl	$8, %eax
	leave
	ret
LFE2728:
	.align 1
.globl __ZNSt8_Rb_treeIPN2sf11ResourcePtrINS0_5ImageEEES4_St9_IdentityIS4_ESt4lessIS4_ESaIS4_EE12_M_rightmostEv
	.weak_definition __ZNSt8_Rb_treeIPN2sf11ResourcePtrINS0_5ImageEEES4_St9_IdentityIS4_ESt4lessIS4_ESaIS4_EE12_M_rightmostEv
	.private_extern __ZNSt8_Rb_treeIPN2sf11ResourcePtrINS0_5ImageEEES4_St9_IdentityIS4_ESt4lessIS4_ESaIS4_EE12_M_rightmostEv
__ZNSt8_Rb_treeIPN2sf11ResourcePtrINS0_5ImageEEES4_St9_IdentityIS4_ESt4lessIS4_ESaIS4_EE12_M_rightmostEv:
LFB2729:
	.loc 9 468 0
	nop
	nop
	nop
	nop
	nop
	nop
	pushl	%ebp
LCFI258:
	movl	%esp, %ebp
LCFI259:
	subl	$8, %esp
LCFI260:
	.loc 9 469 0
	movl	8(%ebp), %eax
	addl	$16, %eax
	leave
	ret
LFE2729:
	.align 1
.globl __ZN9__gnu_cxx13new_allocatorIPN2sf11ResourcePtrINS1_4FontEEEEC2Ev
	.weak_definition __ZN9__gnu_cxx13new_allocatorIPN2sf11ResourcePtrINS1_4FontEEEEC2Ev
	.private_extern __ZN9__gnu_cxx13new_allocatorIPN2sf11ResourcePtrINS1_4FontEEEEC2Ev
__ZN9__gnu_cxx13new_allocatorIPN2sf11ResourcePtrINS1_4FontEEEEC2Ev:
LFB2732:
	.loc 8 68 0
	nop
	nop
	nop
	nop
	nop
	nop
	pushl	%ebp
LCFI261:
	movl	%esp, %ebp
LCFI262:
	subl	$8, %esp
LCFI263:
	.loc 8 68 0
	leave
	ret
LFE2732:
	.align 1
.globl __ZNSaIPN2sf11ResourcePtrINS_4FontEEEEC1ISt13_Rb_tree_nodeIS3_EEERKSaIT_E
	.weak_definition __ZNSaIPN2sf11ResourcePtrINS_4FontEEEEC1ISt13_Rb_tree_nodeIS3_EEERKSaIT_E
	.private_extern __ZNSaIPN2sf11ResourcePtrINS_4FontEEEEC1ISt13_Rb_tree_nodeIS3_EEERKSaIT_E
__ZNSaIPN2sf11ResourcePtrINS_4FontEEEEC1ISt13_Rb_tree_nodeIS3_EEERKSaIT_E:
LFB2680:
	.loc 11 106 0
	nop
	nop
	nop
	nop
	nop
	nop
	pushl	%ebp
LCFI264:
	movl	%esp, %ebp
LCFI265:
	subl	$24, %esp
LCFI266:
	.loc 11 106 0
	movl	8(%ebp), %eax
	movl	%eax, (%esp)
	call	__ZN9__gnu_cxx13new_allocatorIPN2sf11ResourcePtrINS1_4FontEEEEC2Ev
	leave
	ret
LFE2680:
	.align 1
.globl __ZNKSt8_Rb_treeIPN2sf11ResourcePtrINS0_4FontEEES4_St9_IdentityIS4_ESt4lessIS4_ESaIS4_EE13get_allocatorEv
	.weak_definition __ZNKSt8_Rb_treeIPN2sf11ResourcePtrINS0_4FontEEES4_St9_IdentityIS4_ESt4lessIS4_ESaIS4_EE13get_allocatorEv
	.private_extern __ZNKSt8_Rb_treeIPN2sf11ResourcePtrINS0_4FontEEES4_St9_IdentityIS4_ESt4lessIS4_ESaIS4_EE13get_allocatorEv
__ZNKSt8_Rb_treeIPN2sf11ResourcePtrINS0_4FontEEES4_St9_IdentityIS4_ESt4lessIS4_ESaIS4_EE13get_allocatorEv:
LFB2644:
	.loc 9 363 0
	nop
	nop
	nop
	nop
	nop
	nop
	pushl	%ebp
LCFI267:
	movl	%esp, %ebp
LCFI268:
	pushl	%edi
LCFI269:
	pushl	%esi
LCFI270:
	subl	$16, %esp
LCFI271:
	movl	8(%ebp), %esi
	.loc 9 364 0
	movl	%esi, %edi
	movl	12(%ebp), %eax
	movl	%eax, (%esp)
	call	__ZNKSt8_Rb_treeIPN2sf11ResourcePtrINS0_4FontEEES4_St9_IdentityIS4_ESt4lessIS4_ESaIS4_EE21_M_get_Node_allocatorEv
	movl	%eax, 4(%esp)
	movl	%edi, (%esp)
	call	__ZNSaIPN2sf11ResourcePtrINS_4FontEEEEC1ISt13_Rb_tree_nodeIS3_EEERKSaIT_E
	movl	%esi, %eax
	addl	$16, %esp
	popl	%esi
	popl	%edi
	leave
	ret	$4
LFE2644:
	.align 1
.globl __ZNSt8_Rb_treeIPN2sf11ResourcePtrINS0_4FontEEES4_St9_IdentityIS4_ESt4lessIS4_ESaIS4_EE6_M_endEv
	.weak_definition __ZNSt8_Rb_treeIPN2sf11ResourcePtrINS0_4FontEEES4_St9_IdentityIS4_ESt4lessIS4_ESaIS4_EE6_M_endEv
	.private_extern __ZNSt8_Rb_treeIPN2sf11ResourcePtrINS0_4FontEEES4_St9_IdentityIS4_ESt4lessIS4_ESaIS4_EE6_M_endEv
__ZNSt8_Rb_treeIPN2sf11ResourcePtrINS0_4FontEEES4_St9_IdentityIS4_ESt4lessIS4_ESaIS4_EE6_M_endEv:
LFB2737:
	.loc 9 487 0
	nop
	nop
	nop
	nop
	nop
	nop
	pushl	%ebp
LCFI272:
	movl	%esp, %ebp
LCFI273:
	subl	$8, %esp
LCFI274:
	.loc 9 488 0
	movl	8(%ebp), %eax
	addl	$4, %eax
	leave
	ret
LFE2737:
	.align 1
.globl __ZNSt14unary_functionIPN2sf11ResourcePtrINS0_4FontEEES4_EC2Ev
	.weak_definition __ZNSt14unary_functionIPN2sf11ResourcePtrINS0_4FontEEES4_EC2Ev
	.private_extern __ZNSt14unary_functionIPN2sf11ResourcePtrINS0_4FontEEES4_EC2Ev
__ZNSt14unary_functionIPN2sf11ResourcePtrINS0_4FontEEES4_EC2Ev:
LFB2741:
	.loc 15 103 0
	nop
	nop
	nop
	nop
	nop
	nop
	pushl	%ebp
LCFI275:
	movl	%esp, %ebp
LCFI276:
	subl	$8, %esp
LCFI277:
	.loc 15 103 0
	leave
	ret
LFE2741:
	.align 1
.globl __ZNSt9_IdentityIPN2sf11ResourcePtrINS0_4FontEEEEC1Ev
	.weak_definition __ZNSt9_IdentityIPN2sf11ResourcePtrINS0_4FontEEEEC1Ev
	.private_extern __ZNSt9_IdentityIPN2sf11ResourcePtrINS0_4FontEEEEC1Ev
__ZNSt9_IdentityIPN2sf11ResourcePtrINS0_4FontEEEEC1Ev:
LFB2744:
	.loc 15 531 0
	nop
	nop
	nop
	nop
	nop
	nop
	pushl	%ebp
LCFI278:
	movl	%esp, %ebp
LCFI279:
	subl	$24, %esp
LCFI280:
LBB15:
	.loc 15 531 0
	movl	8(%ebp), %eax
	movl	%eax, (%esp)
	call	__ZNSt14unary_functionIPN2sf11ResourcePtrINS0_4FontEEES4_EC2Ev
LBE15:
	leave
	ret
LFE2744:
	.align 1
.globl __ZNKSt4lessIPN2sf11ResourcePtrINS0_4FontEEEEclERKS4_S7_
	.weak_definition __ZNKSt4lessIPN2sf11ResourcePtrINS0_4FontEEEEclERKS4_S7_
	.private_extern __ZNKSt4lessIPN2sf11ResourcePtrINS0_4FontEEEEclERKS4_S7_
__ZNKSt4lessIPN2sf11ResourcePtrINS0_4FontEEEEclERKS4_S7_:
LFB2745:
	.loc 15 226 0
	nop
	nop
	nop
	nop
	nop
	nop
	pushl	%ebp
LCFI281:
	movl	%esp, %ebp
LCFI282:
	subl	$8, %esp
LCFI283:
	.loc 15 227 0
	movl	12(%ebp), %eax
	movl	(%eax), %edx
	movl	16(%ebp), %eax
	movl	(%eax), %eax
	cmpl	%eax, %edx
	setb	%al
	movzbl	%al, %eax
	leave
	ret
LFE2745:
	.align 1
.globl __ZNSt17_Rb_tree_iteratorIPN2sf11ResourcePtrINS0_4FontEEEEC1EPSt13_Rb_tree_nodeIS4_E
	.weak_definition __ZNSt17_Rb_tree_iteratorIPN2sf11ResourcePtrINS0_4FontEEEEC1EPSt13_Rb_tree_nodeIS4_E
	.private_extern __ZNSt17_Rb_tree_iteratorIPN2sf11ResourcePtrINS0_4FontEEEEC1EPSt13_Rb_tree_nodeIS4_E
__ZNSt17_Rb_tree_iteratorIPN2sf11ResourcePtrINS0_4FontEEEEC1EPSt13_Rb_tree_nodeIS4_E:
LFB2748:
	.loc 9 171 0
	nop
	nop
	nop
	nop
	nop
	nop
	pushl	%ebp
LCFI284:
	movl	%esp, %ebp
LCFI285:
	subl	$8, %esp
LCFI286:
LBB16:
	.loc 9 172 0
	movl	12(%ebp), %edx
	movl	8(%ebp), %eax
	movl	%edx, (%eax)
LBE16:
	leave
	ret
LFE2748:
	.align 1
.globl __ZNSt8_Rb_treeIPN2sf11ResourcePtrINS0_4FontEEES4_St9_IdentityIS4_ESt4lessIS4_ESaIS4_EE5beginEv
	.weak_definition __ZNSt8_Rb_treeIPN2sf11ResourcePtrINS0_4FontEEES4_St9_IdentityIS4_ESt4lessIS4_ESaIS4_EE5beginEv
	.private_extern __ZNSt8_Rb_treeIPN2sf11ResourcePtrINS0_4FontEEES4_St9_IdentityIS4_ESt4lessIS4_ESaIS4_EE5beginEv
__ZNSt8_Rb_treeIPN2sf11ResourcePtrINS0_4FontEEES4_St9_IdentityIS4_ESt4lessIS4_ESaIS4_EE5beginEv:
LFB2701:
	.loc 9 605 0
	nop
	nop
	nop
	nop
	nop
	nop
	pushl	%ebp
LCFI287:
	movl	%esp, %ebp
LCFI288:
	subl	$40, %esp
LCFI289:
	.loc 9 608 0
	movl	8(%ebp), %eax
	movl	12(%eax), %eax
	movl	%eax, 4(%esp)
	leal	-12(%ebp), %eax
	movl	%eax, (%esp)
	call	__ZNSt17_Rb_tree_iteratorIPN2sf11ResourcePtrINS0_4FontEEEEC1EPSt13_Rb_tree_nodeIS4_E
	movl	-12(%ebp), %eax
	leave
	ret
LFE2701:
	.align 1
.globl __ZNSt8_Rb_treeIPN2sf11ResourcePtrINS0_4FontEEES4_St9_IdentityIS4_ESt4lessIS4_ESaIS4_EE3endEv
	.weak_definition __ZNSt8_Rb_treeIPN2sf11ResourcePtrINS0_4FontEEES4_St9_IdentityIS4_ESt4lessIS4_ESaIS4_EE3endEv
	.private_extern __ZNSt8_Rb_treeIPN2sf11ResourcePtrINS0_4FontEEES4_St9_IdentityIS4_ESt4lessIS4_ESaIS4_EE3endEv
__ZNSt8_Rb_treeIPN2sf11ResourcePtrINS0_4FontEEES4_St9_IdentityIS4_ESt4lessIS4_ESaIS4_EE3endEv:
LFB2699:
	.loc 9 619 0
	nop
	nop
	nop
	nop
	nop
	nop
	pushl	%ebp
LCFI290:
	movl	%esp, %ebp
LCFI291:
	subl	$40, %esp
LCFI292:
	.loc 9 620 0
	movl	8(%ebp), %eax
	addl	$4, %eax
	movl	%eax, 4(%esp)
	leal	-12(%ebp), %eax
	movl	%eax, (%esp)
	call	__ZNSt17_Rb_tree_iteratorIPN2sf11ResourcePtrINS0_4FontEEEEC1EPSt13_Rb_tree_nodeIS4_E
	movl	-12(%ebp), %eax
	leave
	ret
LFE2699:
	.align 1
.globl __ZNSt8_Rb_treeIPN2sf11ResourcePtrINS0_4FontEEES4_St9_IdentityIS4_ESt4lessIS4_ESaIS4_EE11_M_leftmostEv
	.weak_definition __ZNSt8_Rb_treeIPN2sf11ResourcePtrINS0_4FontEEES4_St9_IdentityIS4_ESt4lessIS4_ESaIS4_EE11_M_leftmostEv
	.private_extern __ZNSt8_Rb_treeIPN2sf11ResourcePtrINS0_4FontEEES4_St9_IdentityIS4_ESt4lessIS4_ESaIS4_EE11_M_leftmostEv
__ZNSt8_Rb_treeIPN2sf11ResourcePtrINS0_4FontEEES4_St9_IdentityIS4_ESt4lessIS4_ESaIS4_EE11_M_leftmostEv:
LFB2749:
	.loc 9 460 0
	nop
	nop
	nop
	nop
	nop
	nop
	pushl	%ebp
LCFI293:
	movl	%esp, %ebp
LCFI294:
	subl	$8, %esp
LCFI295:
	.loc 9 461 0
	movl	8(%ebp), %eax
	addl	$12, %eax
	leave
	ret
LFE2749:
	.align 1
.globl __ZNSt8_Rb_treeIPN2sf11ResourcePtrINS0_4FontEEES4_St9_IdentityIS4_ESt4lessIS4_ESaIS4_EE7_M_rootEv
	.weak_definition __ZNSt8_Rb_treeIPN2sf11ResourcePtrINS0_4FontEEES4_St9_IdentityIS4_ESt4lessIS4_ESaIS4_EE7_M_rootEv
	.private_extern __ZNSt8_Rb_treeIPN2sf11ResourcePtrINS0_4FontEEES4_St9_IdentityIS4_ESt4lessIS4_ESaIS4_EE7_M_rootEv
__ZNSt8_Rb_treeIPN2sf11ResourcePtrINS0_4FontEEES4_St9_IdentityIS4_ESt4lessIS4_ESaIS4_EE7_M_rootEv:
LFB2750:
	.loc 9 452 0
	nop
	nop
	nop
	nop
	nop
	nop
	pushl	%ebp
LCFI296:
	movl	%esp, %ebp
LCFI297:
	subl	$8, %esp
LCFI298:
	.loc 9 453 0
	movl	8(%ebp), %eax
	addl	$8, %eax
	leave
	ret
LFE2750:
	.align 1
.globl __ZNSt8_Rb_treeIPN2sf11ResourcePtrINS0_4FontEEES4_St9_IdentityIS4_ESt4lessIS4_ESaIS4_EE12_M_rightmostEv
	.weak_definition __ZNSt8_Rb_treeIPN2sf11ResourcePtrINS0_4FontEEES4_St9_IdentityIS4_ESt4lessIS4_ESaIS4_EE12_M_rightmostEv
	.private_extern __ZNSt8_Rb_treeIPN2sf11ResourcePtrINS0_4FontEEES4_St9_IdentityIS4_ESt4lessIS4_ESaIS4_EE12_M_rightmostEv
__ZNSt8_Rb_treeIPN2sf11ResourcePtrINS0_4FontEEES4_St9_IdentityIS4_ESt4lessIS4_ESaIS4_EE12_M_rightmostEv:
LFB2751:
	.loc 9 468 0
	nop
	nop
	nop
	nop
	nop
	nop
	pushl	%ebp
LCFI299:
	movl	%esp, %ebp
LCFI300:
	subl	$8, %esp
LCFI301:
	.loc 9 469 0
	movl	8(%ebp), %eax
	addl	$16, %eax
	leave
	ret
LFE2751:
.globl __ZNSt8_Rb_treeIPN2sf11ResourcePtrINS0_5ImageEEES4_St9_IdentityIS4_ESt4lessIS4_ESaIS4_EE8_S_valueEPKSt13_Rb_tree_nodeIS4_E
	.weak_definition __ZNSt8_Rb_treeIPN2sf11ResourcePtrINS0_5ImageEEES4_St9_IdentityIS4_ESt4lessIS4_ESaIS4_EE8_S_valueEPKSt13_Rb_tree_nodeIS4_E
	.private_extern __ZNSt8_Rb_treeIPN2sf11ResourcePtrINS0_5ImageEEES4_St9_IdentityIS4_ESt4lessIS4_ESaIS4_EE8_S_valueEPKSt13_Rb_tree_nodeIS4_E
__ZNSt8_Rb_treeIPN2sf11ResourcePtrINS0_5ImageEEES4_St9_IdentityIS4_ESt4lessIS4_ESaIS4_EE8_S_valueEPKSt13_Rb_tree_nodeIS4_E:
LFB2756:
	.loc 9 495 0
	nop
	nop
	nop
	nop
	nop
	nop
	pushl	%ebp
LCFI302:
	movl	%esp, %ebp
LCFI303:
	subl	$8, %esp
LCFI304:
	.loc 9 496 0
	movl	8(%ebp), %eax
	addl	$16, %eax
	leave
	ret
LFE2756:
	.align 1
.globl __ZNKSt9_IdentityIPN2sf11ResourcePtrINS0_5ImageEEEEclERKS4_
	.weak_definition __ZNKSt9_IdentityIPN2sf11ResourcePtrINS0_5ImageEEEEclERKS4_
	.private_extern __ZNKSt9_IdentityIPN2sf11ResourcePtrINS0_5ImageEEEEclERKS4_
__ZNKSt9_IdentityIPN2sf11ResourcePtrINS0_5ImageEEEEclERKS4_:
LFB2757:
	.loc 15 537 0
	nop
	nop
	nop
	nop
	nop
	nop
	pushl	%ebp
LCFI305:
	movl	%esp, %ebp
LCFI306:
	subl	$8, %esp
LCFI307:
	.loc 15 538 0
	movl	12(%ebp), %eax
	leave
	ret
LFE2757:
.globl __ZNSt8_Rb_treeIPN2sf11ResourcePtrINS0_5ImageEEES4_St9_IdentityIS4_ESt4lessIS4_ESaIS4_EE6_S_keyEPKSt13_Rb_tree_nodeIS4_E
	.weak_definition __ZNSt8_Rb_treeIPN2sf11ResourcePtrINS0_5ImageEEES4_St9_IdentityIS4_ESt4lessIS4_ESaIS4_EE6_S_keyEPKSt13_Rb_tree_nodeIS4_E
	.private_extern __ZNSt8_Rb_treeIPN2sf11ResourcePtrINS0_5ImageEEES4_St9_IdentityIS4_ESt4lessIS4_ESaIS4_EE6_S_keyEPKSt13_Rb_tree_nodeIS4_E
__ZNSt8_Rb_treeIPN2sf11ResourcePtrINS0_5ImageEEES4_St9_IdentityIS4_ESt4lessIS4_ESaIS4_EE6_S_keyEPKSt13_Rb_tree_nodeIS4_E:
LFB2713:
	.loc 9 499 0
	nop
	nop
	nop
	nop
	nop
	nop
	pushl	%ebp
LCFI308:
	movl	%esp, %ebp
LCFI309:
	pushl	%esi
LCFI310:
	subl	$36, %esp
LCFI311:
	.loc 9 500 0
	movl	8(%ebp), %eax
	movl	%eax, (%esp)
	call	__ZNSt8_Rb_treeIPN2sf11ResourcePtrINS0_5ImageEEES4_St9_IdentityIS4_ESt4lessIS4_ESaIS4_EE8_S_valueEPKSt13_Rb_tree_nodeIS4_E
	movl	%eax, %esi
	leal	-9(%ebp), %eax
	movl	%eax, (%esp)
	call	__ZNSt9_IdentityIPN2sf11ResourcePtrINS0_5ImageEEEEC1Ev
	movl	%esi, 4(%esp)
	leal	-9(%ebp), %eax
	movl	%eax, (%esp)
	call	__ZNKSt9_IdentityIPN2sf11ResourcePtrINS0_5ImageEEEEclERKS4_
	addl	$36, %esp
	popl	%esi
	leave
	ret
LFE2713:
	.align 1
.globl __ZNSt8_Rb_treeIPN2sf11ResourcePtrINS0_5ImageEEES4_St9_IdentityIS4_ESt4lessIS4_ESaIS4_EE11upper_boundERKS4_
	.weak_definition __ZNSt8_Rb_treeIPN2sf11ResourcePtrINS0_5ImageEEES4_St9_IdentityIS4_ESt4lessIS4_ESaIS4_EE11upper_boundERKS4_
__ZNSt8_Rb_treeIPN2sf11ResourcePtrINS0_5ImageEEES4_St9_IdentityIS4_ESt4lessIS4_ESaIS4_EE11upper_boundERKS4_:
LFB2666:
	.loc 9 1462 0
	nop
	nop
	nop
	nop
	nop
	nop
	pushl	%ebp
LCFI312:
	movl	%esp, %ebp
LCFI313:
	subl	$40, %esp
LCFI314:
LBB17:
	.loc 9 1464 0
	movl	8(%ebp), %eax
	movl	%eax, (%esp)
	call	__ZNSt8_Rb_treeIPN2sf11ResourcePtrINS0_5ImageEEES4_St9_IdentityIS4_ESt4lessIS4_ESaIS4_EE8_M_beginEv
	movl	%eax, -12(%ebp)
	.loc 9 1465 0
	movl	8(%ebp), %eax
	movl	%eax, (%esp)
	call	__ZNSt8_Rb_treeIPN2sf11ResourcePtrINS0_5ImageEEES4_St9_IdentityIS4_ESt4lessIS4_ESaIS4_EE6_M_endEv
	movl	%eax, -16(%ebp)
	.loc 9 1467 0
	jmp	L248
L249:
	.loc 9 1468 0
	movl	-12(%ebp), %eax
	movl	%eax, (%esp)
	call	__ZNSt8_Rb_treeIPN2sf11ResourcePtrINS0_5ImageEEES4_St9_IdentityIS4_ESt4lessIS4_ESaIS4_EE6_S_keyEPKSt13_Rb_tree_nodeIS4_E
	movl	8(%ebp), %edx
	movl	%eax, 8(%esp)
	movl	12(%ebp), %eax
	movl	%eax, 4(%esp)
	movl	%edx, (%esp)
	call	__ZNKSt4lessIPN2sf11ResourcePtrINS0_5ImageEEEEclERKS4_S7_
	testb	%al, %al
	je	L250
	.loc 9 1469 0
	movl	-12(%ebp), %eax
	movl	%eax, -16(%ebp)
	movl	-12(%ebp), %eax
	movl	%eax, (%esp)
	call	__ZNSt8_Rb_treeIPN2sf11ResourcePtrINS0_5ImageEEES4_St9_IdentityIS4_ESt4lessIS4_ESaIS4_EE7_S_leftEPSt18_Rb_tree_node_base
	movl	%eax, -12(%ebp)
	jmp	L248
L250:
	.loc 9 1471 0
	movl	-12(%ebp), %eax
	movl	%eax, (%esp)
	call	__ZNSt8_Rb_treeIPN2sf11ResourcePtrINS0_5ImageEEES4_St9_IdentityIS4_ESt4lessIS4_ESaIS4_EE8_S_rightEPSt18_Rb_tree_node_base
	movl	%eax, -12(%ebp)
L248:
	.loc 9 1467 0
	cmpl	$0, -12(%ebp)
	jne	L249
	.loc 9 1473 0
	movl	-16(%ebp), %eax
	movl	%eax, 4(%esp)
	leal	-20(%ebp), %eax
	movl	%eax, (%esp)
	call	__ZNSt17_Rb_tree_iteratorIPN2sf11ResourcePtrINS0_5ImageEEEEC1EPSt13_Rb_tree_nodeIS4_E
	movl	-20(%ebp), %eax
LBE17:
	leave
	ret
LFE2666:
	.align 1
.globl __ZNSt8_Rb_treeIPN2sf11ResourcePtrINS0_5ImageEEES4_St9_IdentityIS4_ESt4lessIS4_ESaIS4_EE11lower_boundERKS4_
	.weak_definition __ZNSt8_Rb_treeIPN2sf11ResourcePtrINS0_5ImageEEES4_St9_IdentityIS4_ESt4lessIS4_ESaIS4_EE11lower_boundERKS4_
__ZNSt8_Rb_treeIPN2sf11ResourcePtrINS0_5ImageEEES4_St9_IdentityIS4_ESt4lessIS4_ESaIS4_EE11lower_boundERKS4_:
LFB2665:
	.loc 9 1426 0
	nop
	nop
	nop
	nop
	nop
	nop
	pushl	%ebp
LCFI315:
	movl	%esp, %ebp
LCFI316:
	subl	$40, %esp
LCFI317:
LBB18:
	.loc 9 1428 0
	movl	8(%ebp), %eax
	movl	%eax, (%esp)
	call	__ZNSt8_Rb_treeIPN2sf11ResourcePtrINS0_5ImageEEES4_St9_IdentityIS4_ESt4lessIS4_ESaIS4_EE8_M_beginEv
	movl	%eax, -12(%ebp)
	.loc 9 1429 0
	movl	8(%ebp), %eax
	movl	%eax, (%esp)
	call	__ZNSt8_Rb_treeIPN2sf11ResourcePtrINS0_5ImageEEES4_St9_IdentityIS4_ESt4lessIS4_ESaIS4_EE6_M_endEv
	movl	%eax, -16(%ebp)
	.loc 9 1431 0
	jmp	L255
L256:
	.loc 9 1432 0
	movl	-12(%ebp), %eax
	movl	%eax, (%esp)
	call	__ZNSt8_Rb_treeIPN2sf11ResourcePtrINS0_5ImageEEES4_St9_IdentityIS4_ESt4lessIS4_ESaIS4_EE6_S_keyEPKSt13_Rb_tree_nodeIS4_E
	movl	%eax, %edx
	movl	8(%ebp), %ecx
	movl	12(%ebp), %eax
	movl	%eax, 8(%esp)
	movl	%edx, 4(%esp)
	movl	%ecx, (%esp)
	call	__ZNKSt4lessIPN2sf11ResourcePtrINS0_5ImageEEEEclERKS4_S7_
	xorl	$1, %eax
	testb	%al, %al
	je	L257
	.loc 9 1433 0
	movl	-12(%ebp), %eax
	movl	%eax, -16(%ebp)
	movl	-12(%ebp), %eax
	movl	%eax, (%esp)
	call	__ZNSt8_Rb_treeIPN2sf11ResourcePtrINS0_5ImageEEES4_St9_IdentityIS4_ESt4lessIS4_ESaIS4_EE7_S_leftEPSt18_Rb_tree_node_base
	movl	%eax, -12(%ebp)
	jmp	L255
L257:
	.loc 9 1435 0
	movl	-12(%ebp), %eax
	movl	%eax, (%esp)
	call	__ZNSt8_Rb_treeIPN2sf11ResourcePtrINS0_5ImageEEES4_St9_IdentityIS4_ESt4lessIS4_ESaIS4_EE8_S_rightEPSt18_Rb_tree_node_base
	movl	%eax, -12(%ebp)
L255:
	.loc 9 1431 0
	cmpl	$0, -12(%ebp)
	jne	L256
	.loc 9 1437 0
	movl	-16(%ebp), %eax
	movl	%eax, 4(%esp)
	leal	-20(%ebp), %eax
	movl	%eax, (%esp)
	call	__ZNSt17_Rb_tree_iteratorIPN2sf11ResourcePtrINS0_5ImageEEEEC1EPSt13_Rb_tree_nodeIS4_E
	movl	-20(%ebp), %eax
LBE18:
	leave
	ret
LFE2665:
	.align 1
.globl __ZNSt8_Rb_treeIPN2sf11ResourcePtrINS0_5ImageEEES4_St9_IdentityIS4_ESt4lessIS4_ESaIS4_EE11equal_rangeERKS4_
	.weak_definition __ZNSt8_Rb_treeIPN2sf11ResourcePtrINS0_5ImageEEES4_St9_IdentityIS4_ESt4lessIS4_ESaIS4_EE11equal_rangeERKS4_
	.private_extern __ZNSt8_Rb_treeIPN2sf11ResourcePtrINS0_5ImageEEES4_St9_IdentityIS4_ESt4lessIS4_ESaIS4_EE11equal_rangeERKS4_
__ZNSt8_Rb_treeIPN2sf11ResourcePtrINS0_5ImageEEES4_St9_IdentityIS4_ESt4lessIS4_ESaIS4_EE11equal_rangeERKS4_:
LFB2641:
	.loc 9 1501 0
	nop
	nop
	nop
	nop
	nop
	nop
	pushl	%ebp
LCFI318:
	movl	%esp, %ebp
LCFI319:
	subl	$40, %esp
LCFI320:
	.loc 9 1502 0
	movl	12(%ebp), %eax
	movl	%eax, 4(%esp)
	movl	8(%ebp), %eax
	movl	%eax, (%esp)
	call	__ZNSt8_Rb_treeIPN2sf11ResourcePtrINS0_5ImageEEES4_St9_IdentityIS4_ESt4lessIS4_ESaIS4_EE11upper_boundERKS4_
	movl	%eax, -16(%ebp)
	movl	12(%ebp), %eax
	movl	%eax, 4(%esp)
	movl	8(%ebp), %eax
	movl	%eax, (%esp)
	call	__ZNSt8_Rb_treeIPN2sf11ResourcePtrINS0_5ImageEEES4_St9_IdentityIS4_ESt4lessIS4_ESaIS4_EE11lower_boundERKS4_
	movl	%eax, -12(%ebp)
	leal	-16(%ebp), %eax
	movl	%eax, 8(%esp)
	leal	-12(%ebp), %eax
	movl	%eax, 4(%esp)
	leal	-24(%ebp), %eax
	movl	%eax, (%esp)
	call	__ZNSt4pairISt17_Rb_tree_iteratorIPN2sf11ResourcePtrINS1_5ImageEEEES6_EC1ERKS6_S9_
	movl	-24(%ebp), %eax
	movl	-20(%ebp), %edx
	leave
	ret
LFE2641:
	.align 1
.globl __ZN9__gnu_cxx13new_allocatorIPN2sf11ResourcePtrINS1_5ImageEEEE7destroyEPS5_
	.weak_definition __ZN9__gnu_cxx13new_allocatorIPN2sf11ResourcePtrINS1_5ImageEEEE7destroyEPS5_
	.private_extern __ZN9__gnu_cxx13new_allocatorIPN2sf11ResourcePtrINS1_5ImageEEEE7destroyEPS5_
__ZN9__gnu_cxx13new_allocatorIPN2sf11ResourcePtrINS1_5ImageEEEE7destroyEPS5_:
LFB2762:
	.loc 8 110 0
	nop
	nop
	nop
	nop
	nop
	nop
	pushl	%ebp
LCFI321:
	movl	%esp, %ebp
LCFI322:
	subl	$8, %esp
LCFI323:
	.loc 8 110 0
	leave
	ret
LFE2762:
.globl __ZNSt8_Rb_treeIPN2sf11ResourcePtrINS0_4FontEEES4_St9_IdentityIS4_ESt4lessIS4_ESaIS4_EE8_S_valueEPKSt13_Rb_tree_nodeIS4_E
	.weak_definition __ZNSt8_Rb_treeIPN2sf11ResourcePtrINS0_4FontEEES4_St9_IdentityIS4_ESt4lessIS4_ESaIS4_EE8_S_valueEPKSt13_Rb_tree_nodeIS4_E
	.private_extern __ZNSt8_Rb_treeIPN2sf11ResourcePtrINS0_4FontEEES4_St9_IdentityIS4_ESt4lessIS4_ESaIS4_EE8_S_valueEPKSt13_Rb_tree_nodeIS4_E
__ZNSt8_Rb_treeIPN2sf11ResourcePtrINS0_4FontEEES4_St9_IdentityIS4_ESt4lessIS4_ESaIS4_EE8_S_valueEPKSt13_Rb_tree_nodeIS4_E:
LFB2764:
	.loc 9 495 0
	nop
	nop
	nop
	nop
	nop
	nop
	pushl	%ebp
LCFI324:
	movl	%esp, %ebp
LCFI325:
	subl	$8, %esp
LCFI326:
	.loc 9 496 0
	movl	8(%ebp), %eax
	addl	$16, %eax
	leave
	ret
LFE2764:
	.align 1
.globl __ZNKSt9_IdentityIPN2sf11ResourcePtrINS0_4FontEEEEclERKS4_
	.weak_definition __ZNKSt9_IdentityIPN2sf11ResourcePtrINS0_4FontEEEEclERKS4_
	.private_extern __ZNKSt9_IdentityIPN2sf11ResourcePtrINS0_4FontEEEEclERKS4_
__ZNKSt9_IdentityIPN2sf11ResourcePtrINS0_4FontEEEEclERKS4_:
LFB2765:
	.loc 15 537 0
	nop
	nop
	nop
	nop
	nop
	nop
	pushl	%ebp
LCFI327:
	movl	%esp, %ebp
LCFI328:
	subl	$8, %esp
LCFI329:
	.loc 15 538 0
	movl	12(%ebp), %eax
	leave
	ret
LFE2765:
.globl __ZNSt8_Rb_treeIPN2sf11ResourcePtrINS0_4FontEEES4_St9_IdentityIS4_ESt4lessIS4_ESaIS4_EE6_S_keyEPKSt13_Rb_tree_nodeIS4_E
	.weak_definition __ZNSt8_Rb_treeIPN2sf11ResourcePtrINS0_4FontEEES4_St9_IdentityIS4_ESt4lessIS4_ESaIS4_EE6_S_keyEPKSt13_Rb_tree_nodeIS4_E
	.private_extern __ZNSt8_Rb_treeIPN2sf11ResourcePtrINS0_4FontEEES4_St9_IdentityIS4_ESt4lessIS4_ESaIS4_EE6_S_keyEPKSt13_Rb_tree_nodeIS4_E
__ZNSt8_Rb_treeIPN2sf11ResourcePtrINS0_4FontEEES4_St9_IdentityIS4_ESt4lessIS4_ESaIS4_EE6_S_keyEPKSt13_Rb_tree_nodeIS4_E:
LFB2738:
	.loc 9 499 0
	nop
	nop
	nop
	nop
	nop
	nop
	pushl	%ebp
LCFI330:
	movl	%esp, %ebp
LCFI331:
	pushl	%esi
LCFI332:
	subl	$36, %esp
LCFI333:
	.loc 9 500 0
	movl	8(%ebp), %eax
	movl	%eax, (%esp)
	call	__ZNSt8_Rb_treeIPN2sf11ResourcePtrINS0_4FontEEES4_St9_IdentityIS4_ESt4lessIS4_ESaIS4_EE8_S_valueEPKSt13_Rb_tree_nodeIS4_E
	movl	%eax, %esi
	leal	-9(%ebp), %eax
	movl	%eax, (%esp)
	call	__ZNSt9_IdentityIPN2sf11ResourcePtrINS0_4FontEEEEC1Ev
	movl	%esi, 4(%esp)
	leal	-9(%ebp), %eax
	movl	%eax, (%esp)
	call	__ZNKSt9_IdentityIPN2sf11ResourcePtrINS0_4FontEEEEclERKS4_
	addl	$36, %esp
	popl	%esi
	leave
	ret
LFE2738:
	.align 1
.globl __ZNSt8_Rb_treeIPN2sf11ResourcePtrINS0_4FontEEES4_St9_IdentityIS4_ESt4lessIS4_ESaIS4_EE11upper_boundERKS4_
	.weak_definition __ZNSt8_Rb_treeIPN2sf11ResourcePtrINS0_4FontEEES4_St9_IdentityIS4_ESt4lessIS4_ESaIS4_EE11upper_boundERKS4_
__ZNSt8_Rb_treeIPN2sf11ResourcePtrINS0_4FontEEES4_St9_IdentityIS4_ESt4lessIS4_ESaIS4_EE11upper_boundERKS4_:
LFB2695:
	.loc 9 1462 0
	nop
	nop
	nop
	nop
	nop
	nop
	pushl	%ebp
LCFI334:
	movl	%esp, %ebp
LCFI335:
	subl	$40, %esp
LCFI336:
LBB19:
	.loc 9 1464 0
	movl	8(%ebp), %eax
	movl	%eax, (%esp)
	call	__ZNSt8_Rb_treeIPN2sf11ResourcePtrINS0_4FontEEES4_St9_IdentityIS4_ESt4lessIS4_ESaIS4_EE8_M_beginEv
	movl	%eax, -12(%ebp)
	.loc 9 1465 0
	movl	8(%ebp), %eax
	movl	%eax, (%esp)
	call	__ZNSt8_Rb_treeIPN2sf11ResourcePtrINS0_4FontEEES4_St9_IdentityIS4_ESt4lessIS4_ESaIS4_EE6_M_endEv
	movl	%eax, -16(%ebp)
	.loc 9 1467 0
	jmp	L272
L273:
	.loc 9 1468 0
	movl	-12(%ebp), %eax
	movl	%eax, (%esp)
	call	__ZNSt8_Rb_treeIPN2sf11ResourcePtrINS0_4FontEEES4_St9_IdentityIS4_ESt4lessIS4_ESaIS4_EE6_S_keyEPKSt13_Rb_tree_nodeIS4_E
	movl	8(%ebp), %edx
	movl	%eax, 8(%esp)
	movl	12(%ebp), %eax
	movl	%eax, 4(%esp)
	movl	%edx, (%esp)
	call	__ZNKSt4lessIPN2sf11ResourcePtrINS0_4FontEEEEclERKS4_S7_
	testb	%al, %al
	je	L274
	.loc 9 1469 0
	movl	-12(%ebp), %eax
	movl	%eax, -16(%ebp)
	movl	-12(%ebp), %eax
	movl	%eax, (%esp)
	call	__ZNSt8_Rb_treeIPN2sf11ResourcePtrINS0_4FontEEES4_St9_IdentityIS4_ESt4lessIS4_ESaIS4_EE7_S_leftEPSt18_Rb_tree_node_base
	movl	%eax, -12(%ebp)
	jmp	L272
L274:
	.loc 9 1471 0
	movl	-12(%ebp), %eax
	movl	%eax, (%esp)
	call	__ZNSt8_Rb_treeIPN2sf11ResourcePtrINS0_4FontEEES4_St9_IdentityIS4_ESt4lessIS4_ESaIS4_EE8_S_rightEPSt18_Rb_tree_node_base
	movl	%eax, -12(%ebp)
L272:
	.loc 9 1467 0
	cmpl	$0, -12(%ebp)
	jne	L273
	.loc 9 1473 0
	movl	-16(%ebp), %eax
	movl	%eax, 4(%esp)
	leal	-20(%ebp), %eax
	movl	%eax, (%esp)
	call	__ZNSt17_Rb_tree_iteratorIPN2sf11ResourcePtrINS0_4FontEEEEC1EPSt13_Rb_tree_nodeIS4_E
	movl	-20(%ebp), %eax
LBE19:
	leave
	ret
LFE2695:
	.align 1
.globl __ZNSt8_Rb_treeIPN2sf11ResourcePtrINS0_4FontEEES4_St9_IdentityIS4_ESt4lessIS4_ESaIS4_EE11lower_boundERKS4_
	.weak_definition __ZNSt8_Rb_treeIPN2sf11ResourcePtrINS0_4FontEEES4_St9_IdentityIS4_ESt4lessIS4_ESaIS4_EE11lower_boundERKS4_
__ZNSt8_Rb_treeIPN2sf11ResourcePtrINS0_4FontEEES4_St9_IdentityIS4_ESt4lessIS4_ESaIS4_EE11lower_boundERKS4_:
LFB2694:
	.loc 9 1426 0
	nop
	nop
	nop
	nop
	nop
	nop
	pushl	%ebp
LCFI337:
	movl	%esp, %ebp
LCFI338:
	subl	$40, %esp
LCFI339:
LBB20:
	.loc 9 1428 0
	movl	8(%ebp), %eax
	movl	%eax, (%esp)
	call	__ZNSt8_Rb_treeIPN2sf11ResourcePtrINS0_4FontEEES4_St9_IdentityIS4_ESt4lessIS4_ESaIS4_EE8_M_beginEv
	movl	%eax, -12(%ebp)
	.loc 9 1429 0
	movl	8(%ebp), %eax
	movl	%eax, (%esp)
	call	__ZNSt8_Rb_treeIPN2sf11ResourcePtrINS0_4FontEEES4_St9_IdentityIS4_ESt4lessIS4_ESaIS4_EE6_M_endEv
	movl	%eax, -16(%ebp)
	.loc 9 1431 0
	jmp	L279
L280:
	.loc 9 1432 0
	movl	-12(%ebp), %eax
	movl	%eax, (%esp)
	call	__ZNSt8_Rb_treeIPN2sf11ResourcePtrINS0_4FontEEES4_St9_IdentityIS4_ESt4lessIS4_ESaIS4_EE6_S_keyEPKSt13_Rb_tree_nodeIS4_E
	movl	%eax, %edx
	movl	8(%ebp), %ecx
	movl	12(%ebp), %eax
	movl	%eax, 8(%esp)
	movl	%edx, 4(%esp)
	movl	%ecx, (%esp)
	call	__ZNKSt4lessIPN2sf11ResourcePtrINS0_4FontEEEEclERKS4_S7_
	xorl	$1, %eax
	testb	%al, %al
	je	L281
	.loc 9 1433 0
	movl	-12(%ebp), %eax
	movl	%eax, -16(%ebp)
	movl	-12(%ebp), %eax
	movl	%eax, (%esp)
	call	__ZNSt8_Rb_treeIPN2sf11ResourcePtrINS0_4FontEEES4_St9_IdentityIS4_ESt4lessIS4_ESaIS4_EE7_S_leftEPSt18_Rb_tree_node_base
	movl	%eax, -12(%ebp)
	jmp	L279
L281:
	.loc 9 1435 0
	movl	-12(%ebp), %eax
	movl	%eax, (%esp)
	call	__ZNSt8_Rb_treeIPN2sf11ResourcePtrINS0_4FontEEES4_St9_IdentityIS4_ESt4lessIS4_ESaIS4_EE8_S_rightEPSt18_Rb_tree_node_base
	movl	%eax, -12(%ebp)
L279:
	.loc 9 1431 0
	cmpl	$0, -12(%ebp)
	jne	L280
	.loc 9 1437 0
	movl	-16(%ebp), %eax
	movl	%eax, 4(%esp)
	leal	-20(%ebp), %eax
	movl	%eax, (%esp)
	call	__ZNSt17_Rb_tree_iteratorIPN2sf11ResourcePtrINS0_4FontEEEEC1EPSt13_Rb_tree_nodeIS4_E
	movl	-20(%ebp), %eax
LBE20:
	leave
	ret
LFE2694:
	.align 1
.globl __ZNSt8_Rb_treeIPN2sf11ResourcePtrINS0_4FontEEES4_St9_IdentityIS4_ESt4lessIS4_ESaIS4_EE11equal_rangeERKS4_
	.weak_definition __ZNSt8_Rb_treeIPN2sf11ResourcePtrINS0_4FontEEES4_St9_IdentityIS4_ESt4lessIS4_ESaIS4_EE11equal_rangeERKS4_
	.private_extern __ZNSt8_Rb_treeIPN2sf11ResourcePtrINS0_4FontEEES4_St9_IdentityIS4_ESt4lessIS4_ESaIS4_EE11equal_rangeERKS4_
__ZNSt8_Rb_treeIPN2sf11ResourcePtrINS0_4FontEEES4_St9_IdentityIS4_ESt4lessIS4_ESaIS4_EE11equal_rangeERKS4_:
LFB2661:
	.loc 9 1501 0
	nop
	nop
	nop
	nop
	nop
	nop
	pushl	%ebp
LCFI340:
	movl	%esp, %ebp
LCFI341:
	subl	$40, %esp
LCFI342:
	.loc 9 1502 0
	movl	12(%ebp), %eax
	movl	%eax, 4(%esp)
	movl	8(%ebp), %eax
	movl	%eax, (%esp)
	call	__ZNSt8_Rb_treeIPN2sf11ResourcePtrINS0_4FontEEES4_St9_IdentityIS4_ESt4lessIS4_ESaIS4_EE11upper_boundERKS4_
	movl	%eax, -16(%ebp)
	movl	12(%ebp), %eax
	movl	%eax, 4(%esp)
	movl	8(%ebp), %eax
	movl	%eax, (%esp)
	call	__ZNSt8_Rb_treeIPN2sf11ResourcePtrINS0_4FontEEES4_St9_IdentityIS4_ESt4lessIS4_ESaIS4_EE11lower_boundERKS4_
	movl	%eax, -12(%ebp)
	leal	-16(%ebp), %eax
	movl	%eax, 8(%esp)
	leal	-12(%ebp), %eax
	movl	%eax, 4(%esp)
	leal	-24(%ebp), %eax
	movl	%eax, (%esp)
	call	__ZNSt4pairISt17_Rb_tree_iteratorIPN2sf11ResourcePtrINS1_4FontEEEES6_EC1ERKS6_S9_
	movl	-24(%ebp), %eax
	movl	-20(%ebp), %edx
	leave
	ret
LFE2661:
	.align 1
.globl __ZNKSt8_Rb_treeIPN2sf11ResourcePtrINS0_5ImageEEES4_St9_IdentityIS4_ESt4lessIS4_ESaIS4_EE21_M_get_Node_allocatorEv
	.weak_definition __ZNKSt8_Rb_treeIPN2sf11ResourcePtrINS0_5ImageEEES4_St9_IdentityIS4_ESt4lessIS4_ESaIS4_EE21_M_get_Node_allocatorEv
	.private_extern __ZNKSt8_Rb_treeIPN2sf11ResourcePtrINS0_5ImageEEES4_St9_IdentityIS4_ESt4lessIS4_ESaIS4_EE21_M_get_Node_allocatorEv
__ZNKSt8_Rb_treeIPN2sf11ResourcePtrINS0_5ImageEEES4_St9_IdentityIS4_ESt4lessIS4_ESaIS4_EE21_M_get_Node_allocatorEv:
LFB2766:
	.loc 9 359 0
	nop
	nop
	nop
	nop
	nop
	nop
	pushl	%ebp
LCFI343:
	movl	%esp, %ebp
LCFI344:
	subl	$8, %esp
LCFI345:
	.loc 9 360 0
	movl	8(%ebp), %eax
	leave
	ret
LFE2766:
	.align 1
.globl __ZN9__gnu_cxx13new_allocatorIPN2sf11ResourcePtrINS1_5ImageEEEED2Ev
	.weak_definition __ZN9__gnu_cxx13new_allocatorIPN2sf11ResourcePtrINS1_5ImageEEEED2Ev
	.private_extern __ZN9__gnu_cxx13new_allocatorIPN2sf11ResourcePtrINS1_5ImageEEEED2Ev
__ZN9__gnu_cxx13new_allocatorIPN2sf11ResourcePtrINS1_5ImageEEEED2Ev:
LFB2774:
	.loc 8 75 0
	nop
	nop
	nop
	nop
	nop
	nop
	pushl	%ebp
LCFI346:
	movl	%esp, %ebp
LCFI347:
	subl	$8, %esp
LCFI348:
	.loc 8 75 0
	leave
	ret
LFE2774:
	.align 1
.globl __ZNSaIPN2sf11ResourcePtrINS_5ImageEEEED1Ev
	.weak_definition __ZNSaIPN2sf11ResourcePtrINS_5ImageEEEED1Ev
	.private_extern __ZNSaIPN2sf11ResourcePtrINS_5ImageEEEED1Ev
__ZNSaIPN2sf11ResourcePtrINS_5ImageEEEED1Ev:
LFB2761:
	.loc 11 108 0
	nop
	nop
	nop
	nop
	nop
	nop
	pushl	%ebp
LCFI349:
	movl	%esp, %ebp
LCFI350:
	subl	$24, %esp
LCFI351:
	.loc 11 108 0
	movl	8(%ebp), %eax
	movl	%eax, (%esp)
	call	__ZN9__gnu_cxx13new_allocatorIPN2sf11ResourcePtrINS1_5ImageEEEED2Ev
	leave
	ret
LFE2761:
	.align 1
.globl __ZN9__gnu_cxx13new_allocatorIPN2sf11ResourcePtrINS1_5ImageEEEEC2Ev
	.weak_definition __ZN9__gnu_cxx13new_allocatorIPN2sf11ResourcePtrINS1_5ImageEEEEC2Ev
	.private_extern __ZN9__gnu_cxx13new_allocatorIPN2sf11ResourcePtrINS1_5ImageEEEEC2Ev
__ZN9__gnu_cxx13new_allocatorIPN2sf11ResourcePtrINS1_5ImageEEEEC2Ev:
LFB2778:
	.loc 8 68 0
	nop
	nop
	nop
	nop
	nop
	nop
	pushl	%ebp
LCFI352:
	movl	%esp, %ebp
LCFI353:
	subl	$8, %esp
LCFI354:
	.loc 8 68 0
	leave
	ret
LFE2778:
	.align 1
.globl __ZNSaIPN2sf11ResourcePtrINS_5ImageEEEEC1ISt13_Rb_tree_nodeIS3_EEERKSaIT_E
	.weak_definition __ZNSaIPN2sf11ResourcePtrINS_5ImageEEEEC1ISt13_Rb_tree_nodeIS3_EEERKSaIT_E
	.private_extern __ZNSaIPN2sf11ResourcePtrINS_5ImageEEEEC1ISt13_Rb_tree_nodeIS3_EEERKSaIT_E
__ZNSaIPN2sf11ResourcePtrINS_5ImageEEEEC1ISt13_Rb_tree_nodeIS3_EEERKSaIT_E:
LFB2769:
	.loc 11 106 0
	nop
	nop
	nop
	nop
	nop
	nop
	pushl	%ebp
LCFI355:
	movl	%esp, %ebp
LCFI356:
	subl	$24, %esp
LCFI357:
	.loc 11 106 0
	movl	8(%ebp), %eax
	movl	%eax, (%esp)
	call	__ZN9__gnu_cxx13new_allocatorIPN2sf11ResourcePtrINS1_5ImageEEEEC2Ev
	leave
	ret
LFE2769:
	.align 1
.globl __ZNKSt8_Rb_treeIPN2sf11ResourcePtrINS0_5ImageEEES4_St9_IdentityIS4_ESt4lessIS4_ESaIS4_EE13get_allocatorEv
	.weak_definition __ZNKSt8_Rb_treeIPN2sf11ResourcePtrINS0_5ImageEEES4_St9_IdentityIS4_ESt4lessIS4_ESaIS4_EE13get_allocatorEv
	.private_extern __ZNKSt8_Rb_treeIPN2sf11ResourcePtrINS0_5ImageEEES4_St9_IdentityIS4_ESt4lessIS4_ESaIS4_EE13get_allocatorEv
__ZNKSt8_Rb_treeIPN2sf11ResourcePtrINS0_5ImageEEES4_St9_IdentityIS4_ESt4lessIS4_ESaIS4_EE13get_allocatorEv:
LFB2758:
	.loc 9 363 0
	nop
	nop
	nop
	nop
	nop
	nop
	pushl	%ebp
LCFI358:
	movl	%esp, %ebp
LCFI359:
	pushl	%edi
LCFI360:
	pushl	%esi
LCFI361:
	subl	$16, %esp
LCFI362:
	movl	8(%ebp), %esi
	.loc 9 364 0
	movl	%esi, %edi
	movl	12(%ebp), %eax
	movl	%eax, (%esp)
	call	__ZNKSt8_Rb_treeIPN2sf11ResourcePtrINS0_5ImageEEES4_St9_IdentityIS4_ESt4lessIS4_ESaIS4_EE21_M_get_Node_allocatorEv
	movl	%eax, 4(%esp)
	movl	%edi, (%esp)
	call	__ZNSaIPN2sf11ResourcePtrINS_5ImageEEEEC1ISt13_Rb_tree_nodeIS3_EEERKSaIT_E
	movl	%esi, %eax
	addl	$16, %esp
	popl	%esi
	popl	%edi
	leave
	ret	$4
LFE2758:
	.text
___tcf_1:
LFB2785:
	.loc 4 21 0
	nop
	nop
	nop
	nop
	nop
	nop
	pushl	%ebp
LCFI363:
	movl	%esp, %ebp
LCFI364:
	pushl	%ebx
LCFI365:
	subl	$20, %esp
LCFI366:
	call	L303
"L00000000003$pb":
L303:
	popl	%ebx
	.loc 4 21 0
	leal	L__ZL10BLOCK_FILE$non_lazy_ptr-"L00000000003$pb"(%ebx), %eax
	movl	(%eax), %eax
	movl	%eax, (%esp)
	call	__ZNSsD1Ev
	addl	$20, %esp
	popl	%ebx
	leave
	ret
LFE2785:
___tcf_2:
LFB2786:
	.loc 4 22 0
	nop
	nop
	nop
	nop
	nop
	nop
	pushl	%ebp
LCFI367:
	movl	%esp, %ebp
LCFI368:
	pushl	%ebx
LCFI369:
	subl	$20, %esp
LCFI370:
	call	L306
"L00000000004$pb":
L306:
	popl	%ebx
	.loc 4 22 0
	leal	L__ZL7BG_FILE$non_lazy_ptr-"L00000000004$pb"(%ebx), %eax
	movl	(%eax), %eax
	movl	%eax, (%esp)
	call	__ZNSsD1Ev
	addl	$20, %esp
	popl	%ebx
	leave
	ret
LFE2786:
___tcf_3:
LFB2787:
	.loc 4 23 0
	nop
	nop
	nop
	nop
	nop
	nop
	pushl	%ebp
LCFI371:
	movl	%esp, %ebp
LCFI372:
	pushl	%ebx
LCFI373:
	subl	$20, %esp
LCFI374:
	call	L309
"L00000000005$pb":
L309:
	popl	%ebx
	.loc 4 23 0
	leal	L__ZL14DIGITAL_POLICE$non_lazy_ptr-"L00000000005$pb"(%ebx), %eax
	movl	(%eax), %eax
	movl	%eax, (%esp)
	call	__ZNSsD1Ev
	addl	$20, %esp
	popl	%ebx
	leave
	ret
LFE2787:
___tcf_4:
LFB2788:
	.loc 5 9 0
	nop
	nop
	nop
	nop
	nop
	nop
	pushl	%ebp
LCFI375:
	movl	%esp, %ebp
LCFI376:
	pushl	%ebx
LCFI377:
	subl	$20, %esp
LCFI378:
	call	L312
"L00000000006$pb":
L312:
	popl	%ebx
	.loc 5 9 0
	leal	L_fout$non_lazy_ptr-"L00000000006$pb"(%ebx), %eax
	movl	(%eax), %eax
	movl	%eax, (%esp)
	call	__ZNSt14basic_ofstreamIcSt11char_traitsIcEED1Ev
	addl	$20, %esp
	popl	%ebx
	leave
	ret
LFE2788:
	.cstring
	.align 2
LC1:
	.ascii "/Users/Feysal/Flocks/images/block.png\0"
	.align 2
LC2:
	.ascii "/Users/Feysal/Flocks/images/interface.png\0"
	.align 2
LC3:
	.ascii "/Users/Feysal/Flocks/fonts/digital_7/digital-7(italic).ttf\0"
LC4:
	.ascii "output.txt\0"
	.section __TEXT,__StaticInit,regular,pure_instructions
__Z41__static_initialization_and_destruction_0ii:
LFB2783:
	.loc 5 400 0
	nop
	nop
	nop
	nop
	nop
	nop
	pushl	%ebp
LCFI379:
	movl	%esp, %ebp
LCFI380:
	pushl	%esi
LCFI381:
	pushl	%ebx
LCFI382:
	subl	$48, %esp
LCFI383:
	call	L326
"L00000000007$pb":
L326:
	popl	%ebx
	.loc 5 400 0
	cmpl	$1, 8(%ebp)
	jne	L322
	cmpl	$65535, 12(%ebp)
	jne	L322
	.file 16 "/usr/include/c++/4.2.1/iostream"
	.loc 16 77 0
	leal	L__ZStL8__ioinit$non_lazy_ptr-"L00000000007$pb"(%ebx), %eax
	movl	(%eax), %eax
	movl	%eax, (%esp)
LEHB0:
	call	__ZNSt8ios_base4InitC1Ev
LEHE0:
	leal	L___dso_handle$non_lazy_ptr-"L00000000007$pb"(%ebx), %eax
	movl	(%eax), %eax
	movl	%eax, 8(%esp)
	movl	$0, 4(%esp)
	leal	L___tcf_0$non_lazy_ptr-"L00000000007$pb"(%ebx), %eax
	movl	(%eax), %eax
	movl	%eax, (%esp)
	call	___cxa_atexit
	.loc 4 21 0
	leal	-9(%ebp), %eax
	movl	%eax, (%esp)
	call	__ZNSaIcEC1Ev
	leal	-9(%ebp), %eax
	movl	%eax, 8(%esp)
	leal	LC1-"L00000000007$pb"(%ebx), %eax
	movl	%eax, 4(%esp)
	leal	L__ZL10BLOCK_FILE$non_lazy_ptr-"L00000000007$pb"(%ebx), %eax
	movl	(%eax), %eax
	movl	%eax, (%esp)
LEHB1:
	call	__ZNSsC1EPKcRKSaIcE
LEHE1:
	leal	-9(%ebp), %eax
	movl	%eax, (%esp)
	call	__ZNSaIcED1Ev
	leal	L___dso_handle$non_lazy_ptr-"L00000000007$pb"(%ebx), %eax
	movl	(%eax), %eax
	movl	%eax, 8(%esp)
	movl	$0, 4(%esp)
	leal	L___tcf_1$non_lazy_ptr-"L00000000007$pb"(%ebx), %eax
	movl	(%eax), %eax
	movl	%eax, (%esp)
	call	___cxa_atexit
	.loc 4 22 0
	leal	-10(%ebp), %eax
	movl	%eax, (%esp)
	call	__ZNSaIcEC1Ev
	leal	-10(%ebp), %eax
	movl	%eax, 8(%esp)
	leal	LC2-"L00000000007$pb"(%ebx), %eax
	movl	%eax, 4(%esp)
	leal	L__ZL7BG_FILE$non_lazy_ptr-"L00000000007$pb"(%ebx), %eax
	movl	(%eax), %eax
	movl	%eax, (%esp)
LEHB2:
	call	__ZNSsC1EPKcRKSaIcE
LEHE2:
	jmp	L317
L325:
	movl	%eax, -28(%ebp)
L318:
	movl	-28(%ebp), %esi
	.loc 4 21 0
	leal	-9(%ebp), %eax
	movl	%eax, (%esp)
	call	__ZNSaIcED1Ev
	movl	%esi, -28(%ebp)
	movl	-28(%ebp), %eax
	movl	%eax, (%esp)
LEHB3:
	call	__Unwind_Resume
LEHE3:
L317:
	.loc 4 22 0
	leal	-10(%ebp), %eax
	movl	%eax, (%esp)
	call	__ZNSaIcED1Ev
	leal	L___dso_handle$non_lazy_ptr-"L00000000007$pb"(%ebx), %eax
	movl	(%eax), %eax
	movl	%eax, 8(%esp)
	movl	$0, 4(%esp)
	leal	L___tcf_2$non_lazy_ptr-"L00000000007$pb"(%ebx), %eax
	movl	(%eax), %eax
	movl	%eax, (%esp)
	call	___cxa_atexit
	.loc 4 23 0
	leal	-11(%ebp), %eax
	movl	%eax, (%esp)
	call	__ZNSaIcEC1Ev
	leal	-11(%ebp), %eax
	movl	%eax, 8(%esp)
	leal	LC3-"L00000000007$pb"(%ebx), %eax
	movl	%eax, 4(%esp)
	leal	L__ZL14DIGITAL_POLICE$non_lazy_ptr-"L00000000007$pb"(%ebx), %eax
	movl	(%eax), %eax
	movl	%eax, (%esp)
LEHB4:
	call	__ZNSsC1EPKcRKSaIcE
LEHE4:
	jmp	L319
L324:
	movl	%eax, -28(%ebp)
L320:
	movl	-28(%ebp), %esi
	.loc 4 22 0
	leal	-10(%ebp), %eax
	movl	%eax, (%esp)
	call	__ZNSaIcED1Ev
	movl	%esi, -28(%ebp)
	movl	-28(%ebp), %eax
	movl	%eax, (%esp)
LEHB5:
	call	__Unwind_Resume
L319:
	.loc 4 23 0
	leal	-11(%ebp), %eax
	movl	%eax, (%esp)
	call	__ZNSaIcED1Ev
	leal	L___dso_handle$non_lazy_ptr-"L00000000007$pb"(%ebx), %eax
	movl	(%eax), %eax
	movl	%eax, 8(%esp)
	movl	$0, 4(%esp)
	leal	L___tcf_3$non_lazy_ptr-"L00000000007$pb"(%ebx), %eax
	movl	(%eax), %eax
	movl	%eax, (%esp)
	call	___cxa_atexit
	.loc 5 9 0
	movl	$32, 4(%esp)
	movl	$16, (%esp)
	call	__ZStorSt13_Ios_OpenmodeS_
	movl	%eax, 8(%esp)
	leal	LC4-"L00000000007$pb"(%ebx), %eax
	movl	%eax, 4(%esp)
	leal	L_fout$non_lazy_ptr-"L00000000007$pb"(%ebx), %eax
	movl	(%eax), %eax
	movl	%eax, (%esp)
	call	__ZNSt14basic_ofstreamIcSt11char_traitsIcEEC1EPKcSt13_Ios_Openmode
	leal	L___dso_handle$non_lazy_ptr-"L00000000007$pb"(%ebx), %eax
	movl	(%eax), %eax
	movl	%eax, 8(%esp)
	movl	$0, 4(%esp)
	leal	L___tcf_4$non_lazy_ptr-"L00000000007$pb"(%ebx), %eax
	movl	(%eax), %eax
	movl	%eax, (%esp)
	call	___cxa_atexit
	jmp	L322
L323:
	movl	%eax, -28(%ebp)
L321:
	movl	-28(%ebp), %esi
	.loc 4 23 0
	leal	-11(%ebp), %eax
	movl	%eax, (%esp)
	call	__ZNSaIcED1Ev
	movl	%esi, -28(%ebp)
	movl	-28(%ebp), %eax
	movl	%eax, (%esp)
	call	__Unwind_Resume
LEHE5:
L322:
	.loc 5 400 0
	addl	$48, %esp
	popl	%ebx
	popl	%esi
	leave
	ret
LFE2783:
	.section __TEXT,__gcc_except_tab
GCC_except_table0:
LLSDA2783:
	.byte	0xff
	.byte	0xff
	.byte	0x3
	.byte	0x4e
	.set L$set$0,LEHB0-LFB2783
	.long L$set$0
	.set L$set$1,LEHE0-LEHB0
	.long L$set$1
	.long	0x0
	.byte	0x0
	.set L$set$2,LEHB1-LFB2783
	.long L$set$2
	.set L$set$3,LEHE1-LEHB1
	.long L$set$3
	.set L$set$4,L325-LFB2783
	.long L$set$4
	.byte	0x0
	.set L$set$5,LEHB2-LFB2783
	.long L$set$5
	.set L$set$6,LEHE2-LEHB2
	.long L$set$6
	.set L$set$7,L324-LFB2783
	.long L$set$7
	.byte	0x0
	.set L$set$8,LEHB3-LFB2783
	.long L$set$8
	.set L$set$9,LEHE3-LEHB3
	.long L$set$9
	.long	0x0
	.byte	0x0
	.set L$set$10,LEHB4-LFB2783
	.long L$set$10
	.set L$set$11,LEHE4-LEHB4
	.long L$set$11
	.set L$set$12,L323-LFB2783
	.long L$set$12
	.byte	0x0
	.set L$set$13,LEHB5-LFB2783
	.long L$set$13
	.set L$set$14,LEHE5-LEHB5
	.long L$set$14
	.long	0x0
	.byte	0x0
	.section __TEXT,__StaticInit,regular,pure_instructions
__GLOBAL__I_fout:
LFB2793:
	.loc 5 401 0
	nop
	nop
	nop
	nop
	nop
	nop
	pushl	%ebp
LCFI384:
	movl	%esp, %ebp
LCFI385:
	subl	$24, %esp
LCFI386:
	.loc 5 401 0
	movl	$65535, 4(%esp)
	movl	$1, (%esp)
	call	__Z41__static_initialization_and_destruction_0ii
	leave
	ret
LFE2793:
	.section __TEXT,__textcoal_nt,coalesced,pure_instructions
	.align 1
.globl __ZN9__gnu_cxx13new_allocatorISt13_Rb_tree_nodeIPN2sf11ResourcePtrINS2_5ImageEEEEE10deallocateEPS7_m
	.weak_definition __ZN9__gnu_cxx13new_allocatorISt13_Rb_tree_nodeIPN2sf11ResourcePtrINS2_5ImageEEEEE10deallocateEPS7_m
	.private_extern __ZN9__gnu_cxx13new_allocatorISt13_Rb_tree_nodeIPN2sf11ResourcePtrINS2_5ImageEEEEE10deallocateEPS7_m
__ZN9__gnu_cxx13new_allocatorISt13_Rb_tree_nodeIPN2sf11ResourcePtrINS2_5ImageEEEEE10deallocateEPS7_m:
LFB2776:
	.loc 8 96 0
	nop
	nop
	nop
	nop
	nop
	nop
	pushl	%ebp
LCFI387:
	movl	%esp, %ebp
LCFI388:
	subl	$24, %esp
LCFI389:
	.loc 8 97 0
	movl	12(%ebp), %eax
	movl	%eax, (%esp)
	call	__ZdlPv
	leave
	ret
LFE2776:
	.align 1
.globl __ZNSt8_Rb_treeIPN2sf11ResourcePtrINS0_5ImageEEES4_St9_IdentityIS4_ESt4lessIS4_ESaIS4_EE11_M_put_nodeEPSt13_Rb_tree_nodeIS4_E
	.weak_definition __ZNSt8_Rb_treeIPN2sf11ResourcePtrINS0_5ImageEEES4_St9_IdentityIS4_ESt4lessIS4_ESaIS4_EE11_M_put_nodeEPSt13_Rb_tree_nodeIS4_E
	.private_extern __ZNSt8_Rb_treeIPN2sf11ResourcePtrINS0_5ImageEEES4_St9_IdentityIS4_ESt4lessIS4_ESaIS4_EE11_M_put_nodeEPSt13_Rb_tree_nodeIS4_E
__ZNSt8_Rb_treeIPN2sf11ResourcePtrINS0_5ImageEEES4_St9_IdentityIS4_ESt4lessIS4_ESaIS4_EE11_M_put_nodeEPSt13_Rb_tree_nodeIS4_E:
LFB2763:
	.loc 9 372 0
	nop
	nop
	nop
	nop
	nop
	nop
	pushl	%ebp
LCFI390:
	movl	%esp, %ebp
LCFI391:
	subl	$24, %esp
LCFI392:
	.loc 9 373 0
	movl	8(%ebp), %eax
	movl	%eax, %edx
	movl	$1, 8(%esp)
	movl	12(%ebp), %eax
	movl	%eax, 4(%esp)
	movl	%edx, (%esp)
	call	__ZN9__gnu_cxx13new_allocatorISt13_Rb_tree_nodeIPN2sf11ResourcePtrINS2_5ImageEEEEE10deallocateEPS7_m
	leave
	ret
LFE2763:
	.align 1
.globl __ZNSt8_Rb_treeIPN2sf11ResourcePtrINS0_5ImageEEES4_St9_IdentityIS4_ESt4lessIS4_ESaIS4_EE15_M_destroy_nodeEPSt13_Rb_tree_nodeIS4_E
	.weak_definition __ZNSt8_Rb_treeIPN2sf11ResourcePtrINS0_5ImageEEES4_St9_IdentityIS4_ESt4lessIS4_ESaIS4_EE15_M_destroy_nodeEPSt13_Rb_tree_nodeIS4_E
	.private_extern __ZNSt8_Rb_treeIPN2sf11ResourcePtrINS0_5ImageEEES4_St9_IdentityIS4_ESt4lessIS4_ESaIS4_EE15_M_destroy_nodeEPSt13_Rb_tree_nodeIS4_E
__ZNSt8_Rb_treeIPN2sf11ResourcePtrINS0_5ImageEEES4_St9_IdentityIS4_ESt4lessIS4_ESaIS4_EE15_M_destroy_nodeEPSt13_Rb_tree_nodeIS4_E:
LFB2730:
	.loc 9 400 0
	nop
	nop
	nop
	nop
	nop
	nop
	pushl	%ebp
LCFI393:
	movl	%esp, %ebp
LCFI394:
	pushl	%esi
LCFI395:
	subl	$36, %esp
LCFI396:
	.loc 9 402 0
	movl	12(%ebp), %esi
	addl	$16, %esi
	leal	-9(%ebp), %edx
	movl	8(%ebp), %eax
	movl	%eax, 4(%esp)
	movl	%edx, (%esp)
	call	__ZNKSt8_Rb_treeIPN2sf11ResourcePtrINS0_5ImageEEES4_St9_IdentityIS4_ESt4lessIS4_ESaIS4_EE13get_allocatorEv
	subl	$4, %esp
	leal	-9(%ebp), %eax
	movl	%esi, 4(%esp)
	movl	%eax, (%esp)
	call	__ZN9__gnu_cxx13new_allocatorIPN2sf11ResourcePtrINS1_5ImageEEEE7destroyEPS5_
	leal	-9(%ebp), %eax
	movl	%eax, (%esp)
	call	__ZNSaIPN2sf11ResourcePtrINS_5ImageEEEED1Ev
	.loc 9 403 0
	movl	12(%ebp), %eax
	movl	%eax, 4(%esp)
	movl	8(%ebp), %eax
	movl	%eax, (%esp)
	call	__ZNSt8_Rb_treeIPN2sf11ResourcePtrINS0_5ImageEEES4_St9_IdentityIS4_ESt4lessIS4_ESaIS4_EE11_M_put_nodeEPSt13_Rb_tree_nodeIS4_E
	movl	-4(%ebp), %esi
	leave
	ret
LFE2730:
	.align 1
.globl __ZNSt8_Rb_treeIPN2sf11ResourcePtrINS0_5ImageEEES4_St9_IdentityIS4_ESt4lessIS4_ESaIS4_EE8_M_eraseEPSt13_Rb_tree_nodeIS4_E
	.weak_definition __ZNSt8_Rb_treeIPN2sf11ResourcePtrINS0_5ImageEEES4_St9_IdentityIS4_ESt4lessIS4_ESaIS4_EE8_M_eraseEPSt13_Rb_tree_nodeIS4_E
__ZNSt8_Rb_treeIPN2sf11ResourcePtrINS0_5ImageEEES4_St9_IdentityIS4_ESt4lessIS4_ESaIS4_EE8_M_eraseEPSt13_Rb_tree_nodeIS4_E:
LFB2726:
	.loc 9 1320 0
	nop
	nop
	nop
	nop
	nop
	nop
	pushl	%ebp
LCFI397:
	movl	%esp, %ebp
LCFI398:
	subl	$40, %esp
LCFI399:
LBB21:
LBB22:
	.loc 9 1323 0
	jmp	L336
L337:
	.loc 9 1325 0
	movl	12(%ebp), %eax
	movl	%eax, (%esp)
	call	__ZNSt8_Rb_treeIPN2sf11ResourcePtrINS0_5ImageEEES4_St9_IdentityIS4_ESt4lessIS4_ESaIS4_EE8_S_rightEPSt18_Rb_tree_node_base
	movl	%eax, 4(%esp)
	movl	8(%ebp), %eax
	movl	%eax, (%esp)
	call	__ZNSt8_Rb_treeIPN2sf11ResourcePtrINS0_5ImageEEES4_St9_IdentityIS4_ESt4lessIS4_ESaIS4_EE8_M_eraseEPSt13_Rb_tree_nodeIS4_E
	.loc 9 1326 0
	movl	12(%ebp), %eax
	movl	%eax, (%esp)
	call	__ZNSt8_Rb_treeIPN2sf11ResourcePtrINS0_5ImageEEES4_St9_IdentityIS4_ESt4lessIS4_ESaIS4_EE7_S_leftEPSt18_Rb_tree_node_base
	movl	%eax, -12(%ebp)
	.loc 9 1327 0
	movl	12(%ebp), %eax
	movl	%eax, 4(%esp)
	movl	8(%ebp), %eax
	movl	%eax, (%esp)
	call	__ZNSt8_Rb_treeIPN2sf11ResourcePtrINS0_5ImageEEES4_St9_IdentityIS4_ESt4lessIS4_ESaIS4_EE15_M_destroy_nodeEPSt13_Rb_tree_nodeIS4_E
	.loc 9 1328 0
	movl	-12(%ebp), %eax
	movl	%eax, 12(%ebp)
L336:
LBE22:
	.loc 9 1323 0
	cmpl	$0, 12(%ebp)
	jne	L337
LBE21:
	.loc 9 1328 0
	leave
	ret
LFE2726:
	.align 1
.globl __ZNSt8_Rb_treeIPN2sf11ResourcePtrINS0_5ImageEEES4_St9_IdentityIS4_ESt4lessIS4_ESaIS4_EE5clearEv
	.weak_definition __ZNSt8_Rb_treeIPN2sf11ResourcePtrINS0_5ImageEEES4_St9_IdentityIS4_ESt4lessIS4_ESaIS4_EE5clearEv
	.private_extern __ZNSt8_Rb_treeIPN2sf11ResourcePtrINS0_5ImageEEES4_St9_IdentityIS4_ESt4lessIS4_ESaIS4_EE5clearEv
__ZNSt8_Rb_treeIPN2sf11ResourcePtrINS0_5ImageEEES4_St9_IdentityIS4_ESt4lessIS4_ESaIS4_EE5clearEv:
LFB2673:
	.loc 9 711 0
	nop
	nop
	nop
	nop
	nop
	nop
	pushl	%ebp
LCFI400:
	movl	%esp, %ebp
LCFI401:
	pushl	%esi
LCFI402:
	subl	$20, %esp
LCFI403:
	.loc 9 713 0
	movl	8(%ebp), %eax
	movl	%eax, (%esp)
	call	__ZNSt8_Rb_treeIPN2sf11ResourcePtrINS0_5ImageEEES4_St9_IdentityIS4_ESt4lessIS4_ESaIS4_EE8_M_beginEv
	movl	%eax, 4(%esp)
	movl	8(%ebp), %eax
	movl	%eax, (%esp)
	call	__ZNSt8_Rb_treeIPN2sf11ResourcePtrINS0_5ImageEEES4_St9_IdentityIS4_ESt4lessIS4_ESaIS4_EE8_M_eraseEPSt13_Rb_tree_nodeIS4_E
	.loc 9 714 0
	movl	8(%ebp), %eax
	movl	%eax, (%esp)
	call	__ZNSt8_Rb_treeIPN2sf11ResourcePtrINS0_5ImageEEES4_St9_IdentityIS4_ESt4lessIS4_ESaIS4_EE11_M_leftmostEv
	movl	%eax, %esi
	movl	8(%ebp), %eax
	movl	%eax, (%esp)
	call	__ZNSt8_Rb_treeIPN2sf11ResourcePtrINS0_5ImageEEES4_St9_IdentityIS4_ESt4lessIS4_ESaIS4_EE6_M_endEv
	movl	%eax, (%esi)
	.loc 9 715 0
	movl	8(%ebp), %eax
	movl	%eax, (%esp)
	call	__ZNSt8_Rb_treeIPN2sf11ResourcePtrINS0_5ImageEEES4_St9_IdentityIS4_ESt4lessIS4_ESaIS4_EE7_M_rootEv
	movl	$0, (%eax)
	.loc 9 716 0
	movl	8(%ebp), %eax
	movl	%eax, (%esp)
	call	__ZNSt8_Rb_treeIPN2sf11ResourcePtrINS0_5ImageEEES4_St9_IdentityIS4_ESt4lessIS4_ESaIS4_EE12_M_rightmostEv
	movl	%eax, %esi
	movl	8(%ebp), %eax
	movl	%eax, (%esp)
	call	__ZNSt8_Rb_treeIPN2sf11ResourcePtrINS0_5ImageEEES4_St9_IdentityIS4_ESt4lessIS4_ESaIS4_EE6_M_endEv
	movl	%eax, (%esi)
	.loc 9 717 0
	movl	8(%ebp), %eax
	movl	$0, 20(%eax)
	addl	$20, %esp
	popl	%esi
	leave
	ret
LFE2673:
	.align 1
.globl __ZN9__gnu_cxx13new_allocatorIcE10deallocateEPcm
	.weak_definition __ZN9__gnu_cxx13new_allocatorIcE10deallocateEPcm
	.private_extern __ZN9__gnu_cxx13new_allocatorIcE10deallocateEPcm
__ZN9__gnu_cxx13new_allocatorIcE10deallocateEPcm:
LFB2626:
	.loc 8 96 0
	nop
	nop
	nop
	nop
	nop
	nop
	pushl	%ebp
LCFI404:
	movl	%esp, %ebp
LCFI405:
	subl	$24, %esp
LCFI406:
	.loc 8 97 0
	movl	12(%ebp), %eax
	movl	%eax, (%esp)
	call	__ZdlPv
	leave
	ret
LFE2626:
	.align 1
.globl __ZNSbIjSt11char_traitsIjESaIjEE4_Rep10_M_destroyERKS1_
	.weak_definition __ZNSbIjSt11char_traitsIjESaIjEE4_Rep10_M_destroyERKS1_
__ZNSbIjSt11char_traitsIjESaIjEE4_Rep10_M_destroyERKS1_:
LFB2595:
	.file 17 "/usr/include/c++/4.2.1/bits/basic_string.tcc"
	.loc 17 427 0
	nop
	nop
	nop
	nop
	nop
	nop
	pushl	%ebp
LCFI407:
	movl	%esp, %ebp
LCFI408:
	pushl	%esi
LCFI409:
	subl	$36, %esp
LCFI410:
LBB23:
	.loc 17 430 0
	movl	8(%ebp), %eax
	movl	4(%eax), %eax
	incl	%eax
	sall	$2, %eax
	addl	$12, %eax
	movl	%eax, -16(%ebp)
	.loc 17 431 0
	movl	8(%ebp), %esi
	movl	12(%ebp), %eax
	movl	%eax, 4(%esp)
	leal	-9(%ebp), %eax
	movl	%eax, (%esp)
	call	__ZNSaIcEC1IjEERKSaIT_E
	leal	-9(%ebp), %edx
	movl	-16(%ebp), %eax
	movl	%eax, 8(%esp)
	movl	%esi, 4(%esp)
	movl	%edx, (%esp)
	call	__ZN9__gnu_cxx13new_allocatorIcE10deallocateEPcm
	leal	-9(%ebp), %eax
	movl	%eax, (%esp)
	call	__ZNSaIcED1Ev
LBE23:
	addl	$36, %esp
	popl	%esi
	leave
	ret
LFE2595:
	.align 1
.globl __ZN9__gnu_cxx13new_allocatorISt13_Rb_tree_nodeIPN2sf11ResourcePtrINS2_4FontEEEEE10deallocateEPS7_m
	.weak_definition __ZN9__gnu_cxx13new_allocatorISt13_Rb_tree_nodeIPN2sf11ResourcePtrINS2_4FontEEEEE10deallocateEPS7_m
	.private_extern __ZN9__gnu_cxx13new_allocatorISt13_Rb_tree_nodeIPN2sf11ResourcePtrINS2_4FontEEEEE10deallocateEPS7_m
__ZN9__gnu_cxx13new_allocatorISt13_Rb_tree_nodeIPN2sf11ResourcePtrINS2_4FontEEEEE10deallocateEPS7_m:
LFB2687:
	.loc 8 96 0
	nop
	nop
	nop
	nop
	nop
	nop
	pushl	%ebp
LCFI411:
	movl	%esp, %ebp
LCFI412:
	subl	$24, %esp
LCFI413:
	.loc 8 97 0
	movl	12(%ebp), %eax
	movl	%eax, (%esp)
	call	__ZdlPv
	leave
	ret
LFE2687:
	.align 1
.globl __ZNSt8_Rb_treeIPN2sf11ResourcePtrINS0_4FontEEES4_St9_IdentityIS4_ESt4lessIS4_ESaIS4_EE11_M_put_nodeEPSt13_Rb_tree_nodeIS4_E
	.weak_definition __ZNSt8_Rb_treeIPN2sf11ResourcePtrINS0_4FontEEES4_St9_IdentityIS4_ESt4lessIS4_ESaIS4_EE11_M_put_nodeEPSt13_Rb_tree_nodeIS4_E
	.private_extern __ZNSt8_Rb_treeIPN2sf11ResourcePtrINS0_4FontEEES4_St9_IdentityIS4_ESt4lessIS4_ESaIS4_EE11_M_put_nodeEPSt13_Rb_tree_nodeIS4_E
__ZNSt8_Rb_treeIPN2sf11ResourcePtrINS0_4FontEEES4_St9_IdentityIS4_ESt4lessIS4_ESaIS4_EE11_M_put_nodeEPSt13_Rb_tree_nodeIS4_E:
LFB2649:
	.loc 9 372 0
	nop
	nop
	nop
	nop
	nop
	nop
	pushl	%ebp
LCFI414:
	movl	%esp, %ebp
LCFI415:
	subl	$24, %esp
LCFI416:
	.loc 9 373 0
	movl	8(%ebp), %eax
	movl	%eax, %edx
	movl	$1, 8(%esp)
	movl	12(%ebp), %eax
	movl	%eax, 4(%esp)
	movl	%edx, (%esp)
	call	__ZN9__gnu_cxx13new_allocatorISt13_Rb_tree_nodeIPN2sf11ResourcePtrINS2_4FontEEEEE10deallocateEPS7_m
	leave
	ret
LFE2649:
	.align 1
.globl __ZNSt8_Rb_treeIPN2sf11ResourcePtrINS0_4FontEEES4_St9_IdentityIS4_ESt4lessIS4_ESaIS4_EE15_M_destroy_nodeEPSt13_Rb_tree_nodeIS4_E
	.weak_definition __ZNSt8_Rb_treeIPN2sf11ResourcePtrINS0_4FontEEES4_St9_IdentityIS4_ESt4lessIS4_ESaIS4_EE15_M_destroy_nodeEPSt13_Rb_tree_nodeIS4_E
	.private_extern __ZNSt8_Rb_treeIPN2sf11ResourcePtrINS0_4FontEEES4_St9_IdentityIS4_ESt4lessIS4_ESaIS4_EE15_M_destroy_nodeEPSt13_Rb_tree_nodeIS4_E
__ZNSt8_Rb_treeIPN2sf11ResourcePtrINS0_4FontEEES4_St9_IdentityIS4_ESt4lessIS4_ESaIS4_EE15_M_destroy_nodeEPSt13_Rb_tree_nodeIS4_E:
LFB2610:
	.loc 9 400 0
	nop
	nop
	nop
	nop
	nop
	nop
	pushl	%ebp
LCFI417:
	movl	%esp, %ebp
LCFI418:
	pushl	%esi
LCFI419:
	subl	$36, %esp
LCFI420:
	.loc 9 402 0
	movl	12(%ebp), %esi
	addl	$16, %esi
	leal	-9(%ebp), %edx
	movl	8(%ebp), %eax
	movl	%eax, 4(%esp)
	movl	%edx, (%esp)
	call	__ZNKSt8_Rb_treeIPN2sf11ResourcePtrINS0_4FontEEES4_St9_IdentityIS4_ESt4lessIS4_ESaIS4_EE13get_allocatorEv
	subl	$4, %esp
	leal	-9(%ebp), %eax
	movl	%esi, 4(%esp)
	movl	%eax, (%esp)
	call	__ZN9__gnu_cxx13new_allocatorIPN2sf11ResourcePtrINS1_4FontEEEE7destroyEPS5_
	leal	-9(%ebp), %eax
	movl	%eax, (%esp)
	call	__ZNSaIPN2sf11ResourcePtrINS_4FontEEEED1Ev
	.loc 9 403 0
	movl	12(%ebp), %eax
	movl	%eax, 4(%esp)
	movl	8(%ebp), %eax
	movl	%eax, (%esp)
	call	__ZNSt8_Rb_treeIPN2sf11ResourcePtrINS0_4FontEEES4_St9_IdentityIS4_ESt4lessIS4_ESaIS4_EE11_M_put_nodeEPSt13_Rb_tree_nodeIS4_E
	movl	-4(%ebp), %esi
	leave
	ret
LFE2610:
	.align 1
.globl __ZNSt8_Rb_treeIPN2sf11ResourcePtrINS0_4FontEEES4_St9_IdentityIS4_ESt4lessIS4_ESaIS4_EE8_M_eraseEPSt13_Rb_tree_nodeIS4_E
	.weak_definition __ZNSt8_Rb_treeIPN2sf11ResourcePtrINS0_4FontEEES4_St9_IdentityIS4_ESt4lessIS4_ESaIS4_EE8_M_eraseEPSt13_Rb_tree_nodeIS4_E
__ZNSt8_Rb_treeIPN2sf11ResourcePtrINS0_4FontEEES4_St9_IdentityIS4_ESt4lessIS4_ESaIS4_EE8_M_eraseEPSt13_Rb_tree_nodeIS4_E:
LFB2577:
	.loc 9 1320 0
	nop
	nop
	nop
	nop
	nop
	nop
	pushl	%ebp
LCFI421:
	movl	%esp, %ebp
LCFI422:
	subl	$40, %esp
LCFI423:
LBB24:
LBB25:
	.loc 9 1323 0
	jmp	L353
L354:
	.loc 9 1325 0
	movl	12(%ebp), %eax
	movl	%eax, (%esp)
	call	__ZNSt8_Rb_treeIPN2sf11ResourcePtrINS0_4FontEEES4_St9_IdentityIS4_ESt4lessIS4_ESaIS4_EE8_S_rightEPSt18_Rb_tree_node_base
	movl	%eax, 4(%esp)
	movl	8(%ebp), %eax
	movl	%eax, (%esp)
	call	__ZNSt8_Rb_treeIPN2sf11ResourcePtrINS0_4FontEEES4_St9_IdentityIS4_ESt4lessIS4_ESaIS4_EE8_M_eraseEPSt13_Rb_tree_nodeIS4_E
	.loc 9 1326 0
	movl	12(%ebp), %eax
	movl	%eax, (%esp)
	call	__ZNSt8_Rb_treeIPN2sf11ResourcePtrINS0_4FontEEES4_St9_IdentityIS4_ESt4lessIS4_ESaIS4_EE7_S_leftEPSt18_Rb_tree_node_base
	movl	%eax, -12(%ebp)
	.loc 9 1327 0
	movl	12(%ebp), %eax
	movl	%eax, 4(%esp)
	movl	8(%ebp), %eax
	movl	%eax, (%esp)
	call	__ZNSt8_Rb_treeIPN2sf11ResourcePtrINS0_4FontEEES4_St9_IdentityIS4_ESt4lessIS4_ESaIS4_EE15_M_destroy_nodeEPSt13_Rb_tree_nodeIS4_E
	.loc 9 1328 0
	movl	-12(%ebp), %eax
	movl	%eax, 12(%ebp)
L353:
LBE25:
	.loc 9 1323 0
	cmpl	$0, 12(%ebp)
	jne	L354
LBE24:
	.loc 9 1328 0
	leave
	ret
LFE2577:
	.align 1
.globl __ZNSt8_Rb_treeIPN2sf11ResourcePtrINS0_4FontEEES4_St9_IdentityIS4_ESt4lessIS4_ESaIS4_EE5clearEv
	.weak_definition __ZNSt8_Rb_treeIPN2sf11ResourcePtrINS0_4FontEEES4_St9_IdentityIS4_ESt4lessIS4_ESaIS4_EE5clearEv
	.private_extern __ZNSt8_Rb_treeIPN2sf11ResourcePtrINS0_4FontEEES4_St9_IdentityIS4_ESt4lessIS4_ESaIS4_EE5clearEv
__ZNSt8_Rb_treeIPN2sf11ResourcePtrINS0_4FontEEES4_St9_IdentityIS4_ESt4lessIS4_ESaIS4_EE5clearEv:
LFB2702:
	.loc 9 711 0
	nop
	nop
	nop
	nop
	nop
	nop
	pushl	%ebp
LCFI424:
	movl	%esp, %ebp
LCFI425:
	pushl	%esi
LCFI426:
	subl	$20, %esp
LCFI427:
	.loc 9 713 0
	movl	8(%ebp), %eax
	movl	%eax, (%esp)
	call	__ZNSt8_Rb_treeIPN2sf11ResourcePtrINS0_4FontEEES4_St9_IdentityIS4_ESt4lessIS4_ESaIS4_EE8_M_beginEv
	movl	%eax, 4(%esp)
	movl	8(%ebp), %eax
	movl	%eax, (%esp)
	call	__ZNSt8_Rb_treeIPN2sf11ResourcePtrINS0_4FontEEES4_St9_IdentityIS4_ESt4lessIS4_ESaIS4_EE8_M_eraseEPSt13_Rb_tree_nodeIS4_E
	.loc 9 714 0
	movl	8(%ebp), %eax
	movl	%eax, (%esp)
	call	__ZNSt8_Rb_treeIPN2sf11ResourcePtrINS0_4FontEEES4_St9_IdentityIS4_ESt4lessIS4_ESaIS4_EE11_M_leftmostEv
	movl	%eax, %esi
	movl	8(%ebp), %eax
	movl	%eax, (%esp)
	call	__ZNSt8_Rb_treeIPN2sf11ResourcePtrINS0_4FontEEES4_St9_IdentityIS4_ESt4lessIS4_ESaIS4_EE6_M_endEv
	movl	%eax, (%esi)
	.loc 9 715 0
	movl	8(%ebp), %eax
	movl	%eax, (%esp)
	call	__ZNSt8_Rb_treeIPN2sf11ResourcePtrINS0_4FontEEES4_St9_IdentityIS4_ESt4lessIS4_ESaIS4_EE7_M_rootEv
	movl	$0, (%eax)
	.loc 9 716 0
	movl	8(%ebp), %eax
	movl	%eax, (%esp)
	call	__ZNSt8_Rb_treeIPN2sf11ResourcePtrINS0_4FontEEES4_St9_IdentityIS4_ESt4lessIS4_ESaIS4_EE12_M_rightmostEv
	movl	%eax, %esi
	movl	8(%ebp), %eax
	movl	%eax, (%esp)
	call	__ZNSt8_Rb_treeIPN2sf11ResourcePtrINS0_4FontEEES4_St9_IdentityIS4_ESt4lessIS4_ESaIS4_EE6_M_endEv
	movl	%eax, (%esi)
	.loc 9 717 0
	movl	8(%ebp), %eax
	movl	$0, 20(%eax)
	addl	$20, %esp
	popl	%esi
	leave
	ret
LFE2702:
	.align 1
.globl __ZNSt8_Rb_treeIPN2sf11ResourcePtrINS0_4FontEEES4_St9_IdentityIS4_ESt4lessIS4_ESaIS4_EED1Ev
	.weak_definition __ZNSt8_Rb_treeIPN2sf11ResourcePtrINS0_4FontEEES4_St9_IdentityIS4_ESt4lessIS4_ESaIS4_EED1Ev
	.private_extern __ZNSt8_Rb_treeIPN2sf11ResourcePtrINS0_4FontEEES4_St9_IdentityIS4_ESt4lessIS4_ESaIS4_EED1Ev
__ZNSt8_Rb_treeIPN2sf11ResourcePtrINS0_4FontEEES4_St9_IdentityIS4_ESt4lessIS4_ESaIS4_EED1Ev:
LFB2535:
	.loc 9 593 0
	nop
	nop
	nop
	nop
	nop
	nop
	pushl	%ebp
LCFI428:
	movl	%esp, %ebp
LCFI429:
	pushl	%esi
LCFI430:
	subl	$36, %esp
LCFI431:
	.loc 9 594 0
	movl	8(%ebp), %eax
	movl	%eax, (%esp)
	call	__ZNSt8_Rb_treeIPN2sf11ResourcePtrINS0_4FontEEES4_St9_IdentityIS4_ESt4lessIS4_ESaIS4_EE8_M_beginEv
	movl	%eax, 4(%esp)
	movl	8(%ebp), %eax
	movl	%eax, (%esp)
LEHB6:
	call	__ZNSt8_Rb_treeIPN2sf11ResourcePtrINS0_4FontEEES4_St9_IdentityIS4_ESt4lessIS4_ESaIS4_EE8_M_eraseEPSt13_Rb_tree_nodeIS4_E
LEHE6:
	movl	8(%ebp), %eax
	movl	%eax, -12(%ebp)
	movl	-12(%ebp), %eax
	movl	%eax, (%esp)
	call	__ZNSt8_Rb_treeIPN2sf11ResourcePtrINS0_4FontEEES4_St9_IdentityIS4_ESt4lessIS4_ESaIS4_EE13_Rb_tree_implIS8_Lb0EED1Ev
	jmp	L362
L363:
	movl	%eax, -16(%ebp)
L361:
	movl	-16(%ebp), %esi
	movl	8(%ebp), %eax
	movl	%eax, -12(%ebp)
	movl	-12(%ebp), %eax
	movl	%eax, (%esp)
	call	__ZNSt8_Rb_treeIPN2sf11ResourcePtrINS0_4FontEEES4_St9_IdentityIS4_ESt4lessIS4_ESaIS4_EE13_Rb_tree_implIS8_Lb0EED1Ev
	movl	%esi, -16(%ebp)
	movl	-16(%ebp), %eax
	movl	%eax, (%esp)
LEHB7:
	call	__Unwind_Resume
LEHE7:
L362:
	addl	$36, %esp
	popl	%esi
	leave
	ret
LFE2535:
	.section __TEXT,__gcc_except_tab
GCC_except_table1:
LLSDA2535:
	.byte	0xff
	.byte	0xff
	.byte	0x3
	.byte	0x1a
	.set L$set$15,LEHB6-LFB2535
	.long L$set$15
	.set L$set$16,LEHE6-LEHB6
	.long L$set$16
	.set L$set$17,L363-LFB2535
	.long L$set$17
	.byte	0x0
	.set L$set$18,LEHB7-LFB2535
	.long L$set$18
	.set L$set$19,LEHE7-LEHB7
	.long L$set$19
	.long	0x0
	.byte	0x0
	.section __TEXT,__textcoal_nt,coalesced,pure_instructions
	.align 1
.globl __ZNSt3setIPN2sf11ResourcePtrINS0_4FontEEESt4lessIS4_ESaIS4_EED1Ev
	.weak_definition __ZNSt3setIPN2sf11ResourcePtrINS0_4FontEEESt4lessIS4_ESaIS4_EED1Ev
	.private_extern __ZNSt3setIPN2sf11ResourcePtrINS0_4FontEEESt4lessIS4_ESaIS4_EED1Ev
__ZNSt3setIPN2sf11ResourcePtrINS0_4FontEEESt4lessIS4_ESaIS4_EED1Ev:
LFB2466:
	.loc 13 94 0
	nop
	nop
	nop
	nop
	nop
	nop
	pushl	%ebp
LCFI432:
	movl	%esp, %ebp
LCFI433:
	subl	$24, %esp
LCFI434:
	.loc 13 94 0
	movl	8(%ebp), %eax
	movl	%eax, (%esp)
	call	__ZNSt8_Rb_treeIPN2sf11ResourcePtrINS0_4FontEEES4_St9_IdentityIS4_ESt4lessIS4_ESaIS4_EED1Ev
	leave
	ret
LFE2466:
	.align 1
.globl __ZN9__gnu_cxx13new_allocatorISt13_Rb_tree_nodeISt4pairIKjN2sf5GlyphEEEE10deallocateEPS7_m
	.weak_definition __ZN9__gnu_cxx13new_allocatorISt13_Rb_tree_nodeISt4pairIKjN2sf5GlyphEEEE10deallocateEPS7_m
	.private_extern __ZN9__gnu_cxx13new_allocatorISt13_Rb_tree_nodeISt4pairIKjN2sf5GlyphEEEE10deallocateEPS7_m
__ZN9__gnu_cxx13new_allocatorISt13_Rb_tree_nodeISt4pairIKjN2sf5GlyphEEEE10deallocateEPS7_m:
LFB2660:
	.loc 8 96 0
	nop
	nop
	nop
	nop
	nop
	nop
	pushl	%ebp
LCFI435:
	movl	%esp, %ebp
LCFI436:
	subl	$24, %esp
LCFI437:
	.loc 8 97 0
	movl	12(%ebp), %eax
	movl	%eax, (%esp)
	call	__ZdlPv
	leave
	ret
LFE2660:
	.align 1
.globl __ZNSt8_Rb_treeIjSt4pairIKjN2sf5GlyphEESt10_Select1stIS4_ESt4lessIjESaIS4_EE11_M_put_nodeEPSt13_Rb_tree_nodeIS4_E
	.weak_definition __ZNSt8_Rb_treeIjSt4pairIKjN2sf5GlyphEESt10_Select1stIS4_ESt4lessIjESaIS4_EE11_M_put_nodeEPSt13_Rb_tree_nodeIS4_E
	.private_extern __ZNSt8_Rb_treeIjSt4pairIKjN2sf5GlyphEESt10_Select1stIS4_ESt4lessIjESaIS4_EE11_M_put_nodeEPSt13_Rb_tree_nodeIS4_E
__ZNSt8_Rb_treeIjSt4pairIKjN2sf5GlyphEESt10_Select1stIS4_ESt4lessIjESaIS4_EE11_M_put_nodeEPSt13_Rb_tree_nodeIS4_E:
LFB2622:
	.loc 9 372 0
	nop
	nop
	nop
	nop
	nop
	nop
	pushl	%ebp
LCFI438:
	movl	%esp, %ebp
LCFI439:
	subl	$24, %esp
LCFI440:
	.loc 9 373 0
	movl	8(%ebp), %eax
	movl	%eax, %edx
	movl	$1, 8(%esp)
	movl	12(%ebp), %eax
	movl	%eax, 4(%esp)
	movl	%edx, (%esp)
	call	__ZN9__gnu_cxx13new_allocatorISt13_Rb_tree_nodeISt4pairIKjN2sf5GlyphEEEE10deallocateEPS7_m
	leave
	ret
LFE2622:
	.align 1
.globl __ZNSt8_Rb_treeIjSt4pairIKjN2sf5GlyphEESt10_Select1stIS4_ESt4lessIjESaIS4_EE15_M_destroy_nodeEPSt13_Rb_tree_nodeIS4_E
	.weak_definition __ZNSt8_Rb_treeIjSt4pairIKjN2sf5GlyphEESt10_Select1stIS4_ESt4lessIjESaIS4_EE15_M_destroy_nodeEPSt13_Rb_tree_nodeIS4_E
	.private_extern __ZNSt8_Rb_treeIjSt4pairIKjN2sf5GlyphEESt10_Select1stIS4_ESt4lessIjESaIS4_EE15_M_destroy_nodeEPSt13_Rb_tree_nodeIS4_E
__ZNSt8_Rb_treeIjSt4pairIKjN2sf5GlyphEESt10_Select1stIS4_ESt4lessIjESaIS4_EE15_M_destroy_nodeEPSt13_Rb_tree_nodeIS4_E:
LFB2586:
	.loc 9 400 0
	nop
	nop
	nop
	nop
	nop
	nop
	pushl	%ebp
LCFI441:
	movl	%esp, %ebp
LCFI442:
	pushl	%esi
LCFI443:
	subl	$36, %esp
LCFI444:
	.loc 9 402 0
	movl	12(%ebp), %esi
	addl	$16, %esi
	leal	-9(%ebp), %edx
	movl	8(%ebp), %eax
	movl	%eax, 4(%esp)
	movl	%edx, (%esp)
	call	__ZNKSt8_Rb_treeIjSt4pairIKjN2sf5GlyphEESt10_Select1stIS4_ESt4lessIjESaIS4_EE13get_allocatorEv
	subl	$4, %esp
	leal	-9(%ebp), %eax
	movl	%esi, 4(%esp)
	movl	%eax, (%esp)
	call	__ZN9__gnu_cxx13new_allocatorISt4pairIKjN2sf5GlyphEEE7destroyEPS5_
	leal	-9(%ebp), %eax
	movl	%eax, (%esp)
	call	__ZNSaISt4pairIKjN2sf5GlyphEEED1Ev
	.loc 9 403 0
	movl	12(%ebp), %eax
	movl	%eax, 4(%esp)
	movl	8(%ebp), %eax
	movl	%eax, (%esp)
	call	__ZNSt8_Rb_treeIjSt4pairIKjN2sf5GlyphEESt10_Select1stIS4_ESt4lessIjESaIS4_EE11_M_put_nodeEPSt13_Rb_tree_nodeIS4_E
	movl	-4(%ebp), %esi
	leave
	ret
LFE2586:
	.align 1
.globl __ZNSt8_Rb_treeIjSt4pairIKjN2sf5GlyphEESt10_Select1stIS4_ESt4lessIjESaIS4_EE8_M_eraseEPSt13_Rb_tree_nodeIS4_E
	.weak_definition __ZNSt8_Rb_treeIjSt4pairIKjN2sf5GlyphEESt10_Select1stIS4_ESt4lessIjESaIS4_EE8_M_eraseEPSt13_Rb_tree_nodeIS4_E
__ZNSt8_Rb_treeIjSt4pairIKjN2sf5GlyphEESt10_Select1stIS4_ESt4lessIjESaIS4_EE8_M_eraseEPSt13_Rb_tree_nodeIS4_E:
LFB2545:
	.loc 9 1320 0
	nop
	nop
	nop
	nop
	nop
	nop
	pushl	%ebp
LCFI445:
	movl	%esp, %ebp
LCFI446:
	subl	$40, %esp
LCFI447:
LBB26:
LBB27:
	.loc 9 1323 0
	jmp	L374
L375:
	.loc 9 1325 0
	movl	12(%ebp), %eax
	movl	%eax, (%esp)
	call	__ZNSt8_Rb_treeIjSt4pairIKjN2sf5GlyphEESt10_Select1stIS4_ESt4lessIjESaIS4_EE8_S_rightEPSt18_Rb_tree_node_base
	movl	%eax, 4(%esp)
	movl	8(%ebp), %eax
	movl	%eax, (%esp)
	call	__ZNSt8_Rb_treeIjSt4pairIKjN2sf5GlyphEESt10_Select1stIS4_ESt4lessIjESaIS4_EE8_M_eraseEPSt13_Rb_tree_nodeIS4_E
	.loc 9 1326 0
	movl	12(%ebp), %eax
	movl	%eax, (%esp)
	call	__ZNSt8_Rb_treeIjSt4pairIKjN2sf5GlyphEESt10_Select1stIS4_ESt4lessIjESaIS4_EE7_S_leftEPSt18_Rb_tree_node_base
	movl	%eax, -12(%ebp)
	.loc 9 1327 0
	movl	12(%ebp), %eax
	movl	%eax, 4(%esp)
	movl	8(%ebp), %eax
	movl	%eax, (%esp)
	call	__ZNSt8_Rb_treeIjSt4pairIKjN2sf5GlyphEESt10_Select1stIS4_ESt4lessIjESaIS4_EE15_M_destroy_nodeEPSt13_Rb_tree_nodeIS4_E
	.loc 9 1328 0
	movl	-12(%ebp), %eax
	movl	%eax, 12(%ebp)
L374:
LBE27:
	.loc 9 1323 0
	cmpl	$0, 12(%ebp)
	jne	L375
LBE26:
	.loc 9 1328 0
	leave
	ret
LFE2545:
	.align 1
.globl __ZNSt8_Rb_treeIjSt4pairIKjN2sf5GlyphEESt10_Select1stIS4_ESt4lessIjESaIS4_EED1Ev
	.weak_definition __ZNSt8_Rb_treeIjSt4pairIKjN2sf5GlyphEESt10_Select1stIS4_ESt4lessIjESaIS4_EED1Ev
	.private_extern __ZNSt8_Rb_treeIjSt4pairIKjN2sf5GlyphEESt10_Select1stIS4_ESt4lessIjESaIS4_EED1Ev
__ZNSt8_Rb_treeIjSt4pairIKjN2sf5GlyphEESt10_Select1stIS4_ESt4lessIjESaIS4_EED1Ev:
LFB2474:
	.loc 9 593 0
	nop
	nop
	nop
	nop
	nop
	nop
	pushl	%ebp
LCFI448:
	movl	%esp, %ebp
LCFI449:
	pushl	%esi
LCFI450:
	subl	$36, %esp
LCFI451:
	.loc 9 594 0
	movl	8(%ebp), %eax
	movl	%eax, (%esp)
	call	__ZNSt8_Rb_treeIjSt4pairIKjN2sf5GlyphEESt10_Select1stIS4_ESt4lessIjESaIS4_EE8_M_beginEv
	movl	%eax, 4(%esp)
	movl	8(%ebp), %eax
	movl	%eax, (%esp)
LEHB8:
	call	__ZNSt8_Rb_treeIjSt4pairIKjN2sf5GlyphEESt10_Select1stIS4_ESt4lessIjESaIS4_EE8_M_eraseEPSt13_Rb_tree_nodeIS4_E
LEHE8:
	movl	8(%ebp), %eax
	movl	%eax, -12(%ebp)
	movl	-12(%ebp), %eax
	movl	%eax, (%esp)
	call	__ZNSt8_Rb_treeIjSt4pairIKjN2sf5GlyphEESt10_Select1stIS4_ESt4lessIjESaIS4_EE13_Rb_tree_implIS8_Lb0EED1Ev
	jmp	L381
L382:
	movl	%eax, -16(%ebp)
L380:
	movl	-16(%ebp), %esi
	movl	8(%ebp), %eax
	movl	%eax, -12(%ebp)
	movl	-12(%ebp), %eax
	movl	%eax, (%esp)
	call	__ZNSt8_Rb_treeIjSt4pairIKjN2sf5GlyphEESt10_Select1stIS4_ESt4lessIjESaIS4_EE13_Rb_tree_implIS8_Lb0EED1Ev
	movl	%esi, -16(%ebp)
	movl	-16(%ebp), %eax
	movl	%eax, (%esp)
LEHB9:
	call	__Unwind_Resume
LEHE9:
L381:
	addl	$36, %esp
	popl	%esi
	leave
	ret
LFE2474:
	.section __TEXT,__gcc_except_tab
GCC_except_table2:
LLSDA2474:
	.byte	0xff
	.byte	0xff
	.byte	0x3
	.byte	0x1a
	.set L$set$20,LEHB8-LFB2474
	.long L$set$20
	.set L$set$21,LEHE8-LEHB8
	.long L$set$21
	.set L$set$22,L382-LFB2474
	.long L$set$22
	.byte	0x0
	.set L$set$23,LEHB9-LFB2474
	.long L$set$23
	.set L$set$24,LEHE9-LEHB9
	.long L$set$24
	.long	0x0
	.byte	0x0
	.section __TEXT,__textcoal_nt,coalesced,pure_instructions
	.align 1
.globl __ZNSt3mapIjN2sf5GlyphESt4lessIjESaISt4pairIKjS1_EEED1Ev
	.weak_definition __ZNSt3mapIjN2sf5GlyphESt4lessIjESaISt4pairIKjS1_EEED1Ev
	.private_extern __ZNSt3mapIjN2sf5GlyphESt4lessIjESaISt4pairIKjS1_EEED1Ev
__ZNSt3mapIjN2sf5GlyphESt4lessIjESaISt4pairIKjS1_EEED1Ev:
LFB2393:
	.file 18 "/usr/include/c++/4.2.1/bits/stl_map.h"
	.loc 18 94 0
	nop
	nop
	nop
	nop
	nop
	nop
	pushl	%ebp
LCFI452:
	movl	%esp, %ebp
LCFI453:
	subl	$24, %esp
LCFI454:
	.loc 18 94 0
	movl	8(%ebp), %eax
	movl	%eax, (%esp)
	call	__ZNSt8_Rb_treeIjSt4pairIKjN2sf5GlyphEESt10_Select1stIS4_ESt4lessIjESaIS4_EED1Ev
	leave
	ret
LFE2393:
	.text
__ZN9__gnu_cxxL18__exchange_and_addEPVii:
LFB283:
	.loc 2 50 0
	nop
	nop
	nop
	nop
	nop
	nop
	pushl	%ebp
LCFI455:
	movl	%esp, %ebp
LCFI456:
	subl	$24, %esp
LCFI457:
	movl	%eax, -12(%ebp)
	movl	%edx, -16(%ebp)
	.loc 2 51 0
	movl	-16(%ebp), %edx
	movl	-12(%ebp), %eax
	lock
	xaddl	%edx, (%eax)
	movl	%edx, %eax
	leave
	ret
LFE283:
__ZN9__gnu_cxxL27__exchange_and_add_dispatchEPii:
LFB287:
	.loc 2 80 0
	nop
	nop
	nop
	nop
	nop
	nop
	pushl	%ebp
LCFI458:
	movl	%esp, %ebp
LCFI459:
	subl	$24, %esp
LCFI460:
	movl	%eax, -12(%ebp)
	movl	%edx, -16(%ebp)
	.loc 2 83 0
	call	__ZL18__gthread_active_pv
	testl	%eax, %eax
	setne	%al
	testb	%al, %al
	je	L389
	.loc 2 84 0
	movl	-12(%ebp), %eax
	movl	-16(%ebp), %edx
	call	__ZN9__gnu_cxxL18__exchange_and_addEPVii
	movl	%eax, -20(%ebp)
	jmp	L391
L389:
	.loc 2 86 0
	movl	-16(%ebp), %edx
	movl	-12(%ebp), %eax
	call	__ZN9__gnu_cxxL25__exchange_and_add_singleEPii
	movl	%eax, -20(%ebp)
L391:
	movl	-20(%ebp), %eax
	.loc 2 90 0
	leave
	ret
LFE287:
	.section __TEXT,__textcoal_nt,coalesced,pure_instructions
	.align 1
.globl __ZNSbIjSt11char_traitsIjESaIjEE4_Rep10_M_disposeERKS1_
	.weak_definition __ZNSbIjSt11char_traitsIjESaIjEE4_Rep10_M_disposeERKS1_
	.private_extern __ZNSbIjSt11char_traitsIjESaIjEE4_Rep10_M_disposeERKS1_
__ZNSbIjSt11char_traitsIjESaIjEE4_Rep10_M_disposeERKS1_:
LFB2555:
	.loc 12 231 0
	nop
	nop
	nop
	nop
	nop
	nop
	pushl	%ebp
LCFI461:
	movl	%esp, %ebp
LCFI462:
	subl	$24, %esp
LCFI463:
	.loc 12 234 0
	call	__ZNSbIjSt11char_traitsIjESaIjEE4_Rep12_S_empty_repEv
	cmpl	8(%ebp), %eax
	setne	%al
	movzbl	%al, %eax
	testl	%eax, %eax
	setne	%al
	testb	%al, %al
	je	L397
	.loc 12 236 0
	movl	8(%ebp), %eax
	addl	$8, %eax
	movl	$-1, %edx
	call	__ZN9__gnu_cxxL27__exchange_and_add_dispatchEPii
	testl	%eax, %eax
	setle	%al
	testb	%al, %al
	je	L397
	.loc 12 238 0
	movl	12(%ebp), %eax
	movl	%eax, 4(%esp)
	movl	8(%ebp), %eax
	movl	%eax, (%esp)
	call	__ZNSbIjSt11char_traitsIjESaIjEE4_Rep10_M_destroyERKS1_
L397:
	leave
	ret
LFE2555:
	.align 1
.globl __ZNSbIjSt11char_traitsIjESaIjEED1Ev
	.weak_definition __ZNSbIjSt11char_traitsIjESaIjEED1Ev
	.private_extern __ZNSbIjSt11char_traitsIjESaIjEED1Ev
__ZNSbIjSt11char_traitsIjESaIjEED1Ev:
LFB2480:
	.loc 12 492 0
	nop
	nop
	nop
	nop
	nop
	nop
	pushl	%ebp
LCFI464:
	movl	%esp, %ebp
LCFI465:
	subl	$40, %esp
LCFI466:
	.loc 12 493 0
	leal	-9(%ebp), %edx
	movl	8(%ebp), %eax
	movl	%eax, 4(%esp)
	movl	%edx, (%esp)
	call	__ZNKSbIjSt11char_traitsIjESaIjEE13get_allocatorEv
	subl	$4, %esp
	movl	8(%ebp), %eax
	movl	%eax, (%esp)
	call	__ZNKSbIjSt11char_traitsIjESaIjEE6_M_repEv
	movl	%eax, %edx
	leal	-9(%ebp), %eax
	movl	%eax, 4(%esp)
	movl	%edx, (%esp)
	call	__ZNSbIjSt11char_traitsIjESaIjEE4_Rep10_M_disposeERKS1_
	leal	-9(%ebp), %eax
	movl	%eax, (%esp)
	call	__ZNSaIjED1Ev
	movl	8(%ebp), %eax
	movl	%eax, (%esp)
	call	__ZNSbIjSt11char_traitsIjESaIjEE12_Alloc_hiderD1Ev
	leave
	ret
LFE2480:
	.align 1
.globl __ZN2sf7Unicode4TextD1Ev
	.weak_definition __ZN2sf7Unicode4TextD1Ev
	.private_extern __ZN2sf7Unicode4TextD1Ev
__ZN2sf7Unicode4TextD1Ev:
LFB2398:
	.file 19 "/System/Library/Frameworks/SFML.framework/Headers/System/Unicode.hpp"
	.loc 19 64 0
	nop
	nop
	nop
	nop
	nop
	nop
	pushl	%ebp
LCFI467:
	movl	%esp, %ebp
LCFI468:
	subl	$24, %esp
LCFI469:
	.loc 19 64 0
	movl	8(%ebp), %eax
	movl	%eax, (%esp)
	call	__ZNSbIjSt11char_traitsIjESaIjEED1Ev
	leave
	ret
LFE2398:
	.text
___tcf_0:
LFB2784:
	.loc 16 77 0
	nop
	nop
	nop
	nop
	nop
	nop
	pushl	%ebp
LCFI470:
	movl	%esp, %ebp
LCFI471:
	pushl	%ebx
LCFI472:
	subl	$20, %esp
LCFI473:
	call	L406
"L00000000008$pb":
L406:
	popl	%ebx
	.loc 16 77 0
	leal	L__ZStL8__ioinit$non_lazy_ptr-"L00000000008$pb"(%ebx), %eax
	movl	(%eax), %eax
	movl	%eax, (%esp)
	call	__ZNSt8ios_base4InitD1Ev
	addl	$20, %esp
	popl	%ebx
	leave
	ret
LFE2784:
	.section __TEXT,__textcoal_nt,coalesced,pure_instructions
.globl __ZNSt11char_traitsIcE6lengthEPKc
	.weak_definition __ZNSt11char_traitsIcE6lengthEPKc
	.private_extern __ZNSt11char_traitsIcE6lengthEPKc
__ZNSt11char_traitsIcE6lengthEPKc:
LFB258:
	.file 20 "/usr/include/c++/4.2.1/bits/char_traits.h"
	.loc 20 257 0
	nop
	nop
	nop
	nop
	nop
	nop
	pushl	%ebp
LCFI474:
	movl	%esp, %ebp
LCFI475:
	subl	$24, %esp
LCFI476:
	.loc 20 258 0
	movl	8(%ebp), %eax
	movl	%eax, (%esp)
	call	_strlen
	leave
	ret
LFE258:
	.align 1
.globl __ZN6BPieceC1ERKS_
	.weak_definition __ZN6BPieceC1ERKS_
	.private_extern __ZN6BPieceC1ERKS_
__ZN6BPieceC1ERKS_:
LFB2345:
	.file 21 "/Users/Feysal/Flocks/board.h"
	.loc 21 33 0
	nop
	nop
	nop
	nop
	nop
	nop
	pushl	%ebp
LCFI477:
	movl	%esp, %ebp
LCFI478:
	subl	$24, %esp
LCFI479:
LBB28:
	.loc 21 33 0
	movl	8(%ebp), %eax
	movl	%eax, (%esp)
	call	__ZN5PieceC2Ev
	movl	8(%ebp), %ecx
	movl	12(%ebp), %edx
	movl	(%edx), %eax
	movl	%eax, (%ecx)
	movl	4(%edx), %eax
	movl	%eax, 4(%ecx)
	movl	8(%edx), %eax
	movl	%eax, 8(%ecx)
	movl	12(%edx), %eax
	movl	%eax, 12(%ecx)
	movl	16(%edx), %eax
	movl	%eax, 16(%ecx)
	movl	12(%ebp), %eax
	movl	12(%eax), %edx
	movl	8(%ebp), %eax
	movl	%edx, 12(%eax)
	movl	12(%ebp), %eax
	movl	16(%eax), %edx
	movl	8(%ebp), %eax
	movl	%edx, 16(%eax)
LBE28:
	leave
	ret
LFE2345:
	.align 1
.globl __ZN4Game12getNextPieceEv
	.weak_definition __ZN4Game12getNextPieceEv
	.private_extern __ZN4Game12getNextPieceEv
__ZN4Game12getNextPieceEv:
LFB2363:
	.loc 4 59 0
	nop
	nop
	nop
	nop
	nop
	nop
	pushl	%ebp
LCFI480:
	movl	%esp, %ebp
LCFI481:
	pushl	%esi
LCFI482:
	subl	$20, %esp
LCFI483:
	movl	8(%ebp), %esi
	.loc 4 59 0
	movl	%esi, %edx
	movl	12(%ebp), %eax
	addl	$864, %eax
	movl	%eax, 4(%esp)
	movl	%edx, (%esp)
	call	__ZN6BPieceC1ERKS_
	movl	%esi, %eax
	addl	$20, %esp
	popl	%esi
	leave
	ret	$4
LFE2363:
	.align 1
.globl __ZN4Game12getHoldPieceEv
	.weak_definition __ZN4Game12getHoldPieceEv
	.private_extern __ZN4Game12getHoldPieceEv
__ZN4Game12getHoldPieceEv:
LFB2365:
	.loc 4 62 0
	nop
	nop
	nop
	nop
	nop
	nop
	pushl	%ebp
LCFI484:
	movl	%esp, %ebp
LCFI485:
	pushl	%esi
LCFI486:
	subl	$20, %esp
LCFI487:
	movl	8(%ebp), %esi
	.loc 4 62 0
	movl	%esi, %edx
	movl	12(%ebp), %eax
	addl	$884, %eax
	movl	%eax, 4(%esp)
	movl	%edx, (%esp)
	call	__ZN6BPieceC1ERKS_
	movl	%esi, %eax
	addl	$20, %esp
	popl	%esi
	leave
	ret	$4
LFE2365:
	.align 1
.globl __ZN4Game19getCurrentGamePieceEv
	.weak_definition __ZN4Game19getCurrentGamePieceEv
	.private_extern __ZN4Game19getCurrentGamePieceEv
__ZN4Game19getCurrentGamePieceEv:
LFB2361:
	.loc 4 56 0
	nop
	nop
	nop
	nop
	nop
	nop
	pushl	%ebp
LCFI488:
	movl	%esp, %ebp
LCFI489:
	pushl	%esi
LCFI490:
	subl	$20, %esp
LCFI491:
	movl	8(%ebp), %esi
	.loc 4 56 0
	movl	%esi, %edx
	movl	12(%ebp), %eax
	addl	$844, %eax
	movl	%eax, 4(%esp)
	movl	%edx, (%esp)
	call	__ZN6BPieceC1ERKS_
	movl	%esi, %eax
	addl	$20, %esp
	popl	%esi
	leave
	ret	$4
LFE2361:
	.align 1
.globl __ZNSt17_Rb_tree_iteratorIPN2sf11ResourcePtrINS0_5ImageEEEEppEi
	.weak_definition __ZNSt17_Rb_tree_iteratorIPN2sf11ResourcePtrINS0_5ImageEEEEppEi
	.private_extern __ZNSt17_Rb_tree_iteratorIPN2sf11ResourcePtrINS0_5ImageEEEEppEi
__ZNSt17_Rb_tree_iteratorIPN2sf11ResourcePtrINS0_5ImageEEEEppEi:
LFB2675:
	.loc 9 190 0
	nop
	nop
	nop
	nop
	nop
	nop
	pushl	%ebp
LCFI492:
	movl	%esp, %ebp
LCFI493:
	subl	$40, %esp
LCFI494:
LBB29:
	.loc 9 192 0
	movl	8(%ebp), %eax
	movl	(%eax), %eax
	movl	%eax, -12(%ebp)
	.loc 9 193 0
	movl	8(%ebp), %eax
	movl	(%eax), %eax
	movl	%eax, (%esp)
	call	__ZSt18_Rb_tree_incrementPSt18_Rb_tree_node_base
	movl	%eax, %edx
	movl	8(%ebp), %eax
	movl	%edx, (%eax)
	.loc 9 194 0
	movl	-12(%ebp), %eax
LBE29:
	leave
	ret
LFE2675:
	.align 1
.globl __ZNSt17_Rb_tree_iteratorIPN2sf11ResourcePtrINS0_4FontEEEEppEi
	.weak_definition __ZNSt17_Rb_tree_iteratorIPN2sf11ResourcePtrINS0_4FontEEEEppEi
	.private_extern __ZNSt17_Rb_tree_iteratorIPN2sf11ResourcePtrINS0_4FontEEEEppEi
__ZNSt17_Rb_tree_iteratorIPN2sf11ResourcePtrINS0_4FontEEEEppEi:
LFB2704:
	.loc 9 190 0
	nop
	nop
	nop
	nop
	nop
	nop
	pushl	%ebp
LCFI495:
	movl	%esp, %ebp
LCFI496:
	subl	$40, %esp
LCFI497:
LBB30:
	.loc 9 192 0
	movl	8(%ebp), %eax
	movl	(%eax), %eax
	movl	%eax, -12(%ebp)
	.loc 9 193 0
	movl	8(%ebp), %eax
	movl	(%eax), %eax
	movl	%eax, (%esp)
	call	__ZSt18_Rb_tree_incrementPSt18_Rb_tree_node_base
	movl	%eax, %edx
	movl	8(%ebp), %eax
	movl	%edx, (%eax)
	.loc 9 194 0
	movl	-12(%ebp), %eax
LBE30:
	leave
	ret
LFE2704:
	.align 1
.globl __ZNSt8_Rb_treeIPN2sf11ResourcePtrINS0_5ImageEEES4_St9_IdentityIS4_ESt4lessIS4_ESaIS4_EE5eraseESt17_Rb_tree_iteratorIS4_E
	.weak_definition __ZNSt8_Rb_treeIPN2sf11ResourcePtrINS0_5ImageEEES4_St9_IdentityIS4_ESt4lessIS4_ESaIS4_EE5eraseESt17_Rb_tree_iteratorIS4_E
	.private_extern __ZNSt8_Rb_treeIPN2sf11ResourcePtrINS0_5ImageEEES4_St9_IdentityIS4_ESt4lessIS4_ESaIS4_EE5eraseESt17_Rb_tree_iteratorIS4_E
__ZNSt8_Rb_treeIPN2sf11ResourcePtrINS0_5ImageEEES4_St9_IdentityIS4_ESt4lessIS4_ESaIS4_EE5eraseESt17_Rb_tree_iteratorIS4_E:
LFB2676:
	.loc 9 1244 0
	nop
	nop
	nop
	nop
	nop
	nop
	pushl	%ebp
LCFI498:
	movl	%esp, %ebp
LCFI499:
	subl	$40, %esp
LCFI500:
LBB31:
	.loc 9 1249 0
	movl	8(%ebp), %eax
	addl	$4, %eax
	movl	12(%ebp), %edx
	movl	%eax, 4(%esp)
	movl	%edx, (%esp)
	call	__ZSt28_Rb_tree_rebalance_for_erasePSt18_Rb_tree_node_baseRS_
	movl	%eax, -12(%ebp)
	.loc 9 1250 0
	movl	-12(%ebp), %eax
	movl	%eax, 4(%esp)
	movl	8(%ebp), %eax
	movl	%eax, (%esp)
	call	__ZNSt8_Rb_treeIPN2sf11ResourcePtrINS0_5ImageEEES4_St9_IdentityIS4_ESt4lessIS4_ESaIS4_EE15_M_destroy_nodeEPSt13_Rb_tree_nodeIS4_E
	.loc 9 1251 0
	movl	8(%ebp), %eax
	movl	20(%eax), %eax
	leal	-1(%eax), %edx
	movl	8(%ebp), %eax
	movl	%edx, 20(%eax)
LBE31:
	leave
	ret
LFE2676:
	.align 1
.globl __ZNSt8_Rb_treeIPN2sf11ResourcePtrINS0_5ImageEEES4_St9_IdentityIS4_ESt4lessIS4_ESaIS4_EE5eraseESt17_Rb_tree_iteratorIS4_ESC_
	.weak_definition __ZNSt8_Rb_treeIPN2sf11ResourcePtrINS0_5ImageEEES4_St9_IdentityIS4_ESt4lessIS4_ESaIS4_EE5eraseESt17_Rb_tree_iteratorIS4_ESC_
__ZNSt8_Rb_treeIPN2sf11ResourcePtrINS0_5ImageEEES4_St9_IdentityIS4_ESt4lessIS4_ESaIS4_EE5eraseESt17_Rb_tree_iteratorIS4_ESC_:
LFB2643:
	.loc 9 1336 0
	nop
	nop
	nop
	nop
	nop
	nop
	pushl	%ebp
LCFI501:
	movl	%esp, %ebp
LCFI502:
	subl	$56, %esp
LCFI503:
	.loc 9 1338 0
	movl	8(%ebp), %eax
	movl	%eax, (%esp)
	call	__ZNSt8_Rb_treeIPN2sf11ResourcePtrINS0_5ImageEEES4_St9_IdentityIS4_ESt4lessIS4_ESaIS4_EE5beginEv
	movl	%eax, -16(%ebp)
	leal	-16(%ebp), %eax
	movl	%eax, 4(%esp)
	leal	12(%ebp), %eax
	movl	%eax, (%esp)
	call	__ZNKSt17_Rb_tree_iteratorIPN2sf11ResourcePtrINS0_5ImageEEEEeqERKS5_
	xorl	$1, %eax
	testb	%al, %al
	jne	L424
	movl	8(%ebp), %eax
	movl	%eax, (%esp)
	call	__ZNSt8_Rb_treeIPN2sf11ResourcePtrINS0_5ImageEEES4_St9_IdentityIS4_ESt4lessIS4_ESaIS4_EE3endEv
	movl	%eax, -12(%ebp)
	leal	-12(%ebp), %eax
	movl	%eax, 4(%esp)
	leal	16(%ebp), %eax
	movl	%eax, (%esp)
	call	__ZNKSt17_Rb_tree_iteratorIPN2sf11ResourcePtrINS0_5ImageEEEEeqERKS5_
	xorl	$1, %eax
	testb	%al, %al
	jne	L424
	movb	$1, -25(%ebp)
	jmp	L427
L424:
	movb	$0, -25(%ebp)
L427:
	movzbl	-25(%ebp), %eax
	testb	%al, %al
	je	L431
	.loc 9 1339 0
	movl	8(%ebp), %eax
	movl	%eax, (%esp)
	call	__ZNSt8_Rb_treeIPN2sf11ResourcePtrINS0_5ImageEEES4_St9_IdentityIS4_ESt4lessIS4_ESaIS4_EE5clearEv
	jmp	L433
L432:
	.loc 9 1342 0
	movl	$0, 4(%esp)
	leal	12(%ebp), %eax
	movl	%eax, (%esp)
	call	__ZNSt17_Rb_tree_iteratorIPN2sf11ResourcePtrINS0_5ImageEEEEppEi
	movl	%eax, 4(%esp)
	movl	8(%ebp), %eax
	movl	%eax, (%esp)
	call	__ZNSt8_Rb_treeIPN2sf11ResourcePtrINS0_5ImageEEES4_St9_IdentityIS4_ESt4lessIS4_ESaIS4_EE5eraseESt17_Rb_tree_iteratorIS4_E
L431:
	.loc 9 1341 0
	leal	16(%ebp), %eax
	movl	%eax, 4(%esp)
	leal	12(%ebp), %eax
	movl	%eax, (%esp)
	call	__ZNKSt17_Rb_tree_iteratorIPN2sf11ResourcePtrINS0_5ImageEEEEneERKS5_
	testb	%al, %al
	jne	L432
L433:
	.loc 9 1342 0
	leave
	ret
LFE2643:
	.align 1
.globl __ZNSt8_Rb_treeIPN2sf11ResourcePtrINS0_5ImageEEES4_St9_IdentityIS4_ESt4lessIS4_ESaIS4_EE5eraseERKS4_
	.weak_definition __ZNSt8_Rb_treeIPN2sf11ResourcePtrINS0_5ImageEEES4_St9_IdentityIS4_ESt4lessIS4_ESaIS4_EE5eraseERKS4_
__ZNSt8_Rb_treeIPN2sf11ResourcePtrINS0_5ImageEEES4_St9_IdentityIS4_ESt4lessIS4_ESaIS4_EE5eraseERKS4_:
LFB2604:
	.loc 9 1272 0
	nop
	nop
	nop
	nop
	nop
	nop
	pushl	%ebp
LCFI504:
	movl	%esp, %ebp
LCFI505:
	subl	$40, %esp
LCFI506:
LBB32:
	.loc 9 1274 0
	movl	12(%ebp), %eax
	movl	%eax, 4(%esp)
	movl	8(%ebp), %eax
	movl	%eax, (%esp)
	call	__ZNSt8_Rb_treeIPN2sf11ResourcePtrINS0_5ImageEEES4_St9_IdentityIS4_ESt4lessIS4_ESaIS4_EE11equal_rangeERKS4_
	movl	%eax, -20(%ebp)
	movl	%edx, -16(%ebp)
	.loc 9 1275 0
	movl	8(%ebp), %eax
	movl	%eax, (%esp)
	call	__ZNKSt8_Rb_treeIPN2sf11ResourcePtrINS0_5ImageEEES4_St9_IdentityIS4_ESt4lessIS4_ESaIS4_EE4sizeEv
	movl	%eax, -12(%ebp)
	.loc 9 1276 0
	movl	-16(%ebp), %eax
	movl	%eax, 8(%esp)
	movl	-20(%ebp), %eax
	movl	%eax, 4(%esp)
	movl	8(%ebp), %eax
	movl	%eax, (%esp)
	call	__ZNSt8_Rb_treeIPN2sf11ResourcePtrINS0_5ImageEEES4_St9_IdentityIS4_ESt4lessIS4_ESaIS4_EE5eraseESt17_Rb_tree_iteratorIS4_ESC_
	.loc 9 1277 0
	movl	8(%ebp), %eax
	movl	%eax, (%esp)
	call	__ZNKSt8_Rb_treeIPN2sf11ResourcePtrINS0_5ImageEEES4_St9_IdentityIS4_ESt4lessIS4_ESaIS4_EE4sizeEv
	movl	%eax, %edx
	movl	-12(%ebp), %eax
	subl	%edx, %eax
LBE32:
	leave
	ret
LFE2604:
	.align 1
.globl __ZNSt3setIPN2sf11ResourcePtrINS0_5ImageEEESt4lessIS4_ESaIS4_EE5eraseERKS4_
	.weak_definition __ZNSt3setIPN2sf11ResourcePtrINS0_5ImageEEESt4lessIS4_ESaIS4_EE5eraseERKS4_
	.private_extern __ZNSt3setIPN2sf11ResourcePtrINS0_5ImageEEESt4lessIS4_ESaIS4_EE5eraseERKS4_
__ZNSt3setIPN2sf11ResourcePtrINS0_5ImageEEESt4lessIS4_ESaIS4_EE5eraseERKS4_:
LFB2573:
	.loc 13 372 0
	nop
	nop
	nop
	nop
	nop
	nop
	pushl	%ebp
LCFI507:
	movl	%esp, %ebp
LCFI508:
	subl	$24, %esp
LCFI509:
	.loc 13 373 0
	movl	8(%ebp), %edx
	movl	12(%ebp), %eax
	movl	%eax, 4(%esp)
	movl	%edx, (%esp)
	call	__ZNSt8_Rb_treeIPN2sf11ResourcePtrINS0_5ImageEEES4_St9_IdentityIS4_ESt4lessIS4_ESaIS4_EE5eraseERKS4_
	leave
	ret
LFE2573:
	.align 1
.globl __ZNK2sf8ResourceINS_5ImageEE10DisconnectERNS_11ResourcePtrIS1_EE
	.weak_definition __ZNK2sf8ResourceINS_5ImageEE10DisconnectERNS_11ResourcePtrIS1_EE
__ZNK2sf8ResourceINS_5ImageEE10DisconnectERNS_11ResourcePtrIS1_EE:
LFB2529:
	.file 22 "/System/Library/Frameworks/SFML.framework/Headers/System/Resource.inl"
	.loc 22 85 0
	nop
	nop
	nop
	nop
	nop
	nop
	pushl	%ebp
LCFI510:
	movl	%esp, %ebp
LCFI511:
	subl	$40, %esp
LCFI512:
	.loc 22 87 0
	movl	12(%ebp), %eax
	movl	%eax, -12(%ebp)
	movl	8(%ebp), %edx
	leal	-12(%ebp), %eax
	movl	%eax, 4(%esp)
	movl	%edx, (%esp)
	call	__ZNSt3setIPN2sf11ResourcePtrINS0_5ImageEEESt4lessIS4_ESaIS4_EE5eraseERKS4_
	leave
	ret
LFE2529:
	.align 1
.globl __ZN2sf11ResourcePtrINS_5ImageEED1Ev
	.weak_definition __ZN2sf11ResourcePtrINS_5ImageEED1Ev
__ZN2sf11ResourcePtrINS_5ImageEED1Ev:
LFB2462:
	.loc 10 65 0
	nop
	nop
	nop
	nop
	nop
	nop
	pushl	%ebp
LCFI513:
	movl	%esp, %ebp
LCFI514:
	subl	$24, %esp
LCFI515:
	.loc 10 67 0
	movl	8(%ebp), %eax
	movl	(%eax), %eax
	testl	%eax, %eax
	je	L443
	.loc 10 68 0
	movl	8(%ebp), %eax
	movl	(%eax), %eax
	movl	%eax, %edx
	movl	8(%ebp), %eax
	movl	%eax, 4(%esp)
	movl	%edx, (%esp)
	call	__ZNK2sf8ResourceINS_5ImageEE10DisconnectERNS_11ResourcePtrIS1_EE
L443:
	leave
	ret
LFE2462:
	.align 1
.globl __ZN2sf6SpriteD1Ev
	.weak_definition __ZN2sf6SpriteD1Ev
	.private_extern __ZN2sf6SpriteD1Ev
__ZN2sf6SpriteD1Ev:
LFB2387:
	.file 23 "/System/Library/Frameworks/SFML.framework/Headers/Graphics/Sprite.hpp"
	.loc 23 45 0
	nop
	nop
	nop
	nop
	nop
	nop
	pushl	%ebp
LCFI516:
	movl	%esp, %ebp
LCFI517:
	pushl	%esi
LCFI518:
	pushl	%ebx
LCFI519:
	subl	$32, %esp
LCFI520:
	call	L451
"L00000000009$pb":
L451:
	popl	%ebx
	.loc 23 45 0
	leal	L__ZTVN2sf6SpriteE$non_lazy_ptr-"L00000000009$pb"(%ebx), %eax
	movl	(%eax), %eax
	leal	8(%eax), %eax
	movl	8(%ebp), %edx
	movl	%eax, (%edx)
	movl	8(%ebp), %eax
	addl	$172, %eax
	movl	%eax, (%esp)
LEHB10:
	call	__ZN2sf11ResourcePtrINS_5ImageEED1Ev
LEHE10:
	movl	8(%ebp), %eax
	movl	%eax, -12(%ebp)
	movl	-12(%ebp), %eax
	movl	%eax, (%esp)
LEHB11:
	call	__ZN2sf8DrawableD2Ev
LEHE11:
	jmp	L445
L450:
	movl	%eax, -16(%ebp)
L446:
	movl	-16(%ebp), %esi
	movl	8(%ebp), %eax
	movl	%eax, -12(%ebp)
	movl	-12(%ebp), %eax
	movl	%eax, (%esp)
	call	__ZN2sf8DrawableD2Ev
	movl	%esi, -16(%ebp)
	movl	-16(%ebp), %eax
	movl	%eax, (%esp)
LEHB12:
	call	__Unwind_Resume
LEHE12:
L445:
	movl	$0, %eax
	testb	%al, %al
	je	L449
	movl	8(%ebp), %eax
	movl	%eax, (%esp)
	call	__ZdlPv
L449:
	addl	$32, %esp
	popl	%ebx
	popl	%esi
	leave
	ret
LFE2387:
	.section __TEXT,__gcc_except_tab
GCC_except_table3:
LLSDA2387:
	.byte	0xff
	.byte	0xff
	.byte	0x3
	.byte	0x27
	.set L$set$25,LEHB10-LFB2387
	.long L$set$25
	.set L$set$26,LEHE10-LEHB10
	.long L$set$26
	.set L$set$27,L450-LFB2387
	.long L$set$27
	.byte	0x0
	.set L$set$28,LEHB11-LFB2387
	.long L$set$28
	.set L$set$29,LEHE11-LEHB11
	.long L$set$29
	.long	0x0
	.byte	0x0
	.set L$set$30,LEHB12-LFB2387
	.long L$set$30
	.set L$set$31,LEHE12-LEHB12
	.long L$set$31
	.long	0x0
	.byte	0x0
	.section __TEXT,__textcoal_nt,coalesced,pure_instructions
	.text
	.align 1,0x90
.globl __ZN4Game13setBackgroundEv
__ZN4Game13setBackgroundEv:
LFB2384:
	.loc 5 100 0
	nop
	nop
	nop
	nop
	nop
	nop
	pushl	%ebp
LCFI521:
	movl	%esp, %ebp
LCFI522:
	pushl	%esi
LCFI523:
	pushl	%ebx
LCFI524:
	subl	$304, %esp
LCFI525:
	call	L460
"L00000000010$pb":
L460:
	popl	%ebx
LBB33:
	.loc 5 102 0
	leal	-72(%ebp), %eax
	movl	%eax, (%esp)
LEHB13:
	call	__ZN2sf5ImageC1Ev
LEHE13:
	.loc 5 104 0
	leal	L__ZL7BG_FILE$non_lazy_ptr-"L00000000010$pb"(%ebx), %eax
	movl	(%eax), %eax
	movl	%eax, 4(%esp)
	leal	-72(%ebp), %eax
	movl	%eax, (%esp)
LEHB14:
	call	__ZN2sf5Image12LoadFromFileERKSs
	testb	%al, %al
	je	L453
LBB34:
	.loc 5 106 0
	leal	-268(%ebp), %eax
	movl	%eax, (%esp)
	call	__ZN2sf6SpriteC1Ev
LEHE14:
	.loc 5 107 0
	leal	-72(%ebp), %eax
	movl	%eax, 4(%esp)
	leal	-268(%ebp), %eax
	movl	%eax, (%esp)
LEHB15:
	call	__ZN2sf6Sprite8SetImageERKNS_5ImageE
	.loc 5 109 0
	leal	LC5-"L00000000010$pb"(%ebx), %eax
	movl	(%eax), %eax
	movl	%eax, 8(%esp)
	leal	LC5-"L00000000010$pb"(%ebx), %eax
	movl	(%eax), %eax
	movl	%eax, 4(%esp)
	leal	-268(%ebp), %eax
	movl	%eax, (%esp)
	call	__ZN2sf8Drawable11SetPositionEff
	.loc 5 110 0
	movl	8(%ebp), %eax
	movl	840(%eax), %eax
	movl	668(%eax), %eax
	addl	$8, %eax
	movl	(%eax), %ecx
	movl	8(%ebp), %eax
	movl	840(%eax), %eax
	leal	668(%eax), %edx
	leal	-268(%ebp), %eax
	movl	%eax, 4(%esp)
	movl	%edx, (%esp)
	call	*%ecx
LEHE15:
	leal	-268(%ebp), %eax
	movl	%eax, (%esp)
LEHB16:
	call	__ZN2sf6SpriteD1Ev
LEHE16:
	jmp	L453
L458:
	movl	%eax, -284(%ebp)
L455:
	movl	-284(%ebp), %esi
	leal	-268(%ebp), %eax
	movl	%eax, (%esp)
	call	__ZN2sf6SpriteD1Ev
	movl	%esi, -284(%ebp)
	jmp	L456
L453:
LBE34:
	.loc 5 111 0
	leal	-72(%ebp), %eax
	movl	%eax, (%esp)
LEHB17:
	call	__ZN2sf5ImageD1Ev
LEHE17:
	.loc 5 112 0
	jmp	L457
L459:
	movl	%eax, -284(%ebp)
L456:
	movl	-284(%ebp), %esi
	.loc 5 111 0
	leal	-72(%ebp), %eax
	movl	%eax, (%esp)
	call	__ZN2sf5ImageD1Ev
	movl	%esi, -284(%ebp)
	movl	-284(%ebp), %eax
	movl	%eax, (%esp)
LEHB18:
	call	__Unwind_Resume
LEHE18:
L457:
LBE33:
	.loc 5 112 0
	addl	$304, %esp
	popl	%ebx
	popl	%esi
	leave
	ret
LFE2384:
	.section __TEXT,__gcc_except_tab
GCC_except_table4:
LLSDA2384:
	.byte	0xff
	.byte	0xff
	.byte	0x3
	.byte	0x4e
	.set L$set$32,LEHB13-LFB2384
	.long L$set$32
	.set L$set$33,LEHE13-LEHB13
	.long L$set$33
	.long	0x0
	.byte	0x0
	.set L$set$34,LEHB14-LFB2384
	.long L$set$34
	.set L$set$35,LEHE14-LEHB14
	.long L$set$35
	.set L$set$36,L459-LFB2384
	.long L$set$36
	.byte	0x0
	.set L$set$37,LEHB15-LFB2384
	.long L$set$37
	.set L$set$38,LEHE15-LEHB15
	.long L$set$38
	.set L$set$39,L458-LFB2384
	.long L$set$39
	.byte	0x0
	.set L$set$40,LEHB16-LFB2384
	.long L$set$40
	.set L$set$41,LEHE16-LEHB16
	.long L$set$41
	.set L$set$42,L459-LFB2384
	.long L$set$42
	.byte	0x0
	.set L$set$43,LEHB17-LFB2384
	.long L$set$43
	.set L$set$44,LEHE17-LEHB17
	.long L$set$44
	.long	0x0
	.byte	0x0
	.set L$set$45,LEHB18-LFB2384
	.long L$set$45
	.set L$set$46,LEHE18-LEHB18
	.long L$set$46
	.long	0x0
	.byte	0x0
	.text
	.section __TEXT,__textcoal_nt,coalesced,pure_instructions
	.align 1
.globl __ZNSt8_Rb_treeIPN2sf11ResourcePtrINS0_4FontEEES4_St9_IdentityIS4_ESt4lessIS4_ESaIS4_EE5eraseESt17_Rb_tree_iteratorIS4_E
	.weak_definition __ZNSt8_Rb_treeIPN2sf11ResourcePtrINS0_4FontEEES4_St9_IdentityIS4_ESt4lessIS4_ESaIS4_EE5eraseESt17_Rb_tree_iteratorIS4_E
	.private_extern __ZNSt8_Rb_treeIPN2sf11ResourcePtrINS0_4FontEEES4_St9_IdentityIS4_ESt4lessIS4_ESaIS4_EE5eraseESt17_Rb_tree_iteratorIS4_E
__ZNSt8_Rb_treeIPN2sf11ResourcePtrINS0_4FontEEES4_St9_IdentityIS4_ESt4lessIS4_ESaIS4_EE5eraseESt17_Rb_tree_iteratorIS4_E:
LFB2705:
	.loc 9 1244 0
	nop
	nop
	nop
	nop
	nop
	nop
	pushl	%ebp
LCFI526:
	movl	%esp, %ebp
LCFI527:
	subl	$40, %esp
LCFI528:
LBB35:
	.loc 9 1249 0
	movl	8(%ebp), %eax
	addl	$4, %eax
	movl	12(%ebp), %edx
	movl	%eax, 4(%esp)
	movl	%edx, (%esp)
	call	__ZSt28_Rb_tree_rebalance_for_erasePSt18_Rb_tree_node_baseRS_
	movl	%eax, -12(%ebp)
	.loc 9 1250 0
	movl	-12(%ebp), %eax
	movl	%eax, 4(%esp)
	movl	8(%ebp), %eax
	movl	%eax, (%esp)
	call	__ZNSt8_Rb_treeIPN2sf11ResourcePtrINS0_4FontEEES4_St9_IdentityIS4_ESt4lessIS4_ESaIS4_EE15_M_destroy_nodeEPSt13_Rb_tree_nodeIS4_E
	.loc 9 1251 0
	movl	8(%ebp), %eax
	movl	20(%eax), %eax
	leal	-1(%eax), %edx
	movl	8(%ebp), %eax
	movl	%edx, 20(%eax)
LBE35:
	leave
	ret
LFE2705:
	.align 1
.globl __ZNSt8_Rb_treeIPN2sf11ResourcePtrINS0_4FontEEES4_St9_IdentityIS4_ESt4lessIS4_ESaIS4_EE5eraseESt17_Rb_tree_iteratorIS4_ESC_
	.weak_definition __ZNSt8_Rb_treeIPN2sf11ResourcePtrINS0_4FontEEES4_St9_IdentityIS4_ESt4lessIS4_ESaIS4_EE5eraseESt17_Rb_tree_iteratorIS4_ESC_
__ZNSt8_Rb_treeIPN2sf11ResourcePtrINS0_4FontEEES4_St9_IdentityIS4_ESt4lessIS4_ESaIS4_EE5eraseESt17_Rb_tree_iteratorIS4_ESC_:
LFB2663:
	.loc 9 1336 0
	nop
	nop
	nop
	nop
	nop
	nop
	pushl	%ebp
LCFI529:
	movl	%esp, %ebp
LCFI530:
	subl	$56, %esp
LCFI531:
	.loc 9 1338 0
	movl	8(%ebp), %eax
	movl	%eax, (%esp)
	call	__ZNSt8_Rb_treeIPN2sf11ResourcePtrINS0_4FontEEES4_St9_IdentityIS4_ESt4lessIS4_ESaIS4_EE5beginEv
	movl	%eax, -16(%ebp)
	leal	-16(%ebp), %eax
	movl	%eax, 4(%esp)
	leal	12(%ebp), %eax
	movl	%eax, (%esp)
	call	__ZNKSt17_Rb_tree_iteratorIPN2sf11ResourcePtrINS0_4FontEEEEeqERKS5_
	xorl	$1, %eax
	testb	%al, %al
	jne	L464
	movl	8(%ebp), %eax
	movl	%eax, (%esp)
	call	__ZNSt8_Rb_treeIPN2sf11ResourcePtrINS0_4FontEEES4_St9_IdentityIS4_ESt4lessIS4_ESaIS4_EE3endEv
	movl	%eax, -12(%ebp)
	leal	-12(%ebp), %eax
	movl	%eax, 4(%esp)
	leal	16(%ebp), %eax
	movl	%eax, (%esp)
	call	__ZNKSt17_Rb_tree_iteratorIPN2sf11ResourcePtrINS0_4FontEEEEeqERKS5_
	xorl	$1, %eax
	testb	%al, %al
	jne	L464
	movb	$1, -25(%ebp)
	jmp	L467
L464:
	movb	$0, -25(%ebp)
L467:
	movzbl	-25(%ebp), %eax
	testb	%al, %al
	je	L471
	.loc 9 1339 0
	movl	8(%ebp), %eax
	movl	%eax, (%esp)
	call	__ZNSt8_Rb_treeIPN2sf11ResourcePtrINS0_4FontEEES4_St9_IdentityIS4_ESt4lessIS4_ESaIS4_EE5clearEv
	jmp	L473
L472:
	.loc 9 1342 0
	movl	$0, 4(%esp)
	leal	12(%ebp), %eax
	movl	%eax, (%esp)
	call	__ZNSt17_Rb_tree_iteratorIPN2sf11ResourcePtrINS0_4FontEEEEppEi
	movl	%eax, 4(%esp)
	movl	8(%ebp), %eax
	movl	%eax, (%esp)
	call	__ZNSt8_Rb_treeIPN2sf11ResourcePtrINS0_4FontEEES4_St9_IdentityIS4_ESt4lessIS4_ESaIS4_EE5eraseESt17_Rb_tree_iteratorIS4_E
L471:
	.loc 9 1341 0
	leal	16(%ebp), %eax
	movl	%eax, 4(%esp)
	leal	12(%ebp), %eax
	movl	%eax, (%esp)
	call	__ZNKSt17_Rb_tree_iteratorIPN2sf11ResourcePtrINS0_4FontEEEEneERKS5_
	testb	%al, %al
	jne	L472
L473:
	.loc 9 1342 0
	leave
	ret
LFE2663:
	.align 1
.globl __ZNSt8_Rb_treeIPN2sf11ResourcePtrINS0_4FontEEES4_St9_IdentityIS4_ESt4lessIS4_ESaIS4_EE5eraseERKS4_
	.weak_definition __ZNSt8_Rb_treeIPN2sf11ResourcePtrINS0_4FontEEES4_St9_IdentityIS4_ESt4lessIS4_ESaIS4_EE5eraseERKS4_
__ZNSt8_Rb_treeIPN2sf11ResourcePtrINS0_4FontEEES4_St9_IdentityIS4_ESt4lessIS4_ESaIS4_EE5eraseERKS4_:
LFB2627:
	.loc 9 1272 0
	nop
	nop
	nop
	nop
	nop
	nop
	pushl	%ebp
LCFI532:
	movl	%esp, %ebp
LCFI533:
	subl	$40, %esp
LCFI534:
LBB36:
	.loc 9 1274 0
	movl	12(%ebp), %eax
	movl	%eax, 4(%esp)
	movl	8(%ebp), %eax
	movl	%eax, (%esp)
	call	__ZNSt8_Rb_treeIPN2sf11ResourcePtrINS0_4FontEEES4_St9_IdentityIS4_ESt4lessIS4_ESaIS4_EE11equal_rangeERKS4_
	movl	%eax, -20(%ebp)
	movl	%edx, -16(%ebp)
	.loc 9 1275 0
	movl	8(%ebp), %eax
	movl	%eax, (%esp)
	call	__ZNKSt8_Rb_treeIPN2sf11ResourcePtrINS0_4FontEEES4_St9_IdentityIS4_ESt4lessIS4_ESaIS4_EE4sizeEv
	movl	%eax, -12(%ebp)
	.loc 9 1276 0
	movl	-16(%ebp), %eax
	movl	%eax, 8(%esp)
	movl	-20(%ebp), %eax
	movl	%eax, 4(%esp)
	movl	8(%ebp), %eax
	movl	%eax, (%esp)
	call	__ZNSt8_Rb_treeIPN2sf11ResourcePtrINS0_4FontEEES4_St9_IdentityIS4_ESt4lessIS4_ESaIS4_EE5eraseESt17_Rb_tree_iteratorIS4_ESC_
	.loc 9 1277 0
	movl	8(%ebp), %eax
	movl	%eax, (%esp)
	call	__ZNKSt8_Rb_treeIPN2sf11ResourcePtrINS0_4FontEEES4_St9_IdentityIS4_ESt4lessIS4_ESaIS4_EE4sizeEv
	movl	%eax, %edx
	movl	-12(%ebp), %eax
	subl	%edx, %eax
LBE36:
	leave
	ret
LFE2627:
	.align 1
.globl __ZNSt3setIPN2sf11ResourcePtrINS0_4FontEEESt4lessIS4_ESaIS4_EE5eraseERKS4_
	.weak_definition __ZNSt3setIPN2sf11ResourcePtrINS0_4FontEEESt4lessIS4_ESaIS4_EE5eraseERKS4_
	.private_extern __ZNSt3setIPN2sf11ResourcePtrINS0_4FontEEESt4lessIS4_ESaIS4_EE5eraseERKS4_
__ZNSt3setIPN2sf11ResourcePtrINS0_4FontEEESt4lessIS4_ESaIS4_EE5eraseERKS4_:
LFB2596:
	.loc 13 372 0
	nop
	nop
	nop
	nop
	nop
	nop
	pushl	%ebp
LCFI535:
	movl	%esp, %ebp
LCFI536:
	subl	$24, %esp
LCFI537:
	.loc 13 373 0
	movl	8(%ebp), %edx
	movl	12(%ebp), %eax
	movl	%eax, 4(%esp)
	movl	%edx, (%esp)
	call	__ZNSt8_Rb_treeIPN2sf11ResourcePtrINS0_4FontEEES4_St9_IdentityIS4_ESt4lessIS4_ESaIS4_EE5eraseERKS4_
	leave
	ret
LFE2596:
	.align 1
.globl __ZNK2sf8ResourceINS_4FontEE10DisconnectERNS_11ResourcePtrIS1_EE
	.weak_definition __ZNK2sf8ResourceINS_4FontEE10DisconnectERNS_11ResourcePtrIS1_EE
__ZNK2sf8ResourceINS_4FontEE10DisconnectERNS_11ResourcePtrIS1_EE:
LFB2556:
	.loc 22 85 0
	nop
	nop
	nop
	nop
	nop
	nop
	pushl	%ebp
LCFI538:
	movl	%esp, %ebp
LCFI539:
	subl	$40, %esp
LCFI540:
	.loc 22 87 0
	movl	12(%ebp), %eax
	movl	%eax, -12(%ebp)
	movl	8(%ebp), %edx
	leal	-12(%ebp), %eax
	movl	%eax, 4(%esp)
	movl	%edx, (%esp)
	call	__ZNSt3setIPN2sf11ResourcePtrINS0_4FontEEESt4lessIS4_ESaIS4_EE5eraseERKS4_
	leave
	ret
LFE2556:
	.align 1
.globl __ZN2sf11ResourcePtrINS_4FontEED1Ev
	.weak_definition __ZN2sf11ResourcePtrINS_4FontEED1Ev
__ZN2sf11ResourcePtrINS_4FontEED1Ev:
LFB2483:
	.loc 10 65 0
	nop
	nop
	nop
	nop
	nop
	nop
	pushl	%ebp
LCFI541:
	movl	%esp, %ebp
LCFI542:
	subl	$24, %esp
LCFI543:
	.loc 10 67 0
	movl	8(%ebp), %eax
	movl	(%eax), %eax
	testl	%eax, %eax
	je	L483
	.loc 10 68 0
	movl	8(%ebp), %eax
	movl	(%eax), %eax
	movl	%eax, %edx
	movl	8(%ebp), %eax
	movl	%eax, 4(%esp)
	movl	%edx, (%esp)
	call	__ZNK2sf8ResourceINS_4FontEE10DisconnectERNS_11ResourcePtrIS1_EE
L483:
	leave
	ret
LFE2483:
	.align 1
.globl __ZN2sf6StringD1Ev
	.weak_definition __ZN2sf6StringD1Ev
	.private_extern __ZN2sf6StringD1Ev
__ZN2sf6StringD1Ev:
LFB2401:
	.file 24 "/System/Library/Frameworks/SFML.framework/Headers/Graphics/String.hpp"
	.loc 24 45 0
	nop
	nop
	nop
	nop
	nop
	nop
	pushl	%ebp
LCFI544:
	movl	%esp, %ebp
LCFI545:
	pushl	%esi
LCFI546:
	pushl	%ebx
LCFI547:
	subl	$32, %esp
LCFI548:
	call	L493
"L00000000011$pb":
L493:
	popl	%ebx
	.loc 24 45 0
	leal	L__ZTVN2sf6StringE$non_lazy_ptr-"L00000000011$pb"(%ebx), %eax
	movl	(%eax), %eax
	leal	8(%eax), %eax
	movl	8(%ebp), %edx
	movl	%eax, (%edx)
	movl	8(%ebp), %eax
	addl	$176, %eax
	movl	%eax, (%esp)
LEHB19:
	call	__ZN2sf11ResourcePtrINS_4FontEED1Ev
LEHE19:
	movl	8(%ebp), %eax
	addl	$172, %eax
	movl	%eax, -16(%ebp)
	movl	-16(%ebp), %eax
	movl	%eax, (%esp)
	call	__ZN2sf7Unicode4TextD1Ev
	movl	8(%ebp), %eax
	movl	%eax, -12(%ebp)
	movl	-12(%ebp), %eax
	movl	%eax, (%esp)
LEHB20:
	call	__ZN2sf8DrawableD2Ev
LEHE20:
	jmp	L485
L491:
	movl	%eax, -20(%ebp)
L486:
	movl	-20(%ebp), %esi
	movl	8(%ebp), %eax
	addl	$172, %eax
	movl	%eax, -16(%ebp)
	movl	-16(%ebp), %eax
	movl	%eax, (%esp)
	call	__ZN2sf7Unicode4TextD1Ev
	movl	%esi, -20(%ebp)
L492:
L487:
	movl	-20(%ebp), %esi
	movl	8(%ebp), %eax
	movl	%eax, -12(%ebp)
	movl	-12(%ebp), %eax
	movl	%eax, (%esp)
	call	__ZN2sf8DrawableD2Ev
	movl	%esi, -20(%ebp)
	movl	-20(%ebp), %eax
	movl	%eax, (%esp)
LEHB21:
	call	__Unwind_Resume
LEHE21:
L485:
	movl	$0, %eax
	testb	%al, %al
	je	L490
	movl	8(%ebp), %eax
	movl	%eax, (%esp)
	call	__ZdlPv
L490:
	addl	$32, %esp
	popl	%ebx
	popl	%esi
	leave
	ret
LFE2401:
	.section __TEXT,__gcc_except_tab
GCC_except_table5:
LLSDA2401:
	.byte	0xff
	.byte	0xff
	.byte	0x3
	.byte	0x27
	.set L$set$47,LEHB19-LFB2401
	.long L$set$47
	.set L$set$48,LEHE19-LEHB19
	.long L$set$48
	.set L$set$49,L491-LFB2401
	.long L$set$49
	.byte	0x0
	.set L$set$50,LEHB20-LFB2401
	.long L$set$50
	.set L$set$51,LEHE20-LEHB20
	.long L$set$51
	.long	0x0
	.byte	0x0
	.set L$set$52,LEHB21-LFB2401
	.long L$set$52
	.set L$set$53,LEHE21-LEHB21
	.long L$set$53
	.long	0x0
	.byte	0x0
	.section __TEXT,__textcoal_nt,coalesced,pure_instructions
	.text
	.align 1,0x90
.globl __ZN4Game9showPieceE6BPieceii
__ZN4Game9showPieceE6BPieceii:
LFB2405:
	.loc 5 175 0
	nop
	nop
	nop
	nop
	nop
	nop
	pushl	%ebp
LCFI549:
	movl	%esp, %ebp
LCFI550:
	pushl	%edi
LCFI551:
	pushl	%esi
LCFI552:
	pushl	%ebx
LCFI553:
	subl	$364, %esp
LCFI554:
	call	L519
"L00000000012$pb":
L519:
	popl	%ebx
LBB37:
	.loc 5 177 0
	movl	12(%ebp), %eax
	movl	%eax, (%esp)
LEHB22:
	call	__ZN5Piece7getKindEv
	movl	%eax, -28(%ebp)
	.loc 5 178 0
	movl	12(%ebp), %eax
	movl	%eax, (%esp)
	call	__ZN5Piece14getOrientationEv
	movl	%eax, -32(%ebp)
	.loc 5 180 0
	leal	-124(%ebp), %eax
	movl	%eax, (%esp)
	call	__ZN2sf5ImageC1Ev
LEHE22:
	.loc 5 182 0
	leal	L__ZL10BLOCK_FILE$non_lazy_ptr-"L00000000012$pb"(%ebx), %eax
	movl	(%eax), %eax
	movl	%eax, 4(%esp)
	leal	-124(%ebp), %eax
	movl	%eax, (%esp)
LEHB23:
	call	__ZN2sf5Image12LoadFromFileERKSs
	testb	%al, %al
	je	L495
LBB38:
	.loc 5 184 0
	leal	-320(%ebp), %eax
	movl	%eax, (%esp)
	call	__ZN2sf6SpriteC1Ev
LEHE23:
	.loc 5 185 0
	leal	-124(%ebp), %eax
	movl	%eax, 4(%esp)
	leal	-320(%ebp), %eax
	movl	%eax, (%esp)
LEHB24:
	call	__ZN2sf6Sprite8SetImageERKNS_5ImageE
LBB39:
	.loc 5 187 0
	movl	$0, -36(%ebp)
	jmp	L497
L498:
LBB40:
	.loc 5 189 0
	movl	$0, -40(%ebp)
	jmp	L499
L500:
	.loc 5 191 0
	movl	-28(%ebp), %eax
	movl	-32(%ebp), %ecx
	movl	-40(%ebp), %esi
	movl	-36(%ebp), %edi
	leal	L__ZL6PIECES$non_lazy_ptr-"L00000000012$pb"(%ebx), %edx
	movl	(%edx), %edx
	sall	$2, %eax
	addl	%ecx, %eax
	sall	$2, %eax
	addl	%esi, %eax
	sall	$2, %eax
	addl	%edi, %eax
	movl	(%edx,%eax,4), %eax
	testl	%eax, %eax
	je	L501
	.loc 5 193 0
	cmpl	$6, -28(%ebp)
	ja	L503
	movl	-28(%ebp), %eax
	leal	0(,%eax,4), %edx
	leal	L511-"L00000000012$pb"(%ebx), %eax
	movl	(%edx,%eax), %eax
	addl	%ebx, %eax
	jmp	*%eax
	.align 2,0x90
L511:
	.long	L504-"L00000000012$pb"
	.long	L505-"L00000000012$pb"
	.long	L506-"L00000000012$pb"
	.long	L507-"L00000000012$pb"
	.long	L508-"L00000000012$pb"
	.long	L509-"L00000000012$pb"
	.long	L510-"L00000000012$pb"
L505:
	.loc 5 196 0
	movl	$255, 16(%esp)
	movl	$250, 12(%esp)
	movl	$250, 8(%esp)
	movl	$43, 4(%esp)
	leal	-44(%ebp), %eax
	movl	%eax, (%esp)
	call	__ZN2sf5ColorC1Ehhhh
	leal	-44(%ebp), %eax
	movl	%eax, 4(%esp)
	leal	-320(%ebp), %eax
	movl	%eax, (%esp)
	call	__ZN2sf8Drawable8SetColorERKNS_5ColorE
	.loc 5 197 0
	jmp	L503
L509:
	.loc 5 199 0
	leal	L__ZN2sf5Color4BlueE$non_lazy_ptr-"L00000000012$pb"(%ebx), %eax
	movl	(%eax), %eax
	movl	%eax, 4(%esp)
	leal	-320(%ebp), %eax
	movl	%eax, (%esp)
	call	__ZN2sf8Drawable8SetColorERKNS_5ColorE
	.loc 5 200 0
	jmp	L503
L508:
	.loc 5 202 0
	movl	$255, 16(%esp)
	movl	$16, 12(%esp)
	movl	$127, 8(%esp)
	movl	$237, 4(%esp)
	leal	-48(%ebp), %eax
	movl	%eax, (%esp)
	call	__ZN2sf5ColorC1Ehhhh
	leal	-48(%ebp), %eax
	movl	%eax, 4(%esp)
	leal	-320(%ebp), %eax
	movl	%eax, (%esp)
	call	__ZN2sf8Drawable8SetColorERKNS_5ColorE
	.loc 5 203 0
	jmp	L503
L504:
	.loc 5 205 0
	movl	$255, 16(%esp)
	movl	$60, 12(%esp)
	movl	$255, 8(%esp)
	movl	$247, 4(%esp)
	leal	-52(%ebp), %eax
	movl	%eax, (%esp)
	call	__ZN2sf5ColorC1Ehhhh
	leal	-52(%ebp), %eax
	movl	%eax, 4(%esp)
	leal	-320(%ebp), %eax
	movl	%eax, (%esp)
	call	__ZN2sf8Drawable8SetColorERKNS_5ColorE
	.loc 5 206 0
	jmp	L503
L506:
	.loc 5 208 0
	leal	L__ZN2sf5Color5GreenE$non_lazy_ptr-"L00000000012$pb"(%ebx), %eax
	movl	(%eax), %eax
	movl	%eax, 4(%esp)
	leal	-320(%ebp), %eax
	movl	%eax, (%esp)
	call	__ZN2sf8Drawable8SetColorERKNS_5ColorE
	.loc 5 209 0
	jmp	L503
L510:
	.loc 5 211 0
	movl	$255, 16(%esp)
	movl	$96, 12(%esp)
	movl	$24, 8(%esp)
	movl	$244, 4(%esp)
	leal	-56(%ebp), %eax
	movl	%eax, (%esp)
	call	__ZN2sf5ColorC1Ehhhh
	leal	-56(%ebp), %eax
	movl	%eax, 4(%esp)
	leal	-320(%ebp), %eax
	movl	%eax, (%esp)
	call	__ZN2sf8Drawable8SetColorERKNS_5ColorE
	.loc 5 212 0
	jmp	L503
L507:
	.loc 5 214 0
	movl	$255, 16(%esp)
	movl	$77, 12(%esp)
	movl	$94, 8(%esp)
	movl	$255, 4(%esp)
	leal	-60(%ebp), %eax
	movl	%eax, (%esp)
	call	__ZN2sf5ColorC1Ehhhh
	leal	-60(%ebp), %eax
	movl	%eax, 4(%esp)
	leal	-320(%ebp), %eax
	movl	%eax, (%esp)
	call	__ZN2sf8Drawable8SetColorERKNS_5ColorE
L503:
	.loc 5 220 0
	movl	-40(%ebp), %edx
	movl	%edx, %eax
	sall	$2, %eax
	addl	%edx, %eax
	sall	$2, %eax
	addl	20(%ebp), %eax
	cvtsi2ss	%eax, %xmm1
	movl	-36(%ebp), %edx
	movl	%edx, %eax
	sall	$2, %eax
	addl	%edx, %eax
	sall	$2, %eax
	addl	16(%ebp), %eax
	cvtsi2ss	%eax, %xmm0
	movss	%xmm1, 8(%esp)
	movss	%xmm0, 4(%esp)
	leal	-320(%ebp), %eax
	movl	%eax, (%esp)
	call	__ZN2sf8Drawable11SetPositionEff
	.loc 5 221 0
	movl	8(%ebp), %eax
	movl	840(%eax), %eax
	movl	668(%eax), %eax
	addl	$8, %eax
	movl	(%eax), %ecx
	movl	8(%ebp), %eax
	movl	840(%eax), %eax
	leal	668(%eax), %edx
	leal	-320(%ebp), %eax
	movl	%eax, 4(%esp)
	movl	%edx, (%esp)
	call	*%ecx
LEHE24:
L501:
	.loc 5 189 0
	incl	-40(%ebp)
L499:
	cmpl	$3, -40(%ebp)
	jle	L500
LBE40:
	.loc 5 187 0
	incl	-36(%ebp)
L497:
	cmpl	$3, -36(%ebp)
	jle	L498
LBE39:
	.loc 5 224 0
	leal	-320(%ebp), %eax
	movl	%eax, (%esp)
LEHB25:
	call	__ZN2sf6SpriteD1Ev
LEHE25:
	jmp	L495
L517:
	movl	%eax, -332(%ebp)
L514:
	movl	-332(%ebp), %esi
	leal	-320(%ebp), %eax
	movl	%eax, (%esp)
	call	__ZN2sf6SpriteD1Ev
	movl	%esi, -332(%ebp)
	jmp	L515
L495:
LBE38:
	.loc 5 225 0
	leal	-124(%ebp), %eax
	movl	%eax, (%esp)
LEHB26:
	call	__ZN2sf5ImageD1Ev
LEHE26:
	.loc 5 226 0
	jmp	L516
L518:
	movl	%eax, -332(%ebp)
L515:
	movl	-332(%ebp), %esi
	.loc 5 225 0
	leal	-124(%ebp), %eax
	movl	%eax, (%esp)
	call	__ZN2sf5ImageD1Ev
	movl	%esi, -332(%ebp)
	movl	-332(%ebp), %eax
	movl	%eax, (%esp)
LEHB27:
	call	__Unwind_Resume
LEHE27:
L516:
LBE37:
	.loc 5 226 0
	addl	$364, %esp
	popl	%ebx
	popl	%esi
	popl	%edi
	leave
	ret
LFE2405:
	.section __TEXT,__gcc_except_tab
GCC_except_table6:
LLSDA2405:
	.byte	0xff
	.byte	0xff
	.byte	0x3
	.byte	0x4e
	.set L$set$54,LEHB22-LFB2405
	.long L$set$54
	.set L$set$55,LEHE22-LEHB22
	.long L$set$55
	.long	0x0
	.byte	0x0
	.set L$set$56,LEHB23-LFB2405
	.long L$set$56
	.set L$set$57,LEHE23-LEHB23
	.long L$set$57
	.set L$set$58,L518-LFB2405
	.long L$set$58
	.byte	0x0
	.set L$set$59,LEHB24-LFB2405
	.long L$set$59
	.set L$set$60,LEHE24-LEHB24
	.long L$set$60
	.set L$set$61,L517-LFB2405
	.long L$set$61
	.byte	0x0
	.set L$set$62,LEHB25-LFB2405
	.long L$set$62
	.set L$set$63,LEHE25-LEHB25
	.long L$set$63
	.set L$set$64,L518-LFB2405
	.long L$set$64
	.byte	0x0
	.set L$set$65,LEHB26-LFB2405
	.long L$set$65
	.set L$set$66,LEHE26-LEHB26
	.long L$set$66
	.long	0x0
	.byte	0x0
	.set L$set$67,LEHB27-LFB2405
	.long L$set$67
	.set L$set$68,LEHE27-LEHB27
	.long L$set$68
	.long	0x0
	.byte	0x0
	.text
	.align 1,0x90
.globl __ZN4Game13showHoldPieceEv
__ZN4Game13showHoldPieceEv:
LFB2407:
	.loc 5 233 0
	nop
	nop
	nop
	nop
	nop
	nop
	pushl	%ebp
LCFI555:
	movl	%esp, %ebp
LCFI556:
	subl	$56, %esp
LCFI557:
	.loc 5 235 0
	movl	8(%ebp), %eax
	movzbl	924(%eax), %eax
	xorl	$1, %eax
	testb	%al, %al
	je	L523
	.loc 5 236 0
	leal	-28(%ebp), %edx
	movl	8(%ebp), %eax
	movl	%eax, 4(%esp)
	movl	%edx, (%esp)
	call	__ZN4Game12getHoldPieceEv
	subl	$4, %esp
	movl	$70, 12(%esp)
	movl	$40, 8(%esp)
	leal	-28(%ebp), %eax
	movl	%eax, 4(%esp)
	movl	8(%ebp), %eax
	movl	%eax, (%esp)
	call	__ZN4Game9showPieceE6BPieceii
L523:
	.loc 5 237 0
	leave
	ret
LFE2407:
	.align 1,0x90
.globl __ZN4Game13showNextPieceEv
__ZN4Game13showNextPieceEv:
LFB2406:
	.loc 5 228 0
	nop
	nop
	nop
	nop
	nop
	nop
	pushl	%ebp
LCFI558:
	movl	%esp, %ebp
LCFI559:
	subl	$56, %esp
LCFI560:
	.loc 5 230 0
	leal	-28(%ebp), %edx
	movl	8(%ebp), %eax
	movl	%eax, 4(%esp)
	movl	%edx, (%esp)
	call	__ZN4Game12getNextPieceEv
	subl	$4, %esp
	movl	$70, 12(%esp)
	movl	$460, 8(%esp)
	leal	-28(%ebp), %eax
	movl	%eax, 4(%esp)
	movl	8(%ebp), %eax
	movl	%eax, (%esp)
	call	__ZN4Game9showPieceE6BPieceii
	.loc 5 231 0
	leave
	ret
LFE2406:
	.section __TEXT,__textcoal_nt,coalesced,pure_instructions
	.align 1
.globl __ZN4Game8toStringEi
	.weak_definition __ZN4Game8toStringEi
	.private_extern __ZN4Game8toStringEi
__ZN4Game8toStringEi:
LFB2350:
	.loc 4 41 0
	nop
	nop
	nop
	nop
	nop
	nop
	pushl	%ebp
LCFI561:
	movl	%esp, %ebp
LCFI562:
	pushl	%esi
LCFI563:
	subl	$228, %esp
LCFI564:
LBB41:
	.loc 4 43 0
	movl	$16, 4(%esp)
	leal	-188(%ebp), %eax
	movl	%eax, (%esp)
LEHB28:
	call	__ZNSt19basic_ostringstreamIcSt11char_traitsIcESaIcEEC1ESt13_Ios_Openmode
LEHE28:
	.loc 4 45 0
	movl	16(%ebp), %eax
	movl	%eax, 4(%esp)
	leal	-188(%ebp), %eax
	movl	%eax, (%esp)
LEHB29:
	call	__ZNSolsEi
	.loc 4 47 0
	movl	8(%ebp), %edx
	leal	-188(%ebp), %eax
	movl	%eax, 4(%esp)
	movl	%edx, (%esp)
	call	__ZNKSt19basic_ostringstreamIcSt11char_traitsIcESaIcEE3strEv
LEHE29:
	subl	$4, %esp
	leal	-188(%ebp), %eax
	movl	%eax, (%esp)
LEHB30:
	call	__ZNSt19basic_ostringstreamIcSt11char_traitsIcESaIcEED1Ev
LEHE30:
	jmp	L526
L529:
	movl	%eax, -204(%ebp)
L527:
	movl	-204(%ebp), %esi
	leal	-188(%ebp), %eax
	movl	%eax, (%esp)
	call	__ZNSt19basic_ostringstreamIcSt11char_traitsIcESaIcEED1Ev
	movl	%esi, -204(%ebp)
	movl	-204(%ebp), %eax
	movl	%eax, (%esp)
LEHB31:
	call	__Unwind_Resume
LEHE31:
L526:
LBE41:
	.loc 4 48 0
	movl	8(%ebp), %eax
	movl	-4(%ebp), %esi
	leave
	ret	$4
LFE2350:
	.section __TEXT,__gcc_except_tab
GCC_except_table7:
LLSDA2350:
	.byte	0xff
	.byte	0xff
	.byte	0x3
	.byte	0x34
	.set L$set$69,LEHB28-LFB2350
	.long L$set$69
	.set L$set$70,LEHE28-LEHB28
	.long L$set$70
	.long	0x0
	.byte	0x0
	.set L$set$71,LEHB29-LFB2350
	.long L$set$71
	.set L$set$72,LEHE29-LEHB29
	.long L$set$72
	.set L$set$73,L529-LFB2350
	.long L$set$73
	.byte	0x0
	.set L$set$74,LEHB30-LFB2350
	.long L$set$74
	.set L$set$75,LEHE30-LEHB30
	.long L$set$75
	.long	0x0
	.byte	0x0
	.set L$set$76,LEHB31-LFB2350
	.long L$set$76
	.set L$set$77,LEHE31-LEHB31
	.long L$set$77
	.long	0x0
	.byte	0x0
	.section __TEXT,__textcoal_nt,coalesced,pure_instructions
.globl __ZStplIcSt11char_traitsIcESaIcEESbIT_T0_T1_EPKS3_RKS6_
	.weak_definition __ZStplIcSt11char_traitsIcESaIcEESbIT_T0_T1_EPKS3_RKS6_
__ZStplIcSt11char_traitsIcESaIcEESbIT_T0_T1_EPKS3_RKS6_:
LFB2484:
	.loc 17 675 0
	nop
	nop
	nop
	nop
	nop
	nop
	pushl	%ebp
LCFI565:
	movl	%esp, %ebp
LCFI566:
	pushl	%esi
LCFI567:
	subl	$52, %esp
LCFI568:
LBB42:
	.loc 17 680 0
	movl	12(%ebp), %eax
	movl	%eax, (%esp)
	call	__ZNSt11char_traitsIcE6lengthEPKc
	movl	%eax, -12(%ebp)
	.loc 17 681 0
	movl	8(%ebp), %eax
	movl	%eax, (%esp)
LEHB32:
	call	__ZNSsC1Ev
LEHE32:
	.loc 17 682 0
	movl	16(%ebp), %eax
	movl	%eax, (%esp)
LEHB33:
	call	__ZNKSs4sizeEv
	addl	-12(%ebp), %eax
	movl	8(%ebp), %edx
	movl	%eax, 4(%esp)
	movl	%edx, (%esp)
	call	__ZNSs7reserveEm
	.loc 17 683 0
	movl	8(%ebp), %eax
	movl	-12(%ebp), %edx
	movl	%edx, 8(%esp)
	movl	12(%ebp), %edx
	movl	%edx, 4(%esp)
	movl	%eax, (%esp)
	call	__ZNSs6appendEPKcm
	.loc 17 684 0
	movl	8(%ebp), %edx
	movl	16(%ebp), %eax
	movl	%eax, 4(%esp)
	movl	%edx, (%esp)
	call	__ZNSs6appendERKSs
LEHE33:
	jmp	L530
L533:
	movl	%eax, -28(%ebp)
L531:
	movl	-28(%ebp), %esi
	.loc 17 685 0
	movl	8(%ebp), %eax
	movl	%eax, (%esp)
	call	__ZNSsD1Ev
	movl	%esi, -28(%ebp)
	movl	-28(%ebp), %eax
	movl	%eax, (%esp)
LEHB34:
	call	__Unwind_Resume
LEHE34:
L530:
LBE42:
	movl	8(%ebp), %eax
	addl	$52, %esp
	popl	%esi
	leave
	ret	$4
LFE2484:
	.section __TEXT,__gcc_except_tab
GCC_except_table8:
LLSDA2484:
	.byte	0xff
	.byte	0xff
	.byte	0x3
	.byte	0x27
	.set L$set$78,LEHB32-LFB2484
	.long L$set$78
	.set L$set$79,LEHE32-LEHB32
	.long L$set$79
	.long	0x0
	.byte	0x0
	.set L$set$80,LEHB33-LFB2484
	.long L$set$80
	.set L$set$81,LEHE33-LEHB33
	.long L$set$81
	.set L$set$82,L533-LFB2484
	.long L$set$82
	.byte	0x0
	.set L$set$83,LEHB34-LFB2484
	.long L$set$83
	.set L$set$84,LEHE34-LEHB34
	.long L$set$84
	.long	0x0
	.byte	0x0
	.section __TEXT,__textcoal_nt,coalesced,pure_instructions
	.align 1
.globl __ZNSt23_Rb_tree_const_iteratorIPN2sf11ResourcePtrINS0_4FontEEEEppEv
	.weak_definition __ZNSt23_Rb_tree_const_iteratorIPN2sf11ResourcePtrINS0_4FontEEEEppEv
	.private_extern __ZNSt23_Rb_tree_const_iteratorIPN2sf11ResourcePtrINS0_4FontEEEEppEv
__ZNSt23_Rb_tree_const_iteratorIPN2sf11ResourcePtrINS0_4FontEEEEppEv:
LFB2539:
	.loc 9 258 0
	nop
	nop
	nop
	nop
	nop
	nop
	pushl	%ebp
LCFI569:
	movl	%esp, %ebp
LCFI570:
	subl	$24, %esp
LCFI571:
	.loc 9 260 0
	movl	8(%ebp), %eax
	movl	(%eax), %eax
	movl	%eax, (%esp)
	call	__ZSt18_Rb_tree_incrementPKSt18_Rb_tree_node_base
	movl	%eax, %edx
	movl	8(%ebp), %eax
	movl	%edx, (%eax)
	.loc 9 261 0
	movl	8(%ebp), %eax
	leave
	ret
LFE2539:
	.align 1
.globl __ZN2sf8ResourceINS_4FontEED2Ev
	.weak_definition __ZN2sf8ResourceINS_4FontEED2Ev
__ZN2sf8ResourceINS_4FontEED2Ev:
LFB2467:
	.loc 22 50 0
	nop
	nop
	nop
	nop
	nop
	nop
	pushl	%ebp
LCFI572:
	movl	%esp, %ebp
LCFI573:
	pushl	%esi
LCFI574:
	subl	$52, %esp
LCFI575:
LBB43:
	.loc 22 53 0
	movl	8(%ebp), %eax
	movl	%eax, (%esp)
	call	__ZNKSt3setIPN2sf11ResourcePtrINS0_4FontEEESt4lessIS4_ESaIS4_EE5beginEv
	movl	%eax, -16(%ebp)
	jmp	L537
L538:
	.loc 22 55 0
	leal	-16(%ebp), %eax
	movl	%eax, (%esp)
	call	__ZNKSt23_Rb_tree_const_iteratorIPN2sf11ResourcePtrINS0_4FontEEEEdeEv
	movl	(%eax), %eax
	movl	%eax, (%esp)
	call	__ZN2sf11ResourcePtrINS_4FontEE19OnResourceDestroyedEv
	.loc 22 53 0
	leal	-16(%ebp), %eax
	movl	%eax, (%esp)
LEHB35:
	call	__ZNSt23_Rb_tree_const_iteratorIPN2sf11ResourcePtrINS0_4FontEEEEppEv
LEHE35:
L537:
	movl	8(%ebp), %eax
	movl	%eax, (%esp)
	call	__ZNKSt3setIPN2sf11ResourcePtrINS0_4FontEEESt4lessIS4_ESaIS4_EE3endEv
	movl	%eax, -12(%ebp)
	leal	-12(%ebp), %eax
	movl	%eax, 4(%esp)
	leal	-16(%ebp), %eax
	movl	%eax, (%esp)
	call	__ZNKSt23_Rb_tree_const_iteratorIPN2sf11ResourcePtrINS0_4FontEEEEneERKS5_
	testb	%al, %al
	jne	L538
LBE43:
	.loc 22 55 0
	movl	8(%ebp), %eax
	movl	%eax, -28(%ebp)
	movl	-28(%ebp), %eax
	movl	%eax, (%esp)
LEHB36:
	call	__ZNSt3setIPN2sf11ResourcePtrINS0_4FontEEESt4lessIS4_ESaIS4_EED1Ev
LEHE36:
	jmp	L542
L543:
	movl	%eax, -32(%ebp)
L541:
	movl	-32(%ebp), %esi
	movl	8(%ebp), %eax
	movl	%eax, -28(%ebp)
	movl	-28(%ebp), %eax
	movl	%eax, (%esp)
	call	__ZNSt3setIPN2sf11ResourcePtrINS0_4FontEEESt4lessIS4_ESaIS4_EED1Ev
	movl	%esi, -32(%ebp)
	movl	-32(%ebp), %eax
	movl	%eax, (%esp)
LEHB37:
	call	__Unwind_Resume
LEHE37:
L542:
	addl	$52, %esp
	popl	%esi
	leave
	ret
LFE2467:
	.section __TEXT,__gcc_except_tab
GCC_except_table9:
LLSDA2467:
	.byte	0xff
	.byte	0xff
	.byte	0x3
	.byte	0x27
	.set L$set$85,LEHB35-LFB2467
	.long L$set$85
	.set L$set$86,LEHE35-LEHB35
	.long L$set$86
	.set L$set$87,L543-LFB2467
	.long L$set$87
	.byte	0x0
	.set L$set$88,LEHB36-LFB2467
	.long L$set$88
	.set L$set$89,LEHE36-LEHB36
	.long L$set$89
	.long	0x0
	.byte	0x0
	.set L$set$90,LEHB37-LFB2467
	.long L$set$90
	.set L$set$91,LEHE37-LEHB37
	.long L$set$91
	.long	0x0
	.byte	0x0
	.section __TEXT,__textcoal_nt,coalesced,pure_instructions
	.align 1
.globl __ZN2sf4FontD1Ev
	.weak_definition __ZN2sf4FontD1Ev
	.private_extern __ZN2sf4FontD1Ev
__ZN2sf4FontD1Ev:
LFB2395:
	.file 25 "/System/Library/Frameworks/SFML.framework/Headers/Graphics/Font.hpp"
	.loc 25 55 0
	nop
	nop
	nop
	nop
	nop
	nop
	pushl	%ebp
LCFI576:
	movl	%esp, %ebp
LCFI577:
	pushl	%esi
LCFI578:
	subl	$36, %esp
LCFI579:
	.loc 25 55 0
	movl	8(%ebp), %eax
	addl	$92, %eax
	movl	%eax, (%esp)
LEHB38:
	call	__ZNSt3mapIjN2sf5GlyphESt4lessIjESaISt4pairIKjS1_EEED1Ev
LEHE38:
	movl	8(%ebp), %eax
	addl	$24, %eax
	movl	%eax, -16(%ebp)
	movl	-16(%ebp), %eax
	movl	%eax, (%esp)
LEHB39:
	call	__ZN2sf5ImageD1Ev
LEHE39:
	jmp	L545
L550:
	movl	%eax, -20(%ebp)
L546:
	movl	-20(%ebp), %esi
	movl	8(%ebp), %eax
	addl	$24, %eax
	movl	%eax, -16(%ebp)
	movl	-16(%ebp), %eax
	movl	%eax, (%esp)
	call	__ZN2sf5ImageD1Ev
	movl	%esi, -20(%ebp)
	jmp	L548
L545:
	movl	8(%ebp), %eax
	movl	%eax, -12(%ebp)
	movl	-12(%ebp), %eax
	movl	%eax, (%esp)
LEHB40:
	call	__ZN2sf8ResourceINS_4FontEED2Ev
LEHE40:
	jmp	L549
L551:
	movl	%eax, -20(%ebp)
L548:
	movl	-20(%ebp), %esi
	movl	8(%ebp), %eax
	movl	%eax, -12(%ebp)
	movl	-12(%ebp), %eax
	movl	%eax, (%esp)
	call	__ZN2sf8ResourceINS_4FontEED2Ev
	movl	%esi, -20(%ebp)
	movl	-20(%ebp), %eax
	movl	%eax, (%esp)
LEHB41:
	call	__Unwind_Resume
LEHE41:
L549:
	addl	$36, %esp
	popl	%esi
	leave
	ret
LFE2395:
	.section __TEXT,__gcc_except_tab
GCC_except_table10:
LLSDA2395:
	.byte	0xff
	.byte	0xff
	.byte	0x3
	.byte	0x34
	.set L$set$92,LEHB38-LFB2395
	.long L$set$92
	.set L$set$93,LEHE38-LEHB38
	.long L$set$93
	.set L$set$94,L550-LFB2395
	.long L$set$94
	.byte	0x0
	.set L$set$95,LEHB39-LFB2395
	.long L$set$95
	.set L$set$96,LEHE39-LEHB39
	.long L$set$96
	.set L$set$97,L551-LFB2395
	.long L$set$97
	.byte	0x0
	.set L$set$98,LEHB40-LFB2395
	.long L$set$98
	.set L$set$99,LEHE40-LEHB40
	.long L$set$99
	.long	0x0
	.byte	0x0
	.set L$set$100,LEHB41-LFB2395
	.long L$set$100
	.set L$set$101,LEHE41-LEHB41
	.long L$set$101
	.long	0x0
	.byte	0x0
	.section __TEXT,__textcoal_nt,coalesced,pure_instructions
	.cstring
	.align 2
LC6:
	.ascii "/Library/Fonts/MyriadPro-Regular.otf\0"
LC7:
	.ascii "Lignes : \0"
	.text
	.align 1,0x90
.globl __ZN4Game18showLinesCompletedEv
__ZN4Game18showLinesCompletedEv:
LFB2404:
	.loc 5 155 0
	nop
	nop
	nop
	nop
	nop
	nop
	pushl	%ebp
LCFI580:
	movl	%esp, %ebp
LCFI581:
	pushl	%esi
LCFI582:
	pushl	%ebx
LCFI583:
	subl	$400, %esp
LCFI584:
	call	L575
"L00000000013$pb":
L575:
	popl	%ebx
LBB44:
	.loc 5 157 0
	movl	8(%ebp), %eax
	movl	%eax, (%esp)
	call	__ZN4Game17getLinesCompletedEv
	movl	%eax, -16(%ebp)
	.loc 5 158 0
	leal	-20(%ebp), %edx
	movl	-16(%ebp), %eax
	movl	%eax, 8(%esp)
	movl	8(%ebp), %eax
	movl	%eax, 4(%esp)
	movl	%edx, (%esp)
LEHB42:
	call	__ZN4Game8toStringEi
LEHE42:
	subl	$4, %esp
	.loc 5 160 0
	leal	-152(%ebp), %eax
	movl	%eax, (%esp)
LEHB43:
	call	__ZN2sf4FontC1Ev
LEHE43:
	.loc 5 162 0
	leal	L__ZN2sf4Font17ourDefaultCharsetE$non_lazy_ptr-"L00000000013$pb"(%ebx), %eax
	movl	(%eax), %eax
	movl	%eax, 4(%esp)
	leal	-28(%ebp), %eax
	movl	%eax, (%esp)
LEHB44:
	call	__ZN2sf7Unicode4TextC1EPKj
LEHE44:
	leal	-9(%ebp), %eax
	movl	%eax, (%esp)
	call	__ZNSaIcEC1Ev
	leal	-9(%ebp), %eax
	movl	%eax, 8(%esp)
	leal	LC6-"L00000000013$pb"(%ebx), %eax
	movl	%eax, 4(%esp)
	leal	-24(%ebp), %eax
	movl	%eax, (%esp)
LEHB45:
	call	__ZNSsC1EPKcRKSaIcE
LEHE45:
	leal	-28(%ebp), %eax
	movl	%eax, 12(%esp)
	movl	$30, 8(%esp)
	leal	-24(%ebp), %eax
	movl	%eax, 4(%esp)
	leal	-152(%ebp), %eax
	movl	%eax, (%esp)
LEHB46:
	call	__ZN2sf4Font12LoadFromFileERKSsjRKNS_7Unicode4TextE
LEHE46:
	movb	%al, -373(%ebp)
	leal	-24(%ebp), %eax
	movl	%eax, -368(%ebp)
	movl	-368(%ebp), %eax
	movl	%eax, (%esp)
LEHB47:
	call	__ZNSsD1Ev
LEHE47:
	jmp	L553
L570:
	movl	%eax, -380(%ebp)
L554:
	movl	-380(%ebp), %esi
	leal	-24(%ebp), %eax
	movl	%eax, -368(%ebp)
	movl	-368(%ebp), %eax
	movl	%eax, (%esp)
	call	__ZNSsD1Ev
	movl	%esi, -380(%ebp)
	jmp	L557
L553:
	leal	-9(%ebp), %eax
	movl	%eax, (%esp)
	call	__ZNSaIcED1Ev
	leal	-28(%ebp), %eax
	movl	%eax, -372(%ebp)
	movl	-372(%ebp), %eax
	movl	%eax, (%esp)
	call	__ZN2sf7Unicode4TextD1Ev
	cmpb	$0, -373(%ebp)
	jne	L555
	jmp	L556
L571:
	movl	%eax, -380(%ebp)
L557:
	movl	-380(%ebp), %esi
	leal	-9(%ebp), %eax
	movl	%eax, (%esp)
	call	__ZNSaIcED1Ev
	movl	%esi, -380(%ebp)
L572:
L558:
	movl	-380(%ebp), %esi
	leal	-28(%ebp), %eax
	movl	%eax, -372(%ebp)
	movl	-372(%ebp), %eax
	movl	%eax, (%esp)
	call	__ZN2sf7Unicode4TextD1Ev
	movl	%esi, -380(%ebp)
	jmp	L564
L555:
LBB45:
	.loc 5 164 0
	leal	-360(%ebp), %eax
	movl	%eax, (%esp)
LEHB48:
	call	__ZN2sf6StringC1Ev
LEHE48:
	.loc 5 165 0
	leal	-152(%ebp), %eax
	movl	%eax, 4(%esp)
	leal	-360(%ebp), %eax
	movl	%eax, (%esp)
LEHB49:
	call	__ZN2sf6String7SetFontERKNS_4FontE
	.loc 5 166 0
	leal	-32(%ebp), %eax
	leal	-20(%ebp), %edx
	movl	%edx, 8(%esp)
	leal	LC7-"L00000000013$pb"(%ebx), %edx
	movl	%edx, 4(%esp)
	movl	%eax, (%esp)
	call	__ZStplIcSt11char_traitsIcESaIcEESbIT_T0_T1_EPKS3_RKS6_
LEHE49:
	subl	$4, %esp
	leal	-32(%ebp), %eax
	movl	%eax, 4(%esp)
	leal	-36(%ebp), %eax
	movl	%eax, (%esp)
LEHB50:
	call	__ZN2sf7Unicode4TextC1ERKSs
LEHE50:
	leal	-36(%ebp), %eax
	movl	%eax, 4(%esp)
	leal	-360(%ebp), %eax
	movl	%eax, (%esp)
LEHB51:
	call	__ZN2sf6String7SetTextERKNS_7Unicode4TextE
LEHE51:
	leal	-36(%ebp), %eax
	movl	%eax, -364(%ebp)
	movl	-364(%ebp), %eax
	movl	%eax, (%esp)
	call	__ZN2sf7Unicode4TextD1Ev
	leal	-32(%ebp), %eax
	movl	%eax, (%esp)
LEHB52:
	call	__ZNSsD1Ev
LEHE52:
	jmp	L559
L567:
	movl	%eax, -380(%ebp)
L560:
	movl	-380(%ebp), %esi
	leal	-36(%ebp), %eax
	movl	%eax, -364(%ebp)
	movl	-364(%ebp), %eax
	movl	%eax, (%esp)
	call	__ZN2sf7Unicode4TextD1Ev
	movl	%esi, -380(%ebp)
	jmp	L561
L568:
	movl	%eax, -380(%ebp)
L561:
	movl	-380(%ebp), %esi
	leal	-32(%ebp), %eax
	movl	%eax, (%esp)
	call	__ZNSsD1Ev
	movl	%esi, -380(%ebp)
	jmp	L562
L559:
	.loc 5 167 0
	leal	LC8-"L00000000013$pb"(%ebx), %eax
	movl	(%eax), %eax
	movl	%eax, 4(%esp)
	leal	-360(%ebp), %eax
	movl	%eax, (%esp)
LEHB53:
	call	__ZN2sf6String7SetSizeEf
	.loc 5 168 0
	leal	L__ZN2sf5Color5BlackE$non_lazy_ptr-"L00000000013$pb"(%ebx), %eax
	movl	(%eax), %eax
	movl	%eax, 4(%esp)
	leal	-360(%ebp), %eax
	movl	%eax, (%esp)
	call	__ZN2sf8Drawable8SetColorERKNS_5ColorE
	.loc 5 169 0
	leal	LC9-"L00000000013$pb"(%ebx), %eax
	movl	(%eax), %eax
	movl	%eax, 8(%esp)
	leal	LC10-"L00000000013$pb"(%ebx), %eax
	movl	(%eax), %eax
	movl	%eax, 4(%esp)
	leal	-360(%ebp), %eax
	movl	%eax, (%esp)
	call	__ZN2sf8Drawable11SetPositionEff
	.loc 5 171 0
	movl	8(%ebp), %eax
	movl	840(%eax), %eax
	movl	668(%eax), %eax
	addl	$8, %eax
	movl	(%eax), %ecx
	movl	8(%ebp), %eax
	movl	840(%eax), %eax
	leal	668(%eax), %edx
	leal	-360(%ebp), %eax
	movl	%eax, 4(%esp)
	movl	%edx, (%esp)
	call	*%ecx
LEHE53:
	leal	-360(%ebp), %eax
	movl	%eax, (%esp)
LEHB54:
	call	__ZN2sf6StringD1Ev
LEHE54:
	jmp	L556
L569:
	movl	%eax, -380(%ebp)
L562:
	movl	-380(%ebp), %esi
	leal	-360(%ebp), %eax
	movl	%eax, (%esp)
	call	__ZN2sf6StringD1Ev
	movl	%esi, -380(%ebp)
	jmp	L564
L556:
LBE45:
	.loc 5 172 0
	leal	-152(%ebp), %eax
	movl	%eax, (%esp)
LEHB55:
	call	__ZN2sf4FontD1Ev
LEHE55:
	jmp	L563
L573:
	movl	%eax, -380(%ebp)
L564:
	movl	-380(%ebp), %esi
	leal	-152(%ebp), %eax
	movl	%eax, (%esp)
	call	__ZN2sf4FontD1Ev
	movl	%esi, -380(%ebp)
	jmp	L565
L563:
	leal	-20(%ebp), %eax
	movl	%eax, (%esp)
LEHB56:
	call	__ZNSsD1Ev
LEHE56:
	.loc 5 173 0
	jmp	L566
L574:
	movl	%eax, -380(%ebp)
L565:
	movl	-380(%ebp), %esi
	.loc 5 172 0
	leal	-20(%ebp), %eax
	movl	%eax, (%esp)
	call	__ZNSsD1Ev
	movl	%esi, -380(%ebp)
	movl	-380(%ebp), %eax
	movl	%eax, (%esp)
LEHB57:
	call	__Unwind_Resume
LEHE57:
L566:
LBE44:
	.loc 5 173 0
	leal	-8(%ebp), %esp
	popl	%ebx
	popl	%esi
	leave
	ret
LFE2404:
	.section __TEXT,__gcc_except_tab
GCC_except_table11:
LLSDA2404:
	.byte	0xff
	.byte	0xff
	.byte	0x3
	.byte	0xd0,0x1
	.set L$set$102,LEHB42-LFB2404
	.long L$set$102
	.set L$set$103,LEHE42-LEHB42
	.long L$set$103
	.long	0x0
	.byte	0x0
	.set L$set$104,LEHB43-LFB2404
	.long L$set$104
	.set L$set$105,LEHE43-LEHB43
	.long L$set$105
	.set L$set$106,L574-LFB2404
	.long L$set$106
	.byte	0x0
	.set L$set$107,LEHB44-LFB2404
	.long L$set$107
	.set L$set$108,LEHE44-LEHB44
	.long L$set$108
	.set L$set$109,L573-LFB2404
	.long L$set$109
	.byte	0x0
	.set L$set$110,LEHB45-LFB2404
	.long L$set$110
	.set L$set$111,LEHE45-LEHB45
	.long L$set$111
	.set L$set$112,L571-LFB2404
	.long L$set$112
	.byte	0x0
	.set L$set$113,LEHB46-LFB2404
	.long L$set$113
	.set L$set$114,LEHE46-LEHB46
	.long L$set$114
	.set L$set$115,L570-LFB2404
	.long L$set$115
	.byte	0x0
	.set L$set$116,LEHB47-LFB2404
	.long L$set$116
	.set L$set$117,LEHE47-LEHB47
	.long L$set$117
	.set L$set$118,L571-LFB2404
	.long L$set$118
	.byte	0x0
	.set L$set$119,LEHB48-LFB2404
	.long L$set$119
	.set L$set$120,LEHE48-LEHB48
	.long L$set$120
	.set L$set$121,L573-LFB2404
	.long L$set$121
	.byte	0x0
	.set L$set$122,LEHB49-LFB2404
	.long L$set$122
	.set L$set$123,LEHE49-LEHB49
	.long L$set$123
	.set L$set$124,L569-LFB2404
	.long L$set$124
	.byte	0x0
	.set L$set$125,LEHB50-LFB2404
	.long L$set$125
	.set L$set$126,LEHE50-LEHB50
	.long L$set$126
	.set L$set$127,L568-LFB2404
	.long L$set$127
	.byte	0x0
	.set L$set$128,LEHB51-LFB2404
	.long L$set$128
	.set L$set$129,LEHE51-LEHB51
	.long L$set$129
	.set L$set$130,L567-LFB2404
	.long L$set$130
	.byte	0x0
	.set L$set$131,LEHB52-LFB2404
	.long L$set$131
	.set L$set$132,LEHE52-LEHB52
	.long L$set$132
	.set L$set$133,L569-LFB2404
	.long L$set$133
	.byte	0x0
	.set L$set$134,LEHB53-LFB2404
	.long L$set$134
	.set L$set$135,LEHE53-LEHB53
	.long L$set$135
	.set L$set$136,L569-LFB2404
	.long L$set$136
	.byte	0x0
	.set L$set$137,LEHB54-LFB2404
	.long L$set$137
	.set L$set$138,LEHE54-LEHB54
	.long L$set$138
	.set L$set$139,L573-LFB2404
	.long L$set$139
	.byte	0x0
	.set L$set$140,LEHB55-LFB2404
	.long L$set$140
	.set L$set$141,LEHE55-LEHB55
	.long L$set$141
	.set L$set$142,L574-LFB2404
	.long L$set$142
	.byte	0x0
	.set L$set$143,LEHB56-LFB2404
	.long L$set$143
	.set L$set$144,LEHE56-LEHB56
	.long L$set$144
	.long	0x0
	.byte	0x0
	.set L$set$145,LEHB57-LFB2404
	.long L$set$145
	.set L$set$146,LEHE57-LEHB57
	.long L$set$146
	.long	0x0
	.byte	0x0
	.text
	.cstring
LC11:
	.ascii "Niveau : \0"
	.text
	.align 1,0x90
.globl __ZN4Game9showLevelEv
__ZN4Game9showLevelEv:
LFB2403:
	.loc 5 135 0
	nop
	nop
	nop
	nop
	nop
	nop
	pushl	%ebp
LCFI585:
	movl	%esp, %ebp
LCFI586:
	pushl	%esi
LCFI587:
	pushl	%ebx
LCFI588:
	subl	$400, %esp
LCFI589:
	call	L599
"L00000000014$pb":
L599:
	popl	%ebx
LBB46:
	.loc 5 137 0
	movl	8(%ebp), %eax
	movl	%eax, (%esp)
	call	__ZN4Game8getLevelEv
	movl	%eax, -16(%ebp)
	.loc 5 138 0
	leal	-20(%ebp), %edx
	movl	-16(%ebp), %eax
	movl	%eax, 8(%esp)
	movl	8(%ebp), %eax
	movl	%eax, 4(%esp)
	movl	%edx, (%esp)
LEHB58:
	call	__ZN4Game8toStringEi
LEHE58:
	subl	$4, %esp
	.loc 5 140 0
	leal	-152(%ebp), %eax
	movl	%eax, (%esp)
LEHB59:
	call	__ZN2sf4FontC1Ev
LEHE59:
	.loc 5 142 0
	leal	L__ZN2sf4Font17ourDefaultCharsetE$non_lazy_ptr-"L00000000014$pb"(%ebx), %eax
	movl	(%eax), %eax
	movl	%eax, 4(%esp)
	leal	-28(%ebp), %eax
	movl	%eax, (%esp)
LEHB60:
	call	__ZN2sf7Unicode4TextC1EPKj
LEHE60:
	leal	-9(%ebp), %eax
	movl	%eax, (%esp)
	call	__ZNSaIcEC1Ev
	leal	-9(%ebp), %eax
	movl	%eax, 8(%esp)
	leal	LC6-"L00000000014$pb"(%ebx), %eax
	movl	%eax, 4(%esp)
	leal	-24(%ebp), %eax
	movl	%eax, (%esp)
LEHB61:
	call	__ZNSsC1EPKcRKSaIcE
LEHE61:
	leal	-28(%ebp), %eax
	movl	%eax, 12(%esp)
	movl	$30, 8(%esp)
	leal	-24(%ebp), %eax
	movl	%eax, 4(%esp)
	leal	-152(%ebp), %eax
	movl	%eax, (%esp)
LEHB62:
	call	__ZN2sf4Font12LoadFromFileERKSsjRKNS_7Unicode4TextE
LEHE62:
	movb	%al, -373(%ebp)
	leal	-24(%ebp), %eax
	movl	%eax, -368(%ebp)
	movl	-368(%ebp), %eax
	movl	%eax, (%esp)
LEHB63:
	call	__ZNSsD1Ev
LEHE63:
	jmp	L577
L594:
	movl	%eax, -380(%ebp)
L578:
	movl	-380(%ebp), %esi
	leal	-24(%ebp), %eax
	movl	%eax, -368(%ebp)
	movl	-368(%ebp), %eax
	movl	%eax, (%esp)
	call	__ZNSsD1Ev
	movl	%esi, -380(%ebp)
	jmp	L581
L577:
	leal	-9(%ebp), %eax
	movl	%eax, (%esp)
	call	__ZNSaIcED1Ev
	leal	-28(%ebp), %eax
	movl	%eax, -372(%ebp)
	movl	-372(%ebp), %eax
	movl	%eax, (%esp)
	call	__ZN2sf7Unicode4TextD1Ev
	cmpb	$0, -373(%ebp)
	jne	L579
	jmp	L580
L595:
	movl	%eax, -380(%ebp)
L581:
	movl	-380(%ebp), %esi
	leal	-9(%ebp), %eax
	movl	%eax, (%esp)
	call	__ZNSaIcED1Ev
	movl	%esi, -380(%ebp)
L596:
L582:
	movl	-380(%ebp), %esi
	leal	-28(%ebp), %eax
	movl	%eax, -372(%ebp)
	movl	-372(%ebp), %eax
	movl	%eax, (%esp)
	call	__ZN2sf7Unicode4TextD1Ev
	movl	%esi, -380(%ebp)
	jmp	L588
L579:
LBB47:
	.loc 5 144 0
	leal	-360(%ebp), %eax
	movl	%eax, (%esp)
LEHB64:
	call	__ZN2sf6StringC1Ev
LEHE64:
	.loc 5 145 0
	leal	-152(%ebp), %eax
	movl	%eax, 4(%esp)
	leal	-360(%ebp), %eax
	movl	%eax, (%esp)
LEHB65:
	call	__ZN2sf6String7SetFontERKNS_4FontE
	.loc 5 146 0
	leal	-32(%ebp), %eax
	leal	-20(%ebp), %edx
	movl	%edx, 8(%esp)
	leal	LC11-"L00000000014$pb"(%ebx), %edx
	movl	%edx, 4(%esp)
	movl	%eax, (%esp)
	call	__ZStplIcSt11char_traitsIcESaIcEESbIT_T0_T1_EPKS3_RKS6_
LEHE65:
	subl	$4, %esp
	leal	-32(%ebp), %eax
	movl	%eax, 4(%esp)
	leal	-36(%ebp), %eax
	movl	%eax, (%esp)
LEHB66:
	call	__ZN2sf7Unicode4TextC1ERKSs
LEHE66:
	leal	-36(%ebp), %eax
	movl	%eax, 4(%esp)
	leal	-360(%ebp), %eax
	movl	%eax, (%esp)
LEHB67:
	call	__ZN2sf6String7SetTextERKNS_7Unicode4TextE
LEHE67:
	leal	-36(%ebp), %eax
	movl	%eax, -364(%ebp)
	movl	-364(%ebp), %eax
	movl	%eax, (%esp)
	call	__ZN2sf7Unicode4TextD1Ev
	leal	-32(%ebp), %eax
	movl	%eax, (%esp)
LEHB68:
	call	__ZNSsD1Ev
LEHE68:
	jmp	L583
L591:
	movl	%eax, -380(%ebp)
L584:
	movl	-380(%ebp), %esi
	leal	-36(%ebp), %eax
	movl	%eax, -364(%ebp)
	movl	-364(%ebp), %eax
	movl	%eax, (%esp)
	call	__ZN2sf7Unicode4TextD1Ev
	movl	%esi, -380(%ebp)
	jmp	L585
L592:
	movl	%eax, -380(%ebp)
L585:
	movl	-380(%ebp), %esi
	leal	-32(%ebp), %eax
	movl	%eax, (%esp)
	call	__ZNSsD1Ev
	movl	%esi, -380(%ebp)
	jmp	L586
L583:
	.loc 5 147 0
	leal	LC8-"L00000000014$pb"(%ebx), %eax
	movl	(%eax), %eax
	movl	%eax, 4(%esp)
	leal	-360(%ebp), %eax
	movl	%eax, (%esp)
LEHB69:
	call	__ZN2sf6String7SetSizeEf
	.loc 5 148 0
	leal	L__ZN2sf5Color5BlackE$non_lazy_ptr-"L00000000014$pb"(%ebx), %eax
	movl	(%eax), %eax
	movl	%eax, 4(%esp)
	leal	-360(%ebp), %eax
	movl	%eax, (%esp)
	call	__ZN2sf8Drawable8SetColorERKNS_5ColorE
	.loc 5 149 0
	leal	LC12-"L00000000014$pb"(%ebx), %eax
	movl	(%eax), %eax
	movl	%eax, 8(%esp)
	leal	LC10-"L00000000014$pb"(%ebx), %eax
	movl	(%eax), %eax
	movl	%eax, 4(%esp)
	leal	-360(%ebp), %eax
	movl	%eax, (%esp)
	call	__ZN2sf8Drawable11SetPositionEff
	.loc 5 151 0
	movl	8(%ebp), %eax
	movl	840(%eax), %eax
	movl	668(%eax), %eax
	addl	$8, %eax
	movl	(%eax), %ecx
	movl	8(%ebp), %eax
	movl	840(%eax), %eax
	leal	668(%eax), %edx
	leal	-360(%ebp), %eax
	movl	%eax, 4(%esp)
	movl	%edx, (%esp)
	call	*%ecx
LEHE69:
	leal	-360(%ebp), %eax
	movl	%eax, (%esp)
LEHB70:
	call	__ZN2sf6StringD1Ev
LEHE70:
	jmp	L580
L593:
	movl	%eax, -380(%ebp)
L586:
	movl	-380(%ebp), %esi
	leal	-360(%ebp), %eax
	movl	%eax, (%esp)
	call	__ZN2sf6StringD1Ev
	movl	%esi, -380(%ebp)
	jmp	L588
L580:
LBE47:
	.loc 5 152 0
	leal	-152(%ebp), %eax
	movl	%eax, (%esp)
LEHB71:
	call	__ZN2sf4FontD1Ev
LEHE71:
	jmp	L587
L597:
	movl	%eax, -380(%ebp)
L588:
	movl	-380(%ebp), %esi
	leal	-152(%ebp), %eax
	movl	%eax, (%esp)
	call	__ZN2sf4FontD1Ev
	movl	%esi, -380(%ebp)
	jmp	L589
L587:
	leal	-20(%ebp), %eax
	movl	%eax, (%esp)
LEHB72:
	call	__ZNSsD1Ev
LEHE72:
	.loc 5 153 0
	jmp	L590
L598:
	movl	%eax, -380(%ebp)
L589:
	movl	-380(%ebp), %esi
	.loc 5 152 0
	leal	-20(%ebp), %eax
	movl	%eax, (%esp)
	call	__ZNSsD1Ev
	movl	%esi, -380(%ebp)
	movl	-380(%ebp), %eax
	movl	%eax, (%esp)
LEHB73:
	call	__Unwind_Resume
LEHE73:
L590:
LBE46:
	.loc 5 153 0
	leal	-8(%ebp), %esp
	popl	%ebx
	popl	%esi
	leave
	ret
LFE2403:
	.section __TEXT,__gcc_except_tab
GCC_except_table12:
LLSDA2403:
	.byte	0xff
	.byte	0xff
	.byte	0x3
	.byte	0xd0,0x1
	.set L$set$147,LEHB58-LFB2403
	.long L$set$147
	.set L$set$148,LEHE58-LEHB58
	.long L$set$148
	.long	0x0
	.byte	0x0
	.set L$set$149,LEHB59-LFB2403
	.long L$set$149
	.set L$set$150,LEHE59-LEHB59
	.long L$set$150
	.set L$set$151,L598-LFB2403
	.long L$set$151
	.byte	0x0
	.set L$set$152,LEHB60-LFB2403
	.long L$set$152
	.set L$set$153,LEHE60-LEHB60
	.long L$set$153
	.set L$set$154,L597-LFB2403
	.long L$set$154
	.byte	0x0
	.set L$set$155,LEHB61-LFB2403
	.long L$set$155
	.set L$set$156,LEHE61-LEHB61
	.long L$set$156
	.set L$set$157,L595-LFB2403
	.long L$set$157
	.byte	0x0
	.set L$set$158,LEHB62-LFB2403
	.long L$set$158
	.set L$set$159,LEHE62-LEHB62
	.long L$set$159
	.set L$set$160,L594-LFB2403
	.long L$set$160
	.byte	0x0
	.set L$set$161,LEHB63-LFB2403
	.long L$set$161
	.set L$set$162,LEHE63-LEHB63
	.long L$set$162
	.set L$set$163,L595-LFB2403
	.long L$set$163
	.byte	0x0
	.set L$set$164,LEHB64-LFB2403
	.long L$set$164
	.set L$set$165,LEHE64-LEHB64
	.long L$set$165
	.set L$set$166,L597-LFB2403
	.long L$set$166
	.byte	0x0
	.set L$set$167,LEHB65-LFB2403
	.long L$set$167
	.set L$set$168,LEHE65-LEHB65
	.long L$set$168
	.set L$set$169,L593-LFB2403
	.long L$set$169
	.byte	0x0
	.set L$set$170,LEHB66-LFB2403
	.long L$set$170
	.set L$set$171,LEHE66-LEHB66
	.long L$set$171
	.set L$set$172,L592-LFB2403
	.long L$set$172
	.byte	0x0
	.set L$set$173,LEHB67-LFB2403
	.long L$set$173
	.set L$set$174,LEHE67-LEHB67
	.long L$set$174
	.set L$set$175,L591-LFB2403
	.long L$set$175
	.byte	0x0
	.set L$set$176,LEHB68-LFB2403
	.long L$set$176
	.set L$set$177,LEHE68-LEHB68
	.long L$set$177
	.set L$set$178,L593-LFB2403
	.long L$set$178
	.byte	0x0
	.set L$set$179,LEHB69-LFB2403
	.long L$set$179
	.set L$set$180,LEHE69-LEHB69
	.long L$set$180
	.set L$set$181,L593-LFB2403
	.long L$set$181
	.byte	0x0
	.set L$set$182,LEHB70-LFB2403
	.long L$set$182
	.set L$set$183,LEHE70-LEHB70
	.long L$set$183
	.set L$set$184,L597-LFB2403
	.long L$set$184
	.byte	0x0
	.set L$set$185,LEHB71-LFB2403
	.long L$set$185
	.set L$set$186,LEHE71-LEHB71
	.long L$set$186
	.set L$set$187,L598-LFB2403
	.long L$set$187
	.byte	0x0
	.set L$set$188,LEHB72-LFB2403
	.long L$set$188
	.set L$set$189,LEHE72-LEHB72
	.long L$set$189
	.long	0x0
	.byte	0x0
	.set L$set$190,LEHB73-LFB2403
	.long L$set$190
	.set L$set$191,LEHE73-LEHB73
	.long L$set$191
	.long	0x0
	.byte	0x0
	.text
	.align 1,0x90
.globl __ZN4Game9showScoreEv
__ZN4Game9showScoreEv:
LFB2389:
	.loc 5 114 0
	nop
	nop
	nop
	nop
	nop
	nop
	pushl	%ebp
LCFI590:
	movl	%esp, %ebp
LCFI591:
	pushl	%esi
LCFI592:
	pushl	%ebx
LCFI593:
	subl	$384, %esp
LCFI594:
	call	L616
"L00000000015$pb":
L616:
	popl	%ebx
LBB48:
	.loc 5 116 0
	movl	8(%ebp), %eax
	movl	%eax, (%esp)
	call	__ZN4Game8getScoreEv
	movl	%eax, -12(%ebp)
	.loc 5 118 0
	leal	-16(%ebp), %edx
	movl	-12(%ebp), %eax
	movl	%eax, 8(%esp)
	movl	8(%ebp), %eax
	movl	%eax, 4(%esp)
	movl	%edx, (%esp)
LEHB74:
	call	__ZN4Game8toStringEi
LEHE74:
	subl	$4, %esp
	.loc 5 120 0
	leal	-140(%ebp), %eax
	movl	%eax, (%esp)
LEHB75:
	call	__ZN2sf4FontC1Ev
LEHE75:
	.loc 5 122 0
	leal	L__ZN2sf4Font17ourDefaultCharsetE$non_lazy_ptr-"L00000000015$pb"(%ebx), %eax
	movl	(%eax), %eax
	movl	%eax, 4(%esp)
	leal	-20(%ebp), %eax
	movl	%eax, (%esp)
LEHB76:
	call	__ZN2sf7Unicode4TextC1EPKj
LEHE76:
	leal	-20(%ebp), %eax
	movl	%eax, 12(%esp)
	movl	$30, 8(%esp)
	leal	L__ZL14DIGITAL_POLICE$non_lazy_ptr-"L00000000015$pb"(%ebx), %eax
	movl	(%eax), %eax
	movl	%eax, 4(%esp)
	leal	-140(%ebp), %eax
	movl	%eax, (%esp)
LEHB77:
	call	__ZN2sf4Font12LoadFromFileERKSsjRKNS_7Unicode4TextE
LEHE77:
	movl	%eax, %esi
	leal	-20(%ebp), %eax
	movl	%eax, -368(%ebp)
	movl	-368(%ebp), %eax
	movl	%eax, (%esp)
	call	__ZN2sf7Unicode4TextD1Ev
	movl	%esi, %eax
	testb	%al, %al
	jne	L601
	jmp	L602
L613:
	movl	%eax, -372(%ebp)
L603:
	movl	-372(%ebp), %esi
	leal	-20(%ebp), %eax
	movl	%eax, -368(%ebp)
	movl	-368(%ebp), %eax
	movl	%eax, (%esp)
	call	__ZN2sf7Unicode4TextD1Ev
	movl	%esi, -372(%ebp)
	jmp	L608
L601:
LBB49:
	.loc 5 124 0
	leal	-348(%ebp), %eax
	movl	%eax, (%esp)
LEHB78:
	call	__ZN2sf6StringC1Ev
LEHE78:
	.loc 5 125 0
	leal	-140(%ebp), %eax
	movl	%eax, 4(%esp)
	leal	-348(%ebp), %eax
	movl	%eax, (%esp)
LEHB79:
	call	__ZN2sf6String7SetFontERKNS_4FontE
	.loc 5 126 0
	leal	-16(%ebp), %eax
	movl	%eax, 4(%esp)
	leal	-24(%ebp), %eax
	movl	%eax, (%esp)
	call	__ZN2sf7Unicode4TextC1ERKSs
LEHE79:
	leal	-24(%ebp), %eax
	movl	%eax, 4(%esp)
	leal	-348(%ebp), %eax
	movl	%eax, (%esp)
LEHB80:
	call	__ZN2sf6String7SetTextERKNS_7Unicode4TextE
LEHE80:
	leal	-24(%ebp), %eax
	movl	%eax, -364(%ebp)
	movl	-364(%ebp), %eax
	movl	%eax, (%esp)
	call	__ZN2sf7Unicode4TextD1Ev
	.loc 5 127 0
	leal	LC13-"L00000000015$pb"(%ebx), %eax
	movl	(%eax), %eax
	movl	%eax, 4(%esp)
	leal	-348(%ebp), %eax
	movl	%eax, (%esp)
LEHB81:
	call	__ZN2sf6String7SetSizeEf
	jmp	L604
L611:
	movl	%eax, -372(%ebp)
L605:
	movl	-372(%ebp), %esi
	.loc 5 126 0
	leal	-24(%ebp), %eax
	movl	%eax, -364(%ebp)
	movl	-364(%ebp), %eax
	movl	%eax, (%esp)
	call	__ZN2sf7Unicode4TextD1Ev
	movl	%esi, -372(%ebp)
	jmp	L606
L604:
	.loc 5 128 0
	leal	L__ZN2sf5Color5BlackE$non_lazy_ptr-"L00000000015$pb"(%ebx), %eax
	movl	(%eax), %eax
	movl	%eax, 4(%esp)
	leal	-348(%ebp), %eax
	movl	%eax, (%esp)
	call	__ZN2sf8Drawable8SetColorERKNS_5ColorE
	.loc 5 129 0
	leal	LC14-"L00000000015$pb"(%ebx), %eax
	movl	(%eax), %eax
	movl	%eax, 8(%esp)
	leal	LC15-"L00000000015$pb"(%ebx), %eax
	movl	(%eax), %eax
	movl	%eax, 4(%esp)
	leal	-348(%ebp), %eax
	movl	%eax, (%esp)
	call	__ZN2sf8Drawable11SetPositionEff
	.loc 5 131 0
	movl	8(%ebp), %eax
	movl	840(%eax), %eax
	movl	668(%eax), %eax
	addl	$8, %eax
	movl	(%eax), %ecx
	movl	8(%ebp), %eax
	movl	840(%eax), %eax
	leal	668(%eax), %edx
	leal	-348(%ebp), %eax
	movl	%eax, 4(%esp)
	movl	%edx, (%esp)
	call	*%ecx
LEHE81:
	leal	-348(%ebp), %eax
	movl	%eax, (%esp)
LEHB82:
	call	__ZN2sf6StringD1Ev
LEHE82:
	jmp	L602
L612:
	movl	%eax, -372(%ebp)
L606:
	movl	-372(%ebp), %esi
	leal	-348(%ebp), %eax
	movl	%eax, (%esp)
	call	__ZN2sf6StringD1Ev
	movl	%esi, -372(%ebp)
	jmp	L608
L602:
LBE49:
	.loc 5 132 0
	leal	-140(%ebp), %eax
	movl	%eax, (%esp)
LEHB83:
	call	__ZN2sf4FontD1Ev
LEHE83:
	jmp	L607
L614:
	movl	%eax, -372(%ebp)
L608:
	movl	-372(%ebp), %esi
	leal	-140(%ebp), %eax
	movl	%eax, (%esp)
	call	__ZN2sf4FontD1Ev
	movl	%esi, -372(%ebp)
	jmp	L609
L607:
	leal	-16(%ebp), %eax
	movl	%eax, (%esp)
LEHB84:
	call	__ZNSsD1Ev
LEHE84:
	.loc 5 133 0
	jmp	L610
L615:
	movl	%eax, -372(%ebp)
L609:
	movl	-372(%ebp), %esi
	.loc 5 132 0
	leal	-16(%ebp), %eax
	movl	%eax, (%esp)
	call	__ZNSsD1Ev
	movl	%esi, -372(%ebp)
	movl	-372(%ebp), %eax
	movl	%eax, (%esp)
LEHB85:
	call	__Unwind_Resume
LEHE85:
L610:
LBE48:
	.loc 5 133 0
	leal	-8(%ebp), %esp
	popl	%ebx
	popl	%esi
	leave
	ret
LFE2389:
	.section __TEXT,__gcc_except_tab
GCC_except_table13:
LLSDA2389:
	.byte	0xff
	.byte	0xff
	.byte	0x3
	.byte	0x9c,0x1
	.set L$set$192,LEHB74-LFB2389
	.long L$set$192
	.set L$set$193,LEHE74-LEHB74
	.long L$set$193
	.long	0x0
	.byte	0x0
	.set L$set$194,LEHB75-LFB2389
	.long L$set$194
	.set L$set$195,LEHE75-LEHB75
	.long L$set$195
	.set L$set$196,L615-LFB2389
	.long L$set$196
	.byte	0x0
	.set L$set$197,LEHB76-LFB2389
	.long L$set$197
	.set L$set$198,LEHE76-LEHB76
	.long L$set$198
	.set L$set$199,L614-LFB2389
	.long L$set$199
	.byte	0x0
	.set L$set$200,LEHB77-LFB2389
	.long L$set$200
	.set L$set$201,LEHE77-LEHB77
	.long L$set$201
	.set L$set$202,L613-LFB2389
	.long L$set$202
	.byte	0x0
	.set L$set$203,LEHB78-LFB2389
	.long L$set$203
	.set L$set$204,LEHE78-LEHB78
	.long L$set$204
	.set L$set$205,L614-LFB2389
	.long L$set$205
	.byte	0x0
	.set L$set$206,LEHB79-LFB2389
	.long L$set$206
	.set L$set$207,LEHE79-LEHB79
	.long L$set$207
	.set L$set$208,L612-LFB2389
	.long L$set$208
	.byte	0x0
	.set L$set$209,LEHB80-LFB2389
	.long L$set$209
	.set L$set$210,LEHE80-LEHB80
	.long L$set$210
	.set L$set$211,L611-LFB2389
	.long L$set$211
	.byte	0x0
	.set L$set$212,LEHB81-LFB2389
	.long L$set$212
	.set L$set$213,LEHE81-LEHB81
	.long L$set$213
	.set L$set$214,L612-LFB2389
	.long L$set$214
	.byte	0x0
	.set L$set$215,LEHB82-LFB2389
	.long L$set$215
	.set L$set$216,LEHE82-LEHB82
	.long L$set$216
	.set L$set$217,L614-LFB2389
	.long L$set$217
	.byte	0x0
	.set L$set$218,LEHB83-LFB2389
	.long L$set$218
	.set L$set$219,LEHE83-LEHB83
	.long L$set$219
	.set L$set$220,L615-LFB2389
	.long L$set$220
	.byte	0x0
	.set L$set$221,LEHB84-LFB2389
	.long L$set$221
	.set L$set$222,LEHE84-LEHB84
	.long L$set$222
	.long	0x0
	.byte	0x0
	.set L$set$223,LEHB85-LFB2389
	.long L$set$223
	.set L$set$224,LEHE85-LEHB85
	.long L$set$224
	.long	0x0
	.byte	0x0
	.text
	.align 1,0x90
.globl __ZN4Game6renderEv
__ZN4Game6renderEv:
LFB2408:
	.loc 5 239 0
	nop
	nop
	nop
	nop
	nop
	nop
	pushl	%ebp
LCFI595:
	movl	%esp, %ebp
LCFI596:
	pushl	%esi
LCFI597:
	pushl	%ebx
LCFI598:
	subl	$352, %esp
LCFI599:
	call	L643
"L00000000016$pb":
L643:
	popl	%ebx
LBB50:
	.loc 5 241 0
	movl	$255, 16(%esp)
	movl	$175, 12(%esp)
	movl	$175, 8(%esp)
	movl	$175, 4(%esp)
	leal	-12(%ebp), %eax
	movl	%eax, (%esp)
LEHB86:
	call	__ZN2sf5ColorC1Ehhhh
	movl	8(%ebp), %eax
	movl	840(%eax), %eax
	leal	668(%eax), %edx
	leal	-12(%ebp), %eax
	movl	%eax, 4(%esp)
	movl	%edx, (%esp)
	call	__ZN2sf12RenderTarget5ClearERKNS_5ColorE
	.loc 5 242 0
	leal	-108(%ebp), %eax
	movl	%eax, (%esp)
	call	__ZN2sf5ImageC1Ev
LEHE86:
	.loc 5 244 0
	movl	8(%ebp), %eax
	movl	%eax, (%esp)
LEHB87:
	call	__ZN4Game13setBackgroundEv
	.loc 5 246 0
	leal	L__ZL10BLOCK_FILE$non_lazy_ptr-"L00000000016$pb"(%ebx), %eax
	movl	(%eax), %eax
	movl	%eax, 4(%esp)
	leal	-108(%ebp), %eax
	movl	%eax, (%esp)
	call	__ZN2sf5Image12LoadFromFileERKSs
	testb	%al, %al
	je	L618
LBB51:
	.loc 5 248 0
	leal	-304(%ebp), %eax
	movl	%eax, (%esp)
	call	__ZN2sf6SpriteC1Ev
LEHE87:
	.loc 5 249 0
	leal	-108(%ebp), %eax
	movl	%eax, 4(%esp)
	leal	-304(%ebp), %eax
	movl	%eax, (%esp)
LEHB88:
	call	__ZN2sf6Sprite8SetImageERKNS_5ImageE
LBB52:
	.loc 5 251 0
	movl	$0, -16(%ebp)
	jmp	L620
L621:
LBB53:
	.loc 5 253 0
	movl	$0, -20(%ebp)
	jmp	L622
L623:
	.loc 5 255 0
	movl	-16(%ebp), %edx
	movl	-20(%ebp), %ecx
	movl	8(%ebp), %esi
	movl	%edx, %eax
	sall	$2, %eax
	addl	%edx, %eax
	sall	$2, %eax
	addl	%ecx, %eax
	movl	40(%esi,%eax,4), %eax
	testl	%eax, %eax
	je	L624
	.loc 5 257 0
	movl	-16(%ebp), %edx
	movl	-20(%ebp), %ecx
	movl	8(%ebp), %esi
	movl	%edx, %eax
	sall	$2, %eax
	addl	%edx, %eax
	sall	$2, %eax
	addl	%ecx, %eax
	movl	40(%esi,%eax,4), %eax
	movl	%eax, -316(%ebp)
	cmpl	$8, -316(%ebp)
	ja	L626
	movl	-316(%ebp), %edx
	sall	$2, %edx
	leal	L635-"L00000000016$pb"(%ebx), %eax
	movl	(%edx,%eax), %eax
	addl	%ebx, %eax
	jmp	*%eax
	.align 2,0x90
L635:
	.long	L626-"L00000000016$pb"
	.long	L627-"L00000000016$pb"
	.long	L628-"L00000000016$pb"
	.long	L629-"L00000000016$pb"
	.long	L630-"L00000000016$pb"
	.long	L631-"L00000000016$pb"
	.long	L632-"L00000000016$pb"
	.long	L633-"L00000000016$pb"
	.long	L634-"L00000000016$pb"
L627:
	.loc 5 260 0
	movl	$255, 16(%esp)
	movl	$250, 12(%esp)
	movl	$250, 8(%esp)
	movl	$43, 4(%esp)
	leal	-24(%ebp), %eax
	movl	%eax, (%esp)
	call	__ZN2sf5ColorC1Ehhhh
	leal	-24(%ebp), %eax
	movl	%eax, 4(%esp)
	leal	-304(%ebp), %eax
	movl	%eax, (%esp)
	call	__ZN2sf8Drawable8SetColorERKNS_5ColorE
	.loc 5 261 0
	jmp	L626
L628:
	.loc 5 263 0
	leal	L__ZN2sf5Color4BlueE$non_lazy_ptr-"L00000000016$pb"(%ebx), %eax
	movl	(%eax), %eax
	movl	%eax, 4(%esp)
	leal	-304(%ebp), %eax
	movl	%eax, (%esp)
	call	__ZN2sf8Drawable8SetColorERKNS_5ColorE
	.loc 5 264 0
	jmp	L626
L629:
	.loc 5 266 0
	movl	$255, 16(%esp)
	movl	$16, 12(%esp)
	movl	$127, 8(%esp)
	movl	$237, 4(%esp)
	leal	-28(%ebp), %eax
	movl	%eax, (%esp)
	call	__ZN2sf5ColorC1Ehhhh
	leal	-28(%ebp), %eax
	movl	%eax, 4(%esp)
	leal	-304(%ebp), %eax
	movl	%eax, (%esp)
	call	__ZN2sf8Drawable8SetColorERKNS_5ColorE
	.loc 5 267 0
	jmp	L626
L630:
	.loc 5 269 0
	movl	$255, 16(%esp)
	movl	$60, 12(%esp)
	movl	$255, 8(%esp)
	movl	$247, 4(%esp)
	leal	-32(%ebp), %eax
	movl	%eax, (%esp)
	call	__ZN2sf5ColorC1Ehhhh
	leal	-32(%ebp), %eax
	movl	%eax, 4(%esp)
	leal	-304(%ebp), %eax
	movl	%eax, (%esp)
	call	__ZN2sf8Drawable8SetColorERKNS_5ColorE
	.loc 5 270 0
	jmp	L626
L631:
	.loc 5 272 0
	leal	L__ZN2sf5Color5GreenE$non_lazy_ptr-"L00000000016$pb"(%ebx), %eax
	movl	(%eax), %eax
	movl	%eax, 4(%esp)
	leal	-304(%ebp), %eax
	movl	%eax, (%esp)
	call	__ZN2sf8Drawable8SetColorERKNS_5ColorE
	.loc 5 273 0
	jmp	L626
L632:
	.loc 5 275 0
	movl	$255, 16(%esp)
	movl	$96, 12(%esp)
	movl	$24, 8(%esp)
	movl	$244, 4(%esp)
	leal	-36(%ebp), %eax
	movl	%eax, (%esp)
	call	__ZN2sf5ColorC1Ehhhh
	leal	-36(%ebp), %eax
	movl	%eax, 4(%esp)
	leal	-304(%ebp), %eax
	movl	%eax, (%esp)
	call	__ZN2sf8Drawable8SetColorERKNS_5ColorE
	.loc 5 276 0
	jmp	L626
L633:
	.loc 5 278 0
	movl	$255, 16(%esp)
	movl	$77, 12(%esp)
	movl	$94, 8(%esp)
	movl	$255, 4(%esp)
	leal	-40(%ebp), %eax
	movl	%eax, (%esp)
	call	__ZN2sf5ColorC1Ehhhh
	leal	-40(%ebp), %eax
	movl	%eax, 4(%esp)
	leal	-304(%ebp), %eax
	movl	%eax, (%esp)
	call	__ZN2sf8Drawable8SetColorERKNS_5ColorE
	.loc 5 279 0
	jmp	L626
L634:
	.loc 5 281 0
	movl	$128, 16(%esp)
	movl	$255, 12(%esp)
	movl	$255, 8(%esp)
	movl	$255, 4(%esp)
	leal	-44(%ebp), %eax
	movl	%eax, (%esp)
	call	__ZN2sf5ColorC1Ehhhh
	leal	-44(%ebp), %eax
	movl	%eax, 4(%esp)
	leal	-304(%ebp), %eax
	movl	%eax, (%esp)
	call	__ZN2sf8Drawable8SetColorERKNS_5ColorE
L626:
	.loc 5 287 0
	movl	-20(%ebp), %edx
	movl	%edx, %eax
	sall	$2, %eax
	addl	%edx, %eax
	sall	$2, %eax
	addl	$50, %eax
	cvtsi2ss	%eax, %xmm1
	movl	-16(%ebp), %edx
	movl	%edx, %eax
	sall	$2, %eax
	addl	%edx, %eax
	sall	$2, %eax
	addl	$200, %eax
	cvtsi2ss	%eax, %xmm0
	movss	%xmm1, 8(%esp)
	movss	%xmm0, 4(%esp)
	leal	-304(%ebp), %eax
	movl	%eax, (%esp)
	call	__ZN2sf8Drawable11SetPositionEff
	.loc 5 288 0
	movl	8(%ebp), %eax
	movl	840(%eax), %eax
	movl	668(%eax), %eax
	addl	$8, %eax
	movl	(%eax), %ecx
	movl	8(%ebp), %eax
	movl	840(%eax), %eax
	leal	668(%eax), %edx
	leal	-304(%ebp), %eax
	movl	%eax, 4(%esp)
	movl	%edx, (%esp)
	call	*%ecx
LEHE88:
L624:
	.loc 5 253 0
	incl	-20(%ebp)
L622:
	cmpl	$19, -20(%ebp)
	jle	L623
LBE53:
	.loc 5 251 0
	incl	-16(%ebp)
L620:
	cmpl	$9, -16(%ebp)
	jle	L621
LBE52:
	.loc 5 291 0
	leal	-304(%ebp), %eax
	movl	%eax, (%esp)
LEHB89:
	call	__ZN2sf6SpriteD1Ev
LEHE89:
	jmp	L618
L641:
	movl	%eax, -320(%ebp)
L638:
	movl	-320(%ebp), %esi
	leal	-304(%ebp), %eax
	movl	%eax, (%esp)
	call	__ZN2sf6SpriteD1Ev
	movl	%esi, -320(%ebp)
	jmp	L639
L618:
LBE51:
	.loc 5 294 0
	movl	8(%ebp), %eax
	movl	%eax, (%esp)
LEHB90:
	call	__ZN4Game9showScoreEv
	.loc 5 295 0
	movl	8(%ebp), %eax
	movl	%eax, (%esp)
	call	__ZN4Game9showLevelEv
	.loc 5 296 0
	movl	8(%ebp), %eax
	movl	%eax, (%esp)
	call	__ZN4Game18showLinesCompletedEv
LEHE90:
	leal	-108(%ebp), %eax
	movl	%eax, (%esp)
LEHB91:
	call	__ZN2sf5ImageD1Ev
LEHE91:
	.loc 5 297 0
	jmp	L640
L642:
	movl	%eax, -320(%ebp)
L639:
	movl	-320(%ebp), %esi
	.loc 5 296 0
	leal	-108(%ebp), %eax
	movl	%eax, (%esp)
	call	__ZN2sf5ImageD1Ev
	movl	%esi, -320(%ebp)
	movl	-320(%ebp), %eax
	movl	%eax, (%esp)
LEHB92:
	call	__Unwind_Resume
LEHE92:
L640:
LBE50:
	.loc 5 297 0
	addl	$352, %esp
	popl	%ebx
	popl	%esi
	leave
	ret
LFE2408:
	.section __TEXT,__gcc_except_tab
GCC_except_table14:
LLSDA2408:
	.byte	0xff
	.byte	0xff
	.byte	0x3
	.byte	0x5b
	.set L$set$225,LEHB86-LFB2408
	.long L$set$225
	.set L$set$226,LEHE86-LEHB86
	.long L$set$226
	.long	0x0
	.byte	0x0
	.set L$set$227,LEHB87-LFB2408
	.long L$set$227
	.set L$set$228,LEHE87-LEHB87
	.long L$set$228
	.set L$set$229,L642-LFB2408
	.long L$set$229
	.byte	0x0
	.set L$set$230,LEHB88-LFB2408
	.long L$set$230
	.set L$set$231,LEHE88-LEHB88
	.long L$set$231
	.set L$set$232,L641-LFB2408
	.long L$set$232
	.byte	0x0
	.set L$set$233,LEHB89-LFB2408
	.long L$set$233
	.set L$set$234,LEHE89-LEHB89
	.long L$set$234
	.set L$set$235,L642-LFB2408
	.long L$set$235
	.byte	0x0
	.set L$set$236,LEHB90-LFB2408
	.long L$set$236
	.set L$set$237,LEHE90-LEHB90
	.long L$set$237
	.set L$set$238,L642-LFB2408
	.long L$set$238
	.byte	0x0
	.set L$set$239,LEHB91-LFB2408
	.long L$set$239
	.set L$set$240,LEHE91-LEHB91
	.long L$set$240
	.long	0x0
	.byte	0x0
	.set L$set$241,LEHB92-LFB2408
	.long L$set$241
	.set L$set$242,LEHE92-LEHB92
	.long L$set$242
	.long	0x0
	.byte	0x0
	.text
	.align 1,0x90
.globl __ZN4Game18enableCurrentPieceEv
__ZN4Game18enableCurrentPieceEv:
LFB2380:
	.loc 5 63 0
	nop
	nop
	nop
	nop
	nop
	nop
	pushl	%ebp
LCFI600:
	movl	%esp, %ebp
LCFI601:
	subl	$56, %esp
LCFI602:
	.loc 5 65 0
	leal	-28(%ebp), %edx
	movl	8(%ebp), %eax
	movl	%eax, 4(%esp)
	movl	%edx, (%esp)
	call	__ZN4Game19getCurrentGamePieceEv
	subl	$4, %esp
	movl	8(%ebp), %edx
	leal	-28(%ebp), %eax
	movl	%eax, 4(%esp)
	movl	%edx, (%esp)
	call	__ZN5Board8newPieceE6BPiece
	.loc 5 66 0
	leave
	ret
LFE2380:
	.align 1,0x90
.globl __ZN4Game16restoreHoldPieceEv
__ZN4Game16restoreHoldPieceEv:
LFB2382:
	.loc 5 76 0
	nop
	nop
	nop
	nop
	nop
	nop
	pushl	%ebp
LCFI603:
	movl	%esp, %ebp
LCFI604:
	subl	$88, %esp
LCFI605:
LBB54:
	.loc 5 78 0
	leal	-28(%ebp), %edx
	movl	8(%ebp), %eax
	movl	%eax, 4(%esp)
	movl	%edx, (%esp)
	call	__ZN4Game12getHoldPieceEv
	subl	$4, %esp
	.loc 5 79 0
	leal	-48(%ebp), %edx
	movl	8(%ebp), %eax
	movl	%eax, 4(%esp)
	movl	%edx, (%esp)
	call	__ZN4Game19getCurrentGamePieceEv
	subl	$4, %esp
	leal	-48(%ebp), %eax
	movl	%eax, 4(%esp)
	movl	8(%ebp), %eax
	movl	%eax, (%esp)
	call	__ZN4Game12setHoldPieceE6BPiece
	.loc 5 80 0
	leal	-28(%ebp), %eax
	movl	%eax, 4(%esp)
	leal	-68(%ebp), %eax
	movl	%eax, (%esp)
	call	__ZN6BPieceC1ERKS_
	leal	-68(%ebp), %eax
	movl	%eax, 4(%esp)
	movl	8(%ebp), %eax
	movl	%eax, (%esp)
	call	__ZN4Game19setCurrentGamePieceE6BPiece
	.loc 5 81 0
	movl	8(%ebp), %eax
	movl	%eax, (%esp)
	call	__ZN4Game18enableCurrentPieceEv
LBE54:
	.loc 5 82 0
	leave
	ret
LFE2382:
	.align 1,0x90
.globl __ZN4Game16holdCurrentPieceEv
__ZN4Game16holdCurrentPieceEv:
LFB2383:
	.loc 5 84 0
	nop
	nop
	nop
	nop
	nop
	nop
	pushl	%ebp
LCFI606:
	movl	%esp, %ebp
LCFI607:
	subl	$104, %esp
LCFI608:
	.loc 5 86 0
	movl	8(%ebp), %eax
	leal	-28(%ebp), %edx
	movl	%eax, 4(%esp)
	movl	%edx, (%esp)
	call	__ZN5Board15getCurrentPieceEv
	subl	$4, %esp
	movl	8(%ebp), %edx
	leal	-28(%ebp), %eax
	movl	%eax, 4(%esp)
	movl	%edx, (%esp)
	call	__ZN5Board10clearPieceE6BPiece
	.loc 5 87 0
	movl	8(%ebp), %eax
	leal	-48(%ebp), %edx
	movl	%eax, 4(%esp)
	movl	%edx, (%esp)
	call	__ZN5Board20getCurrentGhostPieceEv
	subl	$4, %esp
	movl	8(%ebp), %edx
	leal	-48(%ebp), %eax
	movl	%eax, 4(%esp)
	movl	%edx, (%esp)
	call	__ZN5Board10clearPieceE6BPiece
	.loc 5 89 0
	movl	8(%ebp), %eax
	movzbl	924(%eax), %eax
	xorl	$1, %eax
	testb	%al, %al
	je	L649
	.loc 5 90 0
	movl	8(%ebp), %eax
	movl	%eax, (%esp)
	call	__ZN4Game16restoreHoldPieceEv
	jmp	L652
L649:
	.loc 5 93 0
	leal	-68(%ebp), %edx
	movl	8(%ebp), %eax
	movl	%eax, 4(%esp)
	movl	%edx, (%esp)
	call	__ZN4Game19getCurrentGamePieceEv
	subl	$4, %esp
	leal	-68(%ebp), %eax
	movl	%eax, 4(%esp)
	movl	8(%ebp), %eax
	movl	%eax, (%esp)
	call	__ZN4Game12setHoldPieceE6BPiece
	.loc 5 94 0
	leal	-88(%ebp), %edx
	movl	8(%ebp), %eax
	movl	%eax, 4(%esp)
	movl	%edx, (%esp)
	call	__ZN4Game12getNextPieceEv
	subl	$4, %esp
	leal	-88(%ebp), %eax
	movl	%eax, 4(%esp)
	movl	8(%ebp), %eax
	movl	%eax, (%esp)
	call	__ZN4Game19setCurrentGamePieceE6BPiece
	.loc 5 95 0
	movl	8(%ebp), %eax
	movl	%eax, (%esp)
	call	__ZN4Game18enableCurrentPieceEv
	.loc 5 96 0
	movl	8(%ebp), %eax
	movb	$0, 924(%eax)
L652:
	.loc 5 98 0
	leave
	ret
LFE2383:
	.section __TEXT,__textcoal_nt,coalesced,pure_instructions
	.align 1
.globl __ZN6BPieceC1E5Piece
	.weak_definition __ZN6BPieceC1E5Piece
	.private_extern __ZN6BPieceC1E5Piece
__ZN6BPieceC1E5Piece:
LFB2342:
	.loc 21 32 0
	nop
	nop
	nop
	nop
	nop
	nop
	pushl	%ebp
LCFI609:
	movl	%esp, %ebp
LCFI610:
	subl	$24, %esp
LCFI611:
LBB55:
	.loc 21 32 0
	movl	8(%ebp), %edx
	movl	12(%ebp), %eax
	movl	%eax, 4(%esp)
	movl	%edx, (%esp)
	call	__ZN5PieceC2ERKS_
LBE55:
	leave
	ret
LFE2342:
	.text
	.align 1,0x90
.globl __ZN4Game14createNewPieceEv
__ZN4Game14createNewPieceEv:
LFB2379:
	.loc 5 53 0
	nop
	nop
	nop
	nop
	nop
	nop
	pushl	%ebp
LCFI612:
	movl	%esp, %ebp
LCFI613:
	pushl	%esi
LCFI614:
	subl	$68, %esp
LCFI615:
	movl	8(%ebp), %esi
LBB56:
	.loc 5 55 0
	movl	$6, 4(%esp)
	movl	$0, (%esp)
	call	__ZN2sf10Randomizer6RandomEii
	movl	%eax, -12(%ebp)
	.loc 5 56 0
	movl	$3, 4(%esp)
	movl	$0, (%esp)
	call	__ZN2sf10Randomizer6RandomEii
	movl	%eax, -16(%ebp)
	.loc 5 58 0
	movl	-16(%ebp), %eax
	movl	%eax, 8(%esp)
	movl	-12(%ebp), %eax
	movl	%eax, 4(%esp)
	leal	-28(%ebp), %eax
	movl	%eax, (%esp)
	call	__ZN5PieceC1Eii
	movl	%esi, %edx
	leal	-28(%ebp), %eax
	movl	%eax, 4(%esp)
	movl	%edx, (%esp)
	call	__ZN6BPieceC1E5Piece
LBE56:
	.loc 5 61 0
	movl	%esi, %eax
	addl	$68, %esp
	popl	%esi
	leave
	ret	$4
LFE2379:
	.cstring
LC16:
	.ascii "GAME OVER\0"
	.text
	.align 1,0x90
.globl __ZN4Game4playEv
__ZN4Game4playEv:
LFB2409:
	.loc 5 299 0
	nop
	nop
	nop
	nop
	nop
	nop
	pushl	%ebp
LCFI616:
	movl	%esp, %ebp
LCFI617:
	pushl	%ebx
LCFI618:
	subl	$212, %esp
LCFI619:
	call	L686
"L00000000017$pb":
L686:
	popl	%ebx
LBB57:
	.loc 5 301 0
	leal	-76(%ebp), %edx
	movl	8(%ebp), %eax
	movl	%eax, 4(%esp)
	movl	%edx, (%esp)
	call	__ZN4Game14createNewPieceEv
	subl	$4, %esp
	leal	-76(%ebp), %eax
	movl	%eax, 4(%esp)
	movl	8(%ebp), %eax
	movl	%eax, (%esp)
	call	__ZN4Game19setCurrentGamePieceE6BPiece
	.loc 5 302 0
	leal	-96(%ebp), %edx
	movl	8(%ebp), %eax
	movl	%eax, 4(%esp)
	movl	%edx, (%esp)
	call	__ZN4Game14createNewPieceEv
	subl	$4, %esp
	leal	-96(%ebp), %eax
	movl	%eax, 4(%esp)
	movl	8(%ebp), %eax
	movl	%eax, (%esp)
	call	__ZN4Game12setNextPieceE6BPiece
	.loc 5 304 0
	movl	8(%ebp), %eax
	movl	%eax, (%esp)
	call	__ZN4Game18enableCurrentPieceEv
	.loc 5 306 0
	movl	$0, 4(%esp)
	movl	8(%ebp), %eax
	movl	%eax, (%esp)
	call	__ZN4Game17setLinesCompletedEi
	.loc 5 307 0
	movl	$0, 4(%esp)
	movl	8(%ebp), %eax
	movl	%eax, (%esp)
	call	__ZN4Game8setLevelEi
	.loc 5 308 0
	movl	8(%ebp), %eax
	movl	%eax, (%esp)
	call	__ZN4Game25computeFallIterationDelayEv
	fstps	4(%esp)
	movl	8(%ebp), %eax
	movl	%eax, (%esp)
	call	__ZN4Game21setFallIterationDelayEf
	.loc 5 309 0
	movl	$0, 4(%esp)
	movl	8(%ebp), %eax
	movl	%eax, (%esp)
	call	__ZN4Game8setScoreEi
	.loc 5 311 0
	leal	-40(%ebp), %eax
	movl	%eax, (%esp)
	call	__ZN2sf5ClockC1Ev
	.loc 5 312 0
	leal	-40(%ebp), %eax
	movl	%eax, (%esp)
	call	__ZN2sf5Clock5ResetEv
	.loc 5 314 0
	leal	LC5-"L00000000017$pb"(%ebx), %eax
	movl	(%eax), %eax
	movl	%eax, -12(%ebp)
	leal	LC5-"L00000000017$pb"(%ebx), %eax
	movl	(%eax), %eax
	movl	%eax, -16(%ebp)
	.loc 5 316 0
	jmp	L658
L659:
LBB58:
	.loc 5 320 0
	leal	-40(%ebp), %eax
	movl	%eax, (%esp)
	call	__ZNK2sf5Clock14GetElapsedTimeEv
	fstps	-12(%ebp)
	.loc 5 322 0
	movss	-12(%ebp), %xmm0
	movaps	%xmm0, %xmm1
	subss	-16(%ebp), %xmm1
	movss	%xmm1, -192(%ebp)
	movl	8(%ebp), %eax
	movl	%eax, (%esp)
	call	__ZN4Game21getFallIterationDelayEv
	fstps	-188(%ebp)
	movss	-192(%ebp), %xmm0
	ucomiss	-188(%ebp), %xmm0
	setae	%al
	testb	%al, %al
	je	L665
	.loc 5 324 0
	movl	8(%ebp), %eax
	movl	%eax, (%esp)
	call	__ZN5Board20moveCurrentPieceDownEv
	.loc 5 325 0
	movl	-12(%ebp), %eax
	movl	%eax, -16(%ebp)
	.loc 5 327 0
	movl	8(%ebp), %eax
	movl	%eax, (%esp)
	call	__ZN5Board20isCurrentPieceFallenEv
	testb	%al, %al
	je	L665
LBB59:
	.loc 5 329 0
	movl	8(%ebp), %eax
	movl	%eax, (%esp)
	call	__ZN5Board10isGameOverEv
	testb	%al, %al
	je	L663
	.loc 5 330 0
	leal	LC16-"L00000000017$pb"(%ebx), %eax
	movl	%eax, 4(%esp)
	leal	L_fout$non_lazy_ptr-"L00000000017$pb"(%ebx), %eax
	movl	(%eax), %eax
	movl	%eax, (%esp)
	call	__ZStlsISt11char_traitsIcEERSt13basic_ostreamIcT_ES5_PKc
	movl	%eax, %edx
	leal	L__ZSt4endlIcSt11char_traitsIcEERSt13basic_ostreamIT_T0_ES6_$non_lazy_ptr-"L00000000017$pb"(%ebx), %eax
	movl	(%eax), %eax
	movl	%eax, 4(%esp)
	movl	%edx, (%esp)
	call	__ZNSolsEPFRSoS_E
L663:
	.loc 5 332 0
	leal	-116(%ebp), %edx
	movl	8(%ebp), %eax
	movl	%eax, 4(%esp)
	movl	%edx, (%esp)
	call	__ZN4Game12getNextPieceEv
	subl	$4, %esp
	leal	-116(%ebp), %eax
	movl	%eax, 4(%esp)
	movl	8(%ebp), %eax
	movl	%eax, (%esp)
	call	__ZN4Game19setCurrentGamePieceE6BPiece
	.loc 5 333 0
	movl	8(%ebp), %eax
	movl	%eax, (%esp)
	call	__ZN4Game18enableCurrentPieceEv
	.loc 5 334 0
	leal	-136(%ebp), %edx
	movl	8(%ebp), %eax
	movl	%eax, 4(%esp)
	movl	%edx, (%esp)
	call	__ZN4Game14createNewPieceEv
	subl	$4, %esp
	leal	-136(%ebp), %eax
	movl	%eax, 4(%esp)
	movl	8(%ebp), %eax
	movl	%eax, (%esp)
	call	__ZN4Game12setNextPieceE6BPiece
	.loc 5 336 0
	movl	8(%ebp), %eax
	movl	%eax, (%esp)
	call	__ZN5Board19deletePossibleLinesEv
	movl	%eax, -20(%ebp)
	.loc 5 338 0
	movl	-20(%ebp), %eax
	movl	%eax, 4(%esp)
	movl	8(%ebp), %eax
	movl	%eax, (%esp)
	call	__ZN4Game15updateGameInfosEi
	.loc 5 342 0
	jmp	L665
L666:
LBE59:
	.loc 5 344 0
	movl	-56(%ebp), %eax
	testl	%eax, %eax
	jne	L667
	.loc 5 345 0
	movl	8(%ebp), %eax
	movl	840(%eax), %eax
	movl	%eax, (%esp)
	call	__ZN2sf6Window5CloseEv
L667:
	.loc 5 347 0
	movl	-56(%ebp), %eax
	cmpl	$5, %eax
	jne	L665
	.loc 5 349 0
	movl	-52(%ebp), %eax
	cmpl	$291, %eax
	jne	L670
	.loc 5 350 0
	movl	8(%ebp), %eax
	movl	%eax, (%esp)
	call	__ZN5Board20moveCurrentPieceLeftEv
L670:
	.loc 5 352 0
	movl	-52(%ebp), %eax
	cmpl	$292, %eax
	jne	L672
	.loc 5 353 0
	movl	8(%ebp), %eax
	movl	%eax, (%esp)
	call	__ZN5Board21moveCurrentPieceRightEv
L672:
	.loc 5 355 0
	movl	-52(%ebp), %eax
	cmpl	$293, %eax
	jne	L674
	.loc 5 356 0
	movl	8(%ebp), %eax
	movl	%eax, (%esp)
	call	__ZN5Board22rotateCurrentPieceLeftEv
L674:
	.loc 5 358 0
	movl	-52(%ebp), %eax
	cmpl	$294, %eax
	jne	L676
	.loc 5 359 0
	movl	8(%ebp), %eax
	movl	%eax, (%esp)
	call	__ZN5Board23rotateCurrentPieceRightEv
L676:
	.loc 5 361 0
	movl	-52(%ebp), %eax
	cmpl	$104, %eax
	jne	L678
	.loc 5 362 0
	movl	8(%ebp), %eax
	movl	%eax, (%esp)
	call	__ZN4Game16holdCurrentPieceEv
L678:
	.loc 5 364 0
	movl	-52(%ebp), %eax
	cmpl	$277, %eax
	jne	L665
LBB60:
	.loc 5 366 0
	movl	8(%ebp), %eax
	movl	%eax, (%esp)
	call	__ZN5Board10isGameOverEv
	testb	%al, %al
	je	L681
	.loc 5 367 0
	leal	LC16-"L00000000017$pb"(%ebx), %eax
	movl	%eax, 4(%esp)
	leal	L_fout$non_lazy_ptr-"L00000000017$pb"(%ebx), %eax
	movl	(%eax), %eax
	movl	%eax, (%esp)
	call	__ZStlsISt11char_traitsIcEERSt13basic_ostreamIcT_ES5_PKc
	movl	%eax, %edx
	leal	L__ZSt4endlIcSt11char_traitsIcEERSt13basic_ostreamIT_T0_ES6_$non_lazy_ptr-"L00000000017$pb"(%ebx), %eax
	movl	(%eax), %eax
	movl	%eax, 4(%esp)
	movl	%edx, (%esp)
	call	__ZNSolsEPFRSoS_E
L681:
	.loc 5 369 0
	movl	8(%ebp), %eax
	movl	%eax, (%esp)
	call	__ZN5Board16dropCurrentPieceEv
	.loc 5 370 0
	leal	-40(%ebp), %eax
	movl	%eax, (%esp)
	call	__ZNK2sf5Clock14GetElapsedTimeEv
	fstps	-24(%ebp)
	.loc 5 374 0
	leal	-156(%ebp), %edx
	movl	8(%ebp), %eax
	movl	%eax, 4(%esp)
	movl	%edx, (%esp)
	call	__ZN4Game12getNextPieceEv
	subl	$4, %esp
	leal	-156(%ebp), %eax
	movl	%eax, 4(%esp)
	movl	8(%ebp), %eax
	movl	%eax, (%esp)
	call	__ZN4Game19setCurrentGamePieceE6BPiece
	.loc 5 376 0
	movl	8(%ebp), %eax
	movl	%eax, (%esp)
	call	__ZN4Game18enableCurrentPieceEv
	.loc 5 377 0
	leal	-176(%ebp), %edx
	movl	8(%ebp), %eax
	movl	%eax, 4(%esp)
	movl	%edx, (%esp)
	call	__ZN4Game14createNewPieceEv
	subl	$4, %esp
	leal	-176(%ebp), %eax
	movl	%eax, 4(%esp)
	movl	8(%ebp), %eax
	movl	%eax, (%esp)
	call	__ZN4Game12setNextPieceE6BPiece
	.loc 5 379 0
	movl	8(%ebp), %eax
	movl	%eax, (%esp)
	call	__ZN5Board19deletePossibleLinesEv
	movl	%eax, -28(%ebp)
	.loc 5 381 0
	movl	-28(%ebp), %eax
	movl	%eax, 4(%esp)
	movl	8(%ebp), %eax
	movl	%eax, (%esp)
	call	__ZN4Game15updateGameInfosEi
L665:
LBE60:
	.loc 5 342 0
	movl	8(%ebp), %eax
	movl	840(%eax), %eax
	movl	%eax, %edx
	leal	-56(%ebp), %eax
	movl	%eax, 4(%esp)
	movl	%edx, (%esp)
	call	__ZN2sf6Window8GetEventERNS_5EventE
	testb	%al, %al
	jne	L666
	.loc 5 394 0
	movl	8(%ebp), %eax
	movl	%eax, (%esp)
	call	__ZN4Game6renderEv
	.loc 5 395 0
	movl	8(%ebp), %eax
	movl	%eax, (%esp)
	call	__ZN4Game13showNextPieceEv
	.loc 5 396 0
	movl	8(%ebp), %eax
	movl	%eax, (%esp)
	call	__ZN4Game13showHoldPieceEv
	.loc 5 398 0
	movl	8(%ebp), %eax
	movl	840(%eax), %eax
	movl	%eax, (%esp)
	call	__ZN2sf6Window7DisplayEv
L658:
LBE58:
	.loc 5 316 0
	movl	8(%ebp), %eax
	movl	840(%eax), %eax
	movl	%eax, (%esp)
	call	__ZNK2sf6Window8IsOpenedEv
	testb	%al, %al
	jne	L659
LBE57:
	.loc 5 400 0
	movl	-4(%ebp), %ebx
	leave
	ret
LFE2409:
.globl _fout
.zerofill __DATA, __common, _fout, 664, 5
.lcomm __ZStL8__ioinit,1,0
.lcomm __ZL10BLOCK_FILE,4,2
.lcomm __ZL7BG_FILE,4,2
.lcomm __ZL14DIGITAL_POLICE,4,2
	.data
	.align 5
__ZL6PIECES:
	.long	0
	.long	0
	.long	0
	.long	0
	.long	0
	.long	1
	.long	2
	.long	0
	.long	0
	.long	1
	.long	1
	.long	0
	.long	0
	.long	0
	.long	0
	.long	0
	.long	0
	.long	0
	.long	0
	.long	0
	.long	0
	.long	1
	.long	2
	.long	0
	.long	0
	.long	1
	.long	1
	.long	0
	.long	0
	.long	0
	.long	0
	.long	0
	.long	0
	.long	0
	.long	0
	.long	0
	.long	0
	.long	1
	.long	2
	.long	0
	.long	0
	.long	1
	.long	1
	.long	0
	.long	0
	.long	0
	.long	0
	.long	0
	.long	0
	.long	0
	.long	0
	.long	0
	.long	0
	.long	1
	.long	2
	.long	0
	.long	0
	.long	1
	.long	1
	.long	0
	.long	0
	.long	0
	.long	0
	.long	0
	.long	0
	.long	0
	.long	0
	.long	0
	.long	1
	.long	1
	.long	2
	.long	1
	.long	0
	.long	0
	.long	0
	.long	0
	.long	0
	.long	0
	.long	0
	.long	0
	.long	0
	.long	0
	.long	1
	.long	0
	.long	0
	.long	0
	.long	2
	.long	0
	.long	0
	.long	0
	.long	1
	.long	0
	.long	0
	.long	0
	.long	1
	.long	0
	.long	0
	.long	0
	.long	0
	.long	0
	.long	1
	.long	1
	.long	2
	.long	1
	.long	0
	.long	0
	.long	0
	.long	0
	.long	0
	.long	0
	.long	0
	.long	0
	.long	0
	.long	0
	.long	1
	.long	0
	.long	0
	.long	0
	.long	2
	.long	0
	.long	0
	.long	0
	.long	1
	.long	0
	.long	0
	.long	0
	.long	1
	.long	0
	.long	0
	.long	0
	.long	0
	.long	0
	.long	0
	.long	0
	.long	2
	.long	1
	.long	0
	.long	1
	.long	1
	.long	0
	.long	0
	.long	0
	.long	0
	.long	0
	.long	0
	.long	0
	.long	1
	.long	0
	.long	0
	.long	0
	.long	2
	.long	1
	.long	0
	.long	0
	.long	0
	.long	1
	.long	0
	.long	0
	.long	0
	.long	0
	.long	0
	.long	0
	.long	0
	.long	0
	.long	0
	.long	0
	.long	2
	.long	1
	.long	0
	.long	1
	.long	1
	.long	0
	.long	0
	.long	0
	.long	0
	.long	0
	.long	0
	.long	0
	.long	1
	.long	0
	.long	0
	.long	0
	.long	2
	.long	1
	.long	0
	.long	0
	.long	0
	.long	1
	.long	0
	.long	0
	.long	0
	.long	0
	.long	0
	.long	0
	.long	0
	.long	0
	.long	0
	.long	1
	.long	2
	.long	0
	.long	0
	.long	0
	.long	1
	.long	1
	.long	0
	.long	0
	.long	0
	.long	0
	.long	0
	.long	0
	.long	0
	.long	1
	.long	0
	.long	0
	.long	2
	.long	1
	.long	0
	.long	0
	.long	1
	.long	0
	.long	0
	.long	0
	.long	0
	.long	0
	.long	0
	.long	0
	.long	0
	.long	0
	.long	0
	.long	1
	.long	2
	.long	0
	.long	0
	.long	0
	.long	1
	.long	1
	.long	0
	.long	0
	.long	0
	.long	0
	.long	0
	.long	0
	.long	0
	.long	1
	.long	0
	.long	0
	.long	2
	.long	1
	.long	0
	.long	0
	.long	1
	.long	0
	.long	0
	.long	0
	.long	0
	.long	0
	.long	0
	.long	0
	.long	0
	.long	0
	.long	0
	.long	1
	.long	2
	.long	1
	.long	0
	.long	1
	.long	0
	.long	0
	.long	0
	.long	0
	.long	0
	.long	0
	.long	0
	.long	0
	.long	1
	.long	0
	.long	0
	.long	0
	.long	2
	.long	0
	.long	0
	.long	0
	.long	1
	.long	1
	.long	0
	.long	0
	.long	0
	.long	0
	.long	0
	.long	0
	.long	0
	.long	1
	.long	0
	.long	1
	.long	2
	.long	1
	.long	0
	.long	0
	.long	0
	.long	0
	.long	0
	.long	0
	.long	0
	.long	0
	.long	0
	.long	1
	.long	1
	.long	0
	.long	0
	.long	0
	.long	2
	.long	0
	.long	0
	.long	0
	.long	1
	.long	0
	.long	0
	.long	0
	.long	0
	.long	0
	.long	0
	.long	0
	.long	0
	.long	0
	.long	0
	.long	1
	.long	2
	.long	1
	.long	0
	.long	0
	.long	0
	.long	1
	.long	0
	.long	0
	.long	0
	.long	0
	.long	0
	.long	0
	.long	1
	.long	1
	.long	0
	.long	0
	.long	2
	.long	0
	.long	0
	.long	0
	.long	1
	.long	0
	.long	0
	.long	0
	.long	0
	.long	0
	.long	0
	.long	1
	.long	0
	.long	0
	.long	0
	.long	1
	.long	2
	.long	1
	.long	0
	.long	0
	.long	0
	.long	0
	.long	0
	.long	0
	.long	0
	.long	0
	.long	0
	.long	0
	.long	1
	.long	0
	.long	0
	.long	0
	.long	2
	.long	0
	.long	0
	.long	1
	.long	1
	.long	0
	.long	0
	.long	0
	.long	0
	.long	0
	.long	0
	.long	0
	.long	0
	.long	0
	.long	0
	.long	1
	.long	2
	.long	1
	.long	0
	.long	0
	.long	1
	.long	0
	.long	0
	.long	0
	.long	0
	.long	0
	.long	0
	.long	0
	.long	1
	.long	0
	.long	0
	.long	0
	.long	2
	.long	1
	.long	0
	.long	0
	.long	1
	.long	0
	.long	0
	.long	0
	.long	0
	.long	0
	.long	0
	.long	0
	.long	1
	.long	0
	.long	0
	.long	1
	.long	2
	.long	1
	.long	0
	.long	0
	.long	0
	.long	0
	.long	0
	.long	0
	.long	0
	.long	0
	.long	0
	.long	0
	.long	1
	.long	0
	.long	0
	.long	1
	.long	2
	.long	0
	.long	0
	.long	0
	.long	1
	.long	0
	.long	0
	.long	0
	.long	0
	.long	0
.globl __ZNSbIjSt11char_traitsIjESaIjEE4_Rep20_S_empty_rep_storageE
	.weak_definition __ZNSbIjSt11char_traitsIjESaIjEE4_Rep20_S_empty_rep_storageE
	.section __DATA,__datacoal_nt,coalesced
	.align 2
__ZNSbIjSt11char_traitsIjESaIjEE4_Rep20_S_empty_rep_storageE:
	.space 16
	.literal8
	.align 3
LC0:
	.long	2576980378
	.long	1068079513
	.literal4
	.align 2
LC5:
	.long	0
	.align 2
LC8:
	.long	1093664768
	.align 2
LC9:
	.long	1130758144
	.align 2
LC10:
	.long	1138163712
	.align 2
LC12:
	.long	1129775104
	.align 2
LC13:
	.long	1103626240
	.align 2
LC14:
	.long	1132068864
	.align 2
LC15:
	.long	1140457472
	.section __DWARF,__debug_frame,regular,debug
Lframe0:
	.set L$set$243,LECIE0-LSCIE0
	.long L$set$243
LSCIE0:
	.long	0xffffffff
	.byte	0x1
	.ascii "\0"
	.byte	0x1
	.byte	0x7c
	.byte	0x8
	.byte	0xc
	.byte	0x4
	.byte	0x4
	.byte	0x88
	.byte	0x1
	.align 2
LECIE0:
LSFDE0:
	.set L$set$244,LEFDE0-LASFDE0
	.long L$set$244
LASFDE0:
	.set L$set$245,Lframe0-Lsection__debug_frame
	.long L$set$245
	.long	LFB10
	.set L$set$246,LFE10-LFB10
	.long L$set$246
	.byte	0x4
	.set L$set$247,LCFI0-LFB10
	.long L$set$247
	.byte	0xe
	.byte	0x8
	.byte	0x85
	.byte	0x2
	.byte	0x4
	.set L$set$248,LCFI1-LCFI0
	.long L$set$248
	.byte	0xd
	.byte	0x5
	.align 2
LEFDE0:
LSFDE2:
	.set L$set$249,LEFDE2-LASFDE2
	.long L$set$249
LASFDE2:
	.set L$set$250,Lframe0-Lsection__debug_frame
	.long L$set$250
	.long	LFB285
	.set L$set$251,LFE285-LFB285
	.long L$set$251
	.byte	0x4
	.set L$set$252,LCFI3-LFB285
	.long L$set$252
	.byte	0xe
	.byte	0x8
	.byte	0x85
	.byte	0x2
	.byte	0x4
	.set L$set$253,LCFI4-LCFI3
	.long L$set$253
	.byte	0xd
	.byte	0x5
	.align 2
LEFDE2:
LSFDE4:
	.set L$set$254,LEFDE4-LASFDE4
	.long L$set$254
LASFDE4:
	.set L$set$255,Lframe0-Lsection__debug_frame
	.long L$set$255
	.long	LFB952
	.set L$set$256,LFE952-LFB952
	.long L$set$256
	.byte	0x4
	.set L$set$257,LCFI6-LFB952
	.long L$set$257
	.byte	0xe
	.byte	0x8
	.byte	0x85
	.byte	0x2
	.byte	0x4
	.set L$set$258,LCFI7-LCFI6
	.long L$set$258
	.byte	0xd
	.byte	0x5
	.align 2
LEFDE4:
LSFDE6:
	.set L$set$259,LEFDE6-LASFDE6
	.long L$set$259
LASFDE6:
	.set L$set$260,Lframe0-Lsection__debug_frame
	.long L$set$260
	.long	LFB2360
	.set L$set$261,LFE2360-LFB2360
	.long L$set$261
	.byte	0x4
	.set L$set$262,LCFI9-LFB2360
	.long L$set$262
	.byte	0xe
	.byte	0x8
	.byte	0x85
	.byte	0x2
	.byte	0x4
	.set L$set$263,LCFI10-LCFI9
	.long L$set$263
	.byte	0xd
	.byte	0x5
	.align 2
LEFDE6:
LSFDE8:
	.set L$set$264,LEFDE8-LASFDE8
	.long L$set$264
LASFDE8:
	.set L$set$265,Lframe0-Lsection__debug_frame
	.long L$set$265
	.long	LFB2362
	.set L$set$266,LFE2362-LFB2362
	.long L$set$266
	.byte	0x4
	.set L$set$267,LCFI12-LFB2362
	.long L$set$267
	.byte	0xe
	.byte	0x8
	.byte	0x85
	.byte	0x2
	.byte	0x4
	.set L$set$268,LCFI13-LCFI12
	.long L$set$268
	.byte	0xd
	.byte	0x5
	.align 2
LEFDE8:
LSFDE10:
	.set L$set$269,LEFDE10-LASFDE10
	.long L$set$269
LASFDE10:
	.set L$set$270,Lframe0-Lsection__debug_frame
	.long L$set$270
	.long	LFB2364
	.set L$set$271,LFE2364-LFB2364
	.long L$set$271
	.byte	0x4
	.set L$set$272,LCFI15-LFB2364
	.long L$set$272
	.byte	0xe
	.byte	0x8
	.byte	0x85
	.byte	0x2
	.byte	0x4
	.set L$set$273,LCFI16-LCFI15
	.long L$set$273
	.byte	0xd
	.byte	0x5
	.align 2
LEFDE10:
LSFDE12:
	.set L$set$274,LEFDE12-LASFDE12
	.long L$set$274
LASFDE12:
	.set L$set$275,Lframe0-Lsection__debug_frame
	.long L$set$275
	.long	LFB2368
	.set L$set$276,LFE2368-LFB2368
	.long L$set$276
	.byte	0x4
	.set L$set$277,LCFI18-LFB2368
	.long L$set$277
	.byte	0xe
	.byte	0x8
	.byte	0x85
	.byte	0x2
	.byte	0x4
	.set L$set$278,LCFI19-LCFI18
	.long L$set$278
	.byte	0xd
	.byte	0x5
	.align 2
LEFDE12:
LSFDE14:
	.set L$set$279,LEFDE14-LASFDE14
	.long L$set$279
LASFDE14:
	.set L$set$280,Lframe0-Lsection__debug_frame
	.long L$set$280
	.long	LFB2369
	.set L$set$281,LFE2369-LFB2369
	.long L$set$281
	.byte	0x4
	.set L$set$282,LCFI21-LFB2369
	.long L$set$282
	.byte	0xe
	.byte	0x8
	.byte	0x85
	.byte	0x2
	.byte	0x4
	.set L$set$283,LCFI22-LCFI21
	.long L$set$283
	.byte	0xd
	.byte	0x5
	.align 2
LEFDE14:
LSFDE16:
	.set L$set$284,LEFDE16-LASFDE16
	.long L$set$284
LASFDE16:
	.set L$set$285,Lframe0-Lsection__debug_frame
	.long L$set$285
	.long	LFB2370
	.set L$set$286,LFE2370-LFB2370
	.long L$set$286
	.byte	0x4
	.set L$set$287,LCFI24-LFB2370
	.long L$set$287
	.byte	0xe
	.byte	0x8
	.byte	0x85
	.byte	0x2
	.byte	0x4
	.set L$set$288,LCFI25-LCFI24
	.long L$set$288
	.byte	0xd
	.byte	0x5
	.align 2
LEFDE16:
LSFDE18:
	.set L$set$289,LEFDE18-LASFDE18
	.long L$set$289
LASFDE18:
	.set L$set$290,Lframe0-Lsection__debug_frame
	.long L$set$290
	.long	LFB2371
	.set L$set$291,LFE2371-LFB2371
	.long L$set$291
	.byte	0x4
	.set L$set$292,LCFI27-LFB2371
	.long L$set$292
	.byte	0xe
	.byte	0x8
	.byte	0x85
	.byte	0x2
	.byte	0x4
	.set L$set$293,LCFI28-LCFI27
	.long L$set$293
	.byte	0xd
	.byte	0x5
	.align 2
LEFDE18:
LSFDE20:
	.set L$set$294,LEFDE20-LASFDE20
	.long L$set$294
LASFDE20:
	.set L$set$295,Lframe0-Lsection__debug_frame
	.long L$set$295
	.long	LFB2372
	.set L$set$296,LFE2372-LFB2372
	.long L$set$296
	.byte	0x4
	.set L$set$297,LCFI30-LFB2372
	.long L$set$297
	.byte	0xe
	.byte	0x8
	.byte	0x85
	.byte	0x2
	.byte	0x4
	.set L$set$298,LCFI31-LCFI30
	.long L$set$298
	.byte	0xd
	.byte	0x5
	.align 2
LEFDE20:
LSFDE22:
	.set L$set$299,LEFDE22-LASFDE22
	.long L$set$299
LASFDE22:
	.set L$set$300,Lframe0-Lsection__debug_frame
	.long L$set$300
	.long	LFB2373
	.set L$set$301,LFE2373-LFB2373
	.long L$set$301
	.byte	0x4
	.set L$set$302,LCFI33-LFB2373
	.long L$set$302
	.byte	0xe
	.byte	0x8
	.byte	0x85
	.byte	0x2
	.byte	0x4
	.set L$set$303,LCFI34-LCFI33
	.long L$set$303
	.byte	0xd
	.byte	0x5
	.align 2
LEFDE22:
LSFDE24:
	.set L$set$304,LEFDE24-LASFDE24
	.long L$set$304
LASFDE24:
	.set L$set$305,Lframe0-Lsection__debug_frame
	.long L$set$305
	.long	LFB2374
	.set L$set$306,LFE2374-LFB2374
	.long L$set$306
	.byte	0x4
	.set L$set$307,LCFI36-LFB2374
	.long L$set$307
	.byte	0xe
	.byte	0x8
	.byte	0x85
	.byte	0x2
	.byte	0x4
	.set L$set$308,LCFI37-LCFI36
	.long L$set$308
	.byte	0xd
	.byte	0x5
	.align 2
LEFDE24:
LSFDE26:
	.set L$set$309,LEFDE26-LASFDE26
	.long L$set$309
LASFDE26:
	.set L$set$310,Lframe0-Lsection__debug_frame
	.long L$set$310
	.long	LFB2375
	.set L$set$311,LFE2375-LFB2375
	.long L$set$311
	.byte	0x4
	.set L$set$312,LCFI39-LFB2375
	.long L$set$312
	.byte	0xe
	.byte	0x8
	.byte	0x85
	.byte	0x2
	.byte	0x4
	.set L$set$313,LCFI40-LCFI39
	.long L$set$313
	.byte	0xd
	.byte	0x5
	.align 2
LEFDE26:
LSFDE28:
	.set L$set$314,LEFDE28-LASFDE28
	.long L$set$314
LASFDE28:
	.set L$set$315,Lframe0-Lsection__debug_frame
	.long L$set$315
	.long	LFB2376
	.set L$set$316,LFE2376-LFB2376
	.long L$set$316
	.byte	0x4
	.set L$set$317,LCFI42-LFB2376
	.long L$set$317
	.byte	0xe
	.byte	0x8
	.byte	0x85
	.byte	0x2
	.byte	0x4
	.set L$set$318,LCFI43-LCFI42
	.long L$set$318
	.byte	0xd
	.byte	0x5
	.align 2
LEFDE28:
LSFDE30:
	.set L$set$319,LEFDE30-LASFDE30
	.long L$set$319
LASFDE30:
	.set L$set$320,Lframe0-Lsection__debug_frame
	.long L$set$320
	.long	LFB2377
	.set L$set$321,LFE2377-LFB2377
	.long L$set$321
	.byte	0x4
	.set L$set$322,LCFI45-LFB2377
	.long L$set$322
	.byte	0xe
	.byte	0x8
	.byte	0x85
	.byte	0x2
	.byte	0x4
	.set L$set$323,LCFI46-LCFI45
	.long L$set$323
	.byte	0xd
	.byte	0x5
	.byte	0x4
	.set L$set$324,LCFI48-LCFI46
	.long L$set$324
	.byte	0x83
	.byte	0x3
	.align 2
LEFDE30:
LSFDE32:
	.set L$set$325,LEFDE32-LASFDE32
	.long L$set$325
LASFDE32:
	.set L$set$326,Lframe0-Lsection__debug_frame
	.long L$set$326
	.long	LFB2378
	.set L$set$327,LFE2378-LFB2378
	.long L$set$327
	.byte	0x4
	.set L$set$328,LCFI49-LFB2378
	.long L$set$328
	.byte	0xe
	.byte	0x8
	.byte	0x85
	.byte	0x2
	.byte	0x4
	.set L$set$329,LCFI50-LCFI49
	.long L$set$329
	.byte	0xd
	.byte	0x5
	.align 2
LEFDE32:
LSFDE34:
	.set L$set$330,LEFDE34-LASFDE34
	.long L$set$330
LASFDE34:
	.set L$set$331,Lframe0-Lsection__debug_frame
	.long L$set$331
	.long	LFB2381
	.set L$set$332,LFE2381-LFB2381
	.long L$set$332
	.byte	0x4
	.set L$set$333,LCFI52-LFB2381
	.long L$set$333
	.byte	0xe
	.byte	0x8
	.byte	0x85
	.byte	0x2
	.byte	0x4
	.set L$set$334,LCFI53-LCFI52
	.long L$set$334
	.byte	0xd
	.byte	0x5
	.byte	0x4
	.set L$set$335,LCFI55-LCFI53
	.long L$set$335
	.byte	0x86
	.byte	0x3
	.align 2
LEFDE34:
LSFDE36:
	.set L$set$336,LEFDE36-LASFDE36
	.long L$set$336
LASFDE36:
	.set L$set$337,Lframe0-Lsection__debug_frame
	.long L$set$337
	.long	LFB2410
	.set L$set$338,LFE2410-LFB2410
	.long L$set$338
	.byte	0x4
	.set L$set$339,LCFI56-LFB2410
	.long L$set$339
	.byte	0xe
	.byte	0x8
	.byte	0x85
	.byte	0x2
	.byte	0x4
	.set L$set$340,LCFI57-LCFI56
	.long L$set$340
	.byte	0xd
	.byte	0x5
	.align 2
LEFDE36:
LSFDE38:
	.set L$set$341,LEFDE38-LASFDE38
	.long L$set$341
LASFDE38:
	.set L$set$342,Lframe0-Lsection__debug_frame
	.long L$set$342
	.long	LFB1407
	.set L$set$343,LFE1407-LFB1407
	.long L$set$343
	.byte	0x4
	.set L$set$344,LCFI59-LFB1407
	.long L$set$344
	.byte	0xe
	.byte	0x8
	.byte	0x85
	.byte	0x2
	.byte	0x4
	.set L$set$345,LCFI60-LCFI59
	.long L$set$345
	.byte	0xd
	.byte	0x5
	.byte	0x4
	.set L$set$346,LCFI62-LCFI60
	.long L$set$346
	.byte	0x86
	.byte	0x3
	.align 2
LEFDE38:
LSFDE40:
	.set L$set$347,LEFDE40-LASFDE40
	.long L$set$347
LASFDE40:
	.set L$set$348,Lframe0-Lsection__debug_frame
	.long L$set$348
	.long	LFB2492
	.set L$set$349,LFE2492-LFB2492
	.long L$set$349
	.byte	0x4
	.set L$set$350,LCFI63-LFB2492
	.long L$set$350
	.byte	0xe
	.byte	0x8
	.byte	0x85
	.byte	0x2
	.byte	0x4
	.set L$set$351,LCFI64-LCFI63
	.long L$set$351
	.byte	0xd
	.byte	0x5
	.align 2
LEFDE40:
LSFDE42:
	.set L$set$352,LEFDE42-LASFDE42
	.long L$set$352
LASFDE42:
	.set L$set$353,Lframe0-Lsection__debug_frame
	.long L$set$353
	.long	LFB2538
	.set L$set$354,LFE2538-LFB2538
	.long L$set$354
	.byte	0x4
	.set L$set$355,LCFI66-LFB2538
	.long L$set$355
	.byte	0xe
	.byte	0x8
	.byte	0x85
	.byte	0x2
	.byte	0x4
	.set L$set$356,LCFI67-LCFI66
	.long L$set$356
	.byte	0xd
	.byte	0x5
	.align 2
LEFDE42:
LSFDE44:
	.set L$set$357,LEFDE44-LASFDE44
	.long L$set$357
LASFDE44:
	.set L$set$358,Lframe0-Lsection__debug_frame
	.long L$set$358
	.long	LFB2540
	.set L$set$359,LFE2540-LFB2540
	.long L$set$359
	.byte	0x4
	.set L$set$360,LCFI69-LFB2540
	.long L$set$360
	.byte	0xe
	.byte	0x8
	.byte	0x85
	.byte	0x2
	.byte	0x4
	.set L$set$361,LCFI70-LCFI69
	.long L$set$361
	.byte	0xd
	.byte	0x5
	.align 2
LEFDE44:
LSFDE46:
	.set L$set$362,LEFDE46-LASFDE46
	.long L$set$362
LASFDE46:
	.set L$set$363,Lframe0-Lsection__debug_frame
	.long L$set$363
	.long	LFB2541
	.set L$set$364,LFE2541-LFB2541
	.long L$set$364
	.byte	0x4
	.set L$set$365,LCFI72-LFB2541
	.long L$set$365
	.byte	0xe
	.byte	0x8
	.byte	0x85
	.byte	0x2
	.byte	0x4
	.set L$set$366,LCFI73-LCFI72
	.long L$set$366
	.byte	0xd
	.byte	0x5
	.align 2
LEFDE46:
LSFDE48:
	.set L$set$367,LEFDE48-LASFDE48
	.long L$set$367
LASFDE48:
	.set L$set$368,Lframe0-Lsection__debug_frame
	.long L$set$368
	.long	LFB2546
	.set L$set$369,LFE2546-LFB2546
	.long L$set$369
	.byte	0x4
	.set L$set$370,LCFI75-LFB2546
	.long L$set$370
	.byte	0xe
	.byte	0x8
	.byte	0x85
	.byte	0x2
	.byte	0x4
	.set L$set$371,LCFI76-LCFI75
	.long L$set$371
	.byte	0xd
	.byte	0x5
	.align 2
LEFDE48:
LSFDE50:
	.set L$set$372,LEFDE50-LASFDE50
	.long L$set$372
LASFDE50:
	.set L$set$373,Lframe0-Lsection__debug_frame
	.long L$set$373
	.long	LFB2578
	.set L$set$374,LFE2578-LFB2578
	.long L$set$374
	.byte	0x4
	.set L$set$375,LCFI78-LFB2578
	.long L$set$375
	.byte	0xe
	.byte	0x8
	.byte	0x85
	.byte	0x2
	.byte	0x4
	.set L$set$376,LCFI79-LCFI78
	.long L$set$376
	.byte	0xd
	.byte	0x5
	.align 2
LEFDE50:
LSFDE52:
	.set L$set$377,LEFDE52-LASFDE52
	.long L$set$377
LASFDE52:
	.set L$set$378,Lframe0-Lsection__debug_frame
	.long L$set$378
	.long	LFB2582
	.set L$set$379,LFE2582-LFB2582
	.long L$set$379
	.byte	0x4
	.set L$set$380,LCFI81-LFB2582
	.long L$set$380
	.byte	0xe
	.byte	0x8
	.byte	0x85
	.byte	0x2
	.byte	0x4
	.set L$set$381,LCFI82-LCFI81
	.long L$set$381
	.byte	0xd
	.byte	0x5
	.align 2
LEFDE52:
LSFDE54:
	.set L$set$382,LEFDE54-LASFDE54
	.long L$set$382
LASFDE54:
	.set L$set$383,Lframe0-Lsection__debug_frame
	.long L$set$383
	.long	LFB2543
	.set L$set$384,LFE2543-LFB2543
	.long L$set$384
	.byte	0x4
	.set L$set$385,LCFI84-LFB2543
	.long L$set$385
	.byte	0xe
	.byte	0x8
	.byte	0x85
	.byte	0x2
	.byte	0x4
	.set L$set$386,LCFI85-LCFI84
	.long L$set$386
	.byte	0xd
	.byte	0x5
	.align 2
LEFDE54:
LSFDE56:
	.set L$set$387,LEFDE56-LASFDE56
	.long L$set$387
LASFDE56:
	.set L$set$388,Lframe0-Lsection__debug_frame
	.long L$set$388
	.long	LFB2472
	.set L$set$389,LFE2472-LFB2472
	.long L$set$389
	.byte	0x4
	.set L$set$390,LCFI87-LFB2472
	.long L$set$390
	.byte	0xe
	.byte	0x8
	.byte	0x85
	.byte	0x2
	.byte	0x4
	.set L$set$391,LCFI88-LCFI87
	.long L$set$391
	.byte	0xd
	.byte	0x5
	.align 2
LEFDE56:
LSFDE58:
	.set L$set$392,LEFDE58-LASFDE58
	.long L$set$392
LASFDE58:
	.set L$set$393,Lframe0-Lsection__debug_frame
	.long L$set$393
	.long	LFB2584
	.set L$set$394,LFE2584-LFB2584
	.long L$set$394
	.byte	0x4
	.set L$set$395,LCFI90-LFB2584
	.long L$set$395
	.byte	0xe
	.byte	0x8
	.byte	0x85
	.byte	0x2
	.byte	0x4
	.set L$set$396,LCFI91-LCFI90
	.long L$set$396
	.byte	0xd
	.byte	0x5
	.align 2
LEFDE58:
LSFDE60:
	.set L$set$397,LEFDE60-LASFDE60
	.long L$set$397
LASFDE60:
	.set L$set$398,Lframe0-Lsection__debug_frame
	.long L$set$398
	.long	LFB2585
	.set L$set$399,LFE2585-LFB2585
	.long L$set$399
	.byte	0x4
	.set L$set$400,LCFI93-LFB2585
	.long L$set$400
	.byte	0xe
	.byte	0x8
	.byte	0x85
	.byte	0x2
	.byte	0x4
	.set L$set$401,LCFI94-LCFI93
	.long L$set$401
	.byte	0xd
	.byte	0x5
	.align 2
LEFDE60:
LSFDE62:
	.set L$set$402,LEFDE62-LASFDE62
	.long L$set$402
LASFDE62:
	.set L$set$403,Lframe0-Lsection__debug_frame
	.long L$set$403
	.long	LFB2588
	.set L$set$404,LFE2588-LFB2588
	.long L$set$404
	.byte	0x4
	.set L$set$405,LCFI96-LFB2588
	.long L$set$405
	.byte	0xe
	.byte	0x8
	.byte	0x85
	.byte	0x2
	.byte	0x4
	.set L$set$406,LCFI97-LCFI96
	.long L$set$406
	.byte	0xd
	.byte	0x5
	.align 2
LEFDE62:
LSFDE64:
	.set L$set$407,LEFDE64-LASFDE64
	.long L$set$407
LASFDE64:
	.set L$set$408,Lframe0-Lsection__debug_frame
	.long L$set$408
	.long	LFB2549
	.set L$set$409,LFE2549-LFB2549
	.long L$set$409
	.byte	0x4
	.set L$set$410,LCFI99-LFB2549
	.long L$set$410
	.byte	0xe
	.byte	0x8
	.byte	0x85
	.byte	0x2
	.byte	0x4
	.set L$set$411,LCFI100-LCFI99
	.long L$set$411
	.byte	0xd
	.byte	0x5
	.align 2
LEFDE64:
LSFDE66:
	.set L$set$412,LEFDE66-LASFDE66
	.long L$set$412
LASFDE66:
	.set L$set$413,Lframe0-Lsection__debug_frame
	.long L$set$413
	.long	LFB2548
	.set L$set$414,LFE2548-LFB2548
	.long L$set$414
	.byte	0x4
	.set L$set$415,LCFI102-LFB2548
	.long L$set$415
	.byte	0xe
	.byte	0x8
	.byte	0x85
	.byte	0x2
	.byte	0x4
	.set L$set$416,LCFI103-LCFI102
	.long L$set$416
	.byte	0xd
	.byte	0x5
	.align 2
LEFDE66:
LSFDE68:
	.set L$set$417,LEFDE68-LASFDE68
	.long L$set$417
LASFDE68:
	.set L$set$418,Lframe0-Lsection__debug_frame
	.long L$set$418
	.long	LFB2478
	.set L$set$419,LFE2478-LFB2478
	.long L$set$419
	.byte	0x4
	.set L$set$420,LCFI105-LFB2478
	.long L$set$420
	.byte	0xe
	.byte	0x8
	.byte	0x85
	.byte	0x2
	.byte	0x4
	.set L$set$421,LCFI106-LCFI105
	.long L$set$421
	.byte	0xd
	.byte	0x5
	.align 2
LEFDE68:
LSFDE70:
	.set L$set$422,LEFDE70-LASFDE70
	.long L$set$422
LASFDE70:
	.set L$set$423,Lframe0-Lsection__debug_frame
	.long L$set$423
	.long	LFB2590
	.set L$set$424,LFE2590-LFB2590
	.long L$set$424
	.byte	0x4
	.set L$set$425,LCFI108-LFB2590
	.long L$set$425
	.byte	0xe
	.byte	0x8
	.byte	0x85
	.byte	0x2
	.byte	0x4
	.set L$set$426,LCFI109-LCFI108
	.long L$set$426
	.byte	0xd
	.byte	0x5
	.align 2
LEFDE70:
LSFDE72:
	.set L$set$427,LEFDE72-LASFDE72
	.long L$set$427
LASFDE72:
	.set L$set$428,Lframe0-Lsection__debug_frame
	.long L$set$428
	.long	LFB2550
	.set L$set$429,LFE2550-LFB2550
	.long L$set$429
	.byte	0x4
	.set L$set$430,LCFI111-LFB2550
	.long L$set$430
	.byte	0xe
	.byte	0x8
	.byte	0x85
	.byte	0x2
	.byte	0x4
	.set L$set$431,LCFI112-LCFI111
	.long L$set$431
	.byte	0xd
	.byte	0x5
	.align 2
LEFDE72:
LSFDE74:
	.set L$set$432,LEFDE74-LASFDE74
	.long L$set$432
LASFDE74:
	.set L$set$433,Lframe0-Lsection__debug_frame
	.long L$set$433
	.long	LFB2592
	.set L$set$434,LFE2592-LFB2592
	.long L$set$434
	.byte	0x4
	.set L$set$435,LCFI114-LFB2592
	.long L$set$435
	.byte	0xe
	.byte	0x8
	.byte	0x85
	.byte	0x2
	.byte	0x4
	.set L$set$436,LCFI115-LCFI114
	.long L$set$436
	.byte	0xd
	.byte	0x5
	.align 2
LEFDE74:
LSFDE76:
	.set L$set$437,LEFDE76-LASFDE76
	.long L$set$437
LASFDE76:
	.set L$set$438,Lframe0-Lsection__debug_frame
	.long L$set$438
	.long	LFB2554
	.set L$set$439,LFE2554-LFB2554
	.long L$set$439
	.byte	0x4
	.set L$set$440,LCFI117-LFB2554
	.long L$set$440
	.byte	0xe
	.byte	0x8
	.byte	0x85
	.byte	0x2
	.byte	0x4
	.set L$set$441,LCFI118-LCFI117
	.long L$set$441
	.byte	0xd
	.byte	0x5
	.align 2
LEFDE76:
LSFDE78:
	.set L$set$442,LEFDE78-LASFDE78
	.long L$set$442
LASFDE78:
	.set L$set$443,Lframe0-Lsection__debug_frame
	.long L$set$443
	.long	LFB2551
	.set L$set$444,LFE2551-LFB2551
	.long L$set$444
	.byte	0x4
	.set L$set$445,LCFI120-LFB2551
	.long L$set$445
	.byte	0xe
	.byte	0x8
	.byte	0x85
	.byte	0x2
	.byte	0x4
	.set L$set$446,LCFI121-LCFI120
	.long L$set$446
	.byte	0xd
	.byte	0x5
	.byte	0x4
	.set L$set$447,LCFI123-LCFI121
	.long L$set$447
	.byte	0x86
	.byte	0x3
	.align 2
LEFDE78:
LSFDE80:
	.set L$set$448,LEFDE80-LASFDE80
	.long L$set$448
LASFDE80:
	.set L$set$449,Lframe0-Lsection__debug_frame
	.long L$set$449
	.long	LFB2594
	.set L$set$450,LFE2594-LFB2594
	.long L$set$450
	.byte	0x4
	.set L$set$451,LCFI124-LFB2594
	.long L$set$451
	.byte	0xe
	.byte	0x8
	.byte	0x85
	.byte	0x2
	.byte	0x4
	.set L$set$452,LCFI125-LCFI124
	.long L$set$452
	.byte	0xd
	.byte	0x5
	.align 2
LEFDE80:
LSFDE82:
	.set L$set$453,LEFDE82-LASFDE82
	.long L$set$453
LASFDE82:
	.set L$set$454,Lframe0-Lsection__debug_frame
	.long L$set$454
	.long	LFB2606
	.set L$set$455,LFE2606-LFB2606
	.long L$set$455
	.byte	0x4
	.set L$set$456,LCFI127-LFB2606
	.long L$set$456
	.byte	0xe
	.byte	0x8
	.byte	0x85
	.byte	0x2
	.byte	0x4
	.set L$set$457,LCFI128-LCFI127
	.long L$set$457
	.byte	0xd
	.byte	0x5
	.align 2
LEFDE82:
LSFDE84:
	.set L$set$458,LEFDE84-LASFDE84
	.long L$set$458
LASFDE84:
	.set L$set$459,Lframe0-Lsection__debug_frame
	.long L$set$459
	.long	LFB2575
	.set L$set$460,LFE2575-LFB2575
	.long L$set$460
	.byte	0x4
	.set L$set$461,LCFI130-LFB2575
	.long L$set$461
	.byte	0xe
	.byte	0x8
	.byte	0x85
	.byte	0x2
	.byte	0x4
	.set L$set$462,LCFI131-LCFI130
	.long L$set$462
	.byte	0xd
	.byte	0x5
	.align 2
LEFDE84:
LSFDE86:
	.set L$set$463,LEFDE86-LASFDE86
	.long L$set$463
LASFDE86:
	.set L$set$464,Lframe0-Lsection__debug_frame
	.long L$set$464
	.long	LFB2533
	.set L$set$465,LFE2533-LFB2533
	.long L$set$465
	.byte	0x4
	.set L$set$466,LCFI133-LFB2533
	.long L$set$466
	.byte	0xe
	.byte	0x8
	.byte	0x85
	.byte	0x2
	.byte	0x4
	.set L$set$467,LCFI134-LCFI133
	.long L$set$467
	.byte	0xd
	.byte	0x5
	.align 2
LEFDE86:
LSFDE88:
	.set L$set$468,LEFDE88-LASFDE88
	.long L$set$468
LASFDE88:
	.set L$set$469,Lframe0-Lsection__debug_frame
	.long L$set$469
	.long	LFB2608
	.set L$set$470,LFE2608-LFB2608
	.long L$set$470
	.byte	0x4
	.set L$set$471,LCFI136-LFB2608
	.long L$set$471
	.byte	0xe
	.byte	0x8
	.byte	0x85
	.byte	0x2
	.byte	0x4
	.set L$set$472,LCFI137-LCFI136
	.long L$set$472
	.byte	0xd
	.byte	0x5
	.align 2
LEFDE88:
LSFDE90:
	.set L$set$473,LEFDE90-LASFDE90
	.long L$set$473
LASFDE90:
	.set L$set$474,Lframe0-Lsection__debug_frame
	.long L$set$474
	.long	LFB2609
	.set L$set$475,LFE2609-LFB2609
	.long L$set$475
	.byte	0x4
	.set L$set$476,LCFI139-LFB2609
	.long L$set$476
	.byte	0xe
	.byte	0x8
	.byte	0x85
	.byte	0x2
	.byte	0x4
	.set L$set$477,LCFI140-LCFI139
	.long L$set$477
	.byte	0xd
	.byte	0x5
	.align 2
LEFDE90:
LSFDE92:
	.set L$set$478,LEFDE92-LASFDE92
	.long L$set$478
LASFDE92:
	.set L$set$479,Lframe0-Lsection__debug_frame
	.long L$set$479
	.long	LFB2613
	.set L$set$480,LFE2613-LFB2613
	.long L$set$480
	.byte	0x4
	.set L$set$481,LCFI142-LFB2613
	.long L$set$481
	.byte	0xe
	.byte	0x8
	.byte	0x85
	.byte	0x2
	.byte	0x4
	.set L$set$482,LCFI143-LCFI142
	.long L$set$482
	.byte	0xd
	.byte	0x5
	.align 2
LEFDE92:
LSFDE94:
	.set L$set$483,LEFDE94-LASFDE94
	.long L$set$483
LASFDE94:
	.set L$set$484,Lframe0-Lsection__debug_frame
	.long L$set$484
	.long	LFB2579
	.set L$set$485,LFE2579-LFB2579
	.long L$set$485
	.byte	0x4
	.set L$set$486,LCFI145-LFB2579
	.long L$set$486
	.byte	0xe
	.byte	0x8
	.byte	0x85
	.byte	0x2
	.byte	0x4
	.set L$set$487,LCFI146-LCFI145
	.long L$set$487
	.byte	0xd
	.byte	0x5
	.align 2
LEFDE94:
LSFDE96:
	.set L$set$488,LEFDE96-LASFDE96
	.long L$set$488
LASFDE96:
	.set L$set$489,Lframe0-Lsection__debug_frame
	.long L$set$489
	.long	LFB2536
	.set L$set$490,LFE2536-LFB2536
	.long L$set$490
	.byte	0x4
	.set L$set$491,LCFI148-LFB2536
	.long L$set$491
	.byte	0xe
	.byte	0x8
	.byte	0x85
	.byte	0x2
	.byte	0x4
	.set L$set$492,LCFI149-LCFI148
	.long L$set$492
	.byte	0xd
	.byte	0x5
	.align 2
LEFDE96:
LSFDE98:
	.set L$set$493,LEFDE98-LASFDE98
	.long L$set$493
LASFDE98:
	.set L$set$494,Lframe0-Lsection__debug_frame
	.long L$set$494
	.long	LFB2580
	.set L$set$495,LFE2580-LFB2580
	.long L$set$495
	.byte	0x4
	.set L$set$496,LCFI151-LFB2580
	.long L$set$496
	.byte	0xe
	.byte	0x8
	.byte	0x85
	.byte	0x2
	.byte	0x4
	.set L$set$497,LCFI152-LCFI151
	.long L$set$497
	.byte	0xd
	.byte	0x5
	.align 2
LEFDE98:
LSFDE100:
	.set L$set$498,LEFDE100-LASFDE100
	.long L$set$498
LASFDE100:
	.set L$set$499,Lframe0-Lsection__debug_frame
	.long L$set$499
	.long	LFB2537
	.set L$set$500,LFE2537-LFB2537
	.long L$set$500
	.byte	0x4
	.set L$set$501,LCFI154-LFB2537
	.long L$set$501
	.byte	0xe
	.byte	0x8
	.byte	0x85
	.byte	0x2
	.byte	0x4
	.set L$set$502,LCFI155-LCFI154
	.long L$set$502
	.byte	0xd
	.byte	0x5
	.align 2
LEFDE100:
LSFDE102:
	.set L$set$503,LEFDE102-LASFDE102
	.long L$set$503
LASFDE102:
	.set L$set$504,Lframe0-Lsection__debug_frame
	.long L$set$504
	.long	LFB2621
	.set L$set$505,LFE2621-LFB2621
	.long L$set$505
	.byte	0x4
	.set L$set$506,LCFI157-LFB2621
	.long L$set$506
	.byte	0xe
	.byte	0x8
	.byte	0x85
	.byte	0x2
	.byte	0x4
	.set L$set$507,LCFI158-LCFI157
	.long L$set$507
	.byte	0xd
	.byte	0x5
	.align 2
LEFDE102:
LSFDE104:
	.set L$set$508,LEFDE104-LASFDE104
	.long L$set$508
LASFDE104:
	.set L$set$509,Lframe0-Lsection__debug_frame
	.long L$set$509
	.long	LFB2618
	.set L$set$510,LFE2618-LFB2618
	.long L$set$510
	.byte	0x4
	.set L$set$511,LCFI160-LFB2618
	.long L$set$511
	.byte	0xe
	.byte	0x8
	.byte	0x85
	.byte	0x2
	.byte	0x4
	.set L$set$512,LCFI161-LCFI160
	.long L$set$512
	.byte	0xd
	.byte	0x5
	.align 2
LEFDE104:
LSFDE106:
	.set L$set$513,LEFDE106-LASFDE106
	.long L$set$513
LASFDE106:
	.set L$set$514,Lframe0-Lsection__debug_frame
	.long L$set$514
	.long	LFB2625
	.set L$set$515,LFE2625-LFB2625
	.long L$set$515
	.byte	0x4
	.set L$set$516,LCFI163-LFB2625
	.long L$set$516
	.byte	0xe
	.byte	0x8
	.byte	0x85
	.byte	0x2
	.byte	0x4
	.set L$set$517,LCFI164-LCFI163
	.long L$set$517
	.byte	0xd
	.byte	0x5
	.align 2
LEFDE106:
LSFDE108:
	.set L$set$518,LEFDE108-LASFDE108
	.long L$set$518
LASFDE108:
	.set L$set$519,Lframe0-Lsection__debug_frame
	.long L$set$519
	.long	LFB2642
	.set L$set$520,LFE2642-LFB2642
	.long L$set$520
	.byte	0x4
	.set L$set$521,LCFI166-LFB2642
	.long L$set$521
	.byte	0xe
	.byte	0x8
	.byte	0x85
	.byte	0x2
	.byte	0x4
	.set L$set$522,LCFI167-LCFI166
	.long L$set$522
	.byte	0xd
	.byte	0x5
	.align 2
LEFDE108:
LSFDE110:
	.set L$set$523,LEFDE110-LASFDE110
	.long L$set$523
LASFDE110:
	.set L$set$524,Lframe0-Lsection__debug_frame
	.long L$set$524
	.long	LFB2648
	.set L$set$525,LFE2648-LFB2648
	.long L$set$525
	.byte	0x4
	.set L$set$526,LCFI169-LFB2648
	.long L$set$526
	.byte	0xe
	.byte	0x8
	.byte	0x85
	.byte	0x2
	.byte	0x4
	.set L$set$527,LCFI170-LCFI169
	.long L$set$527
	.byte	0xd
	.byte	0x5
	.align 2
LEFDE110:
LSFDE112:
	.set L$set$528,LEFDE112-LASFDE112
	.long L$set$528
LASFDE112:
	.set L$set$529,Lframe0-Lsection__debug_frame
	.long L$set$529
	.long	LFB2650
	.set L$set$530,LFE2650-LFB2650
	.long L$set$530
	.byte	0x4
	.set L$set$531,LCFI172-LFB2650
	.long L$set$531
	.byte	0xe
	.byte	0x8
	.byte	0x85
	.byte	0x2
	.byte	0x4
	.set L$set$532,LCFI173-LCFI172
	.long L$set$532
	.byte	0xd
	.byte	0x5
	.align 2
LEFDE112:
LSFDE114:
	.set L$set$533,LEFDE114-LASFDE114
	.long L$set$533
LASFDE114:
	.set L$set$534,Lframe0-Lsection__debug_frame
	.long L$set$534
	.long	LFB2658
	.set L$set$535,LFE2658-LFB2658
	.long L$set$535
	.byte	0x4
	.set L$set$536,LCFI175-LFB2658
	.long L$set$536
	.byte	0xe
	.byte	0x8
	.byte	0x85
	.byte	0x2
	.byte	0x4
	.set L$set$537,LCFI176-LCFI175
	.long L$set$537
	.byte	0xd
	.byte	0x5
	.align 2
LEFDE114:
LSFDE116:
	.set L$set$538,LEFDE116-LASFDE116
	.long L$set$538
LASFDE116:
	.set L$set$539,Lframe0-Lsection__debug_frame
	.long L$set$539
	.long	LFB2617
	.set L$set$540,LFE2617-LFB2617
	.long L$set$540
	.byte	0x4
	.set L$set$541,LCFI178-LFB2617
	.long L$set$541
	.byte	0xe
	.byte	0x8
	.byte	0x85
	.byte	0x2
	.byte	0x4
	.set L$set$542,LCFI179-LCFI178
	.long L$set$542
	.byte	0xd
	.byte	0x5
	.align 2
LEFDE116:
LSFDE118:
	.set L$set$543,LEFDE118-LASFDE118
	.long L$set$543
LASFDE118:
	.set L$set$544,Lframe0-Lsection__debug_frame
	.long L$set$544
	.long	LFB2662
	.set L$set$545,LFE2662-LFB2662
	.long L$set$545
	.byte	0x4
	.set L$set$546,LCFI181-LFB2662
	.long L$set$546
	.byte	0xe
	.byte	0x8
	.byte	0x85
	.byte	0x2
	.byte	0x4
	.set L$set$547,LCFI182-LCFI181
	.long L$set$547
	.byte	0xd
	.byte	0x5
	.align 2
LEFDE118:
LSFDE120:
	.set L$set$548,LEFDE120-LASFDE120
	.long L$set$548
LASFDE120:
	.set L$set$549,Lframe0-Lsection__debug_frame
	.long L$set$549
	.long	LFB2669
	.set L$set$550,LFE2669-LFB2669
	.long L$set$550
	.byte	0x4
	.set L$set$551,LCFI184-LFB2669
	.long L$set$551
	.byte	0xe
	.byte	0x8
	.byte	0x85
	.byte	0x2
	.byte	0x4
	.set L$set$552,LCFI185-LCFI184
	.long L$set$552
	.byte	0xd
	.byte	0x5
	.align 2
LEFDE120:
LSFDE122:
	.set L$set$553,LEFDE122-LASFDE122
	.long L$set$553
LASFDE122:
	.set L$set$554,Lframe0-Lsection__debug_frame
	.long L$set$554
	.long	LFB2671
	.set L$set$555,LFE2671-LFB2671
	.long L$set$555
	.byte	0x4
	.set L$set$556,LCFI187-LFB2671
	.long L$set$556
	.byte	0xe
	.byte	0x8
	.byte	0x85
	.byte	0x2
	.byte	0x4
	.set L$set$557,LCFI188-LCFI187
	.long L$set$557
	.byte	0xd
	.byte	0x5
	.align 2
LEFDE122:
LSFDE124:
	.set L$set$558,LEFDE124-LASFDE124
	.long L$set$558
LASFDE124:
	.set L$set$559,Lframe0-Lsection__debug_frame
	.long L$set$559
	.long	LFB2674
	.set L$set$560,LFE2674-LFB2674
	.long L$set$560
	.byte	0x4
	.set L$set$561,LCFI190-LFB2674
	.long L$set$561
	.byte	0xe
	.byte	0x8
	.byte	0x85
	.byte	0x2
	.byte	0x4
	.set L$set$562,LCFI191-LCFI190
	.long L$set$562
	.byte	0xd
	.byte	0x5
	.align 2
LEFDE124:
LSFDE126:
	.set L$set$563,LEFDE126-LASFDE126
	.long L$set$563
LASFDE126:
	.set L$set$564,Lframe0-Lsection__debug_frame
	.long L$set$564
	.long	LFB2677
	.set L$set$565,LFE2677-LFB2677
	.long L$set$565
	.byte	0x4
	.set L$set$566,LCFI193-LFB2677
	.long L$set$566
	.byte	0xe
	.byte	0x8
	.byte	0x85
	.byte	0x2
	.byte	0x4
	.set L$set$567,LCFI194-LCFI193
	.long L$set$567
	.byte	0xd
	.byte	0x5
	.align 2
LEFDE126:
LSFDE128:
	.set L$set$568,LEFDE128-LASFDE128
	.long L$set$568
LASFDE128:
	.set L$set$569,Lframe0-Lsection__debug_frame
	.long L$set$569
	.long	LFB2685
	.set L$set$570,LFE2685-LFB2685
	.long L$set$570
	.byte	0x4
	.set L$set$571,LCFI196-LFB2685
	.long L$set$571
	.byte	0xe
	.byte	0x8
	.byte	0x85
	.byte	0x2
	.byte	0x4
	.set L$set$572,LCFI197-LCFI196
	.long L$set$572
	.byte	0xd
	.byte	0x5
	.align 2
LEFDE128:
LSFDE130:
	.set L$set$573,LEFDE130-LASFDE130
	.long L$set$573
LASFDE130:
	.set L$set$574,Lframe0-Lsection__debug_frame
	.long L$set$574
	.long	LFB2647
	.set L$set$575,LFE2647-LFB2647
	.long L$set$575
	.byte	0x4
	.set L$set$576,LCFI199-LFB2647
	.long L$set$576
	.byte	0xe
	.byte	0x8
	.byte	0x85
	.byte	0x2
	.byte	0x4
	.set L$set$577,LCFI200-LCFI199
	.long L$set$577
	.byte	0xd
	.byte	0x5
	.align 2
LEFDE130:
LSFDE132:
	.set L$set$578,LEFDE132-LASFDE132
	.long L$set$578
LASFDE132:
	.set L$set$579,Lframe0-Lsection__debug_frame
	.long L$set$579
	.long	LFB2689
	.set L$set$580,LFE2689-LFB2689
	.long L$set$580
	.byte	0x4
	.set L$set$581,LCFI202-LFB2689
	.long L$set$581
	.byte	0xe
	.byte	0x8
	.byte	0x85
	.byte	0x2
	.byte	0x4
	.set L$set$582,LCFI203-LCFI202
	.long L$set$582
	.byte	0xd
	.byte	0x5
	.align 2
LEFDE132:
LSFDE134:
	.set L$set$583,LEFDE134-LASFDE134
	.long L$set$583
LASFDE134:
	.set L$set$584,Lframe0-Lsection__debug_frame
	.long L$set$584
	.long	LFB2653
	.set L$set$585,LFE2653-LFB2653
	.long L$set$585
	.byte	0x4
	.set L$set$586,LCFI205-LFB2653
	.long L$set$586
	.byte	0xe
	.byte	0x8
	.byte	0x85
	.byte	0x2
	.byte	0x4
	.set L$set$587,LCFI206-LCFI205
	.long L$set$587
	.byte	0xd
	.byte	0x5
	.align 2
LEFDE134:
LSFDE136:
	.set L$set$588,LEFDE136-LASFDE136
	.long L$set$588
LASFDE136:
	.set L$set$589,Lframe0-Lsection__debug_frame
	.long L$set$589
	.long	LFB2614
	.set L$set$590,LFE2614-LFB2614
	.long L$set$590
	.byte	0x4
	.set L$set$591,LCFI208-LFB2614
	.long L$set$591
	.byte	0xe
	.byte	0x8
	.byte	0x85
	.byte	0x2
	.byte	0x4
	.set L$set$592,LCFI209-LCFI208
	.long L$set$592
	.byte	0xd
	.byte	0x5
	.byte	0x4
	.set L$set$593,LCFI212-LCFI209
	.long L$set$593
	.byte	0x86
	.byte	0x4
	.byte	0x87
	.byte	0x3
	.align 2
LEFDE136:
LSFDE138:
	.set L$set$594,LEFDE138-LASFDE138
	.long L$set$594
LASFDE138:
	.set L$set$595,Lframe0-Lsection__debug_frame
	.long L$set$595
	.long	LFB2698
	.set L$set$596,LFE2698-LFB2698
	.long L$set$596
	.byte	0x4
	.set L$set$597,LCFI213-LFB2698
	.long L$set$597
	.byte	0xe
	.byte	0x8
	.byte	0x85
	.byte	0x2
	.byte	0x4
	.set L$set$598,LCFI214-LCFI213
	.long L$set$598
	.byte	0xd
	.byte	0x5
	.align 2
LEFDE138:
LSFDE140:
	.set L$set$599,LEFDE140-LASFDE140
	.long L$set$599
LASFDE140:
	.set L$set$600,Lframe0-Lsection__debug_frame
	.long L$set$600
	.long	LFB2700
	.set L$set$601,LFE2700-LFB2700
	.long L$set$601
	.byte	0x4
	.set L$set$602,LCFI216-LFB2700
	.long L$set$602
	.byte	0xe
	.byte	0x8
	.byte	0x85
	.byte	0x2
	.byte	0x4
	.set L$set$603,LCFI217-LCFI216
	.long L$set$603
	.byte	0xd
	.byte	0x5
	.align 2
LEFDE140:
LSFDE142:
	.set L$set$604,LEFDE142-LASFDE142
	.long L$set$604
LASFDE142:
	.set L$set$605,Lframe0-Lsection__debug_frame
	.long L$set$605
	.long	LFB2703
	.set L$set$606,LFE2703-LFB2703
	.long L$set$606
	.byte	0x4
	.set L$set$607,LCFI219-LFB2703
	.long L$set$607
	.byte	0xe
	.byte	0x8
	.byte	0x85
	.byte	0x2
	.byte	0x4
	.set L$set$608,LCFI220-LCFI219
	.long L$set$608
	.byte	0xd
	.byte	0x5
	.align 2
LEFDE142:
LSFDE144:
	.set L$set$609,LEFDE144-LASFDE144
	.long L$set$609
LASFDE144:
	.set L$set$610,Lframe0-Lsection__debug_frame
	.long L$set$610
	.long	LFB2711
	.set L$set$611,LFE2711-LFB2711
	.long L$set$611
	.byte	0x4
	.set L$set$612,LCFI222-LFB2711
	.long L$set$612
	.byte	0xe
	.byte	0x8
	.byte	0x85
	.byte	0x2
	.byte	0x4
	.set L$set$613,LCFI223-LCFI222
	.long L$set$613
	.byte	0xd
	.byte	0x5
	.align 2
LEFDE144:
LSFDE146:
	.set L$set$614,LEFDE146-LASFDE146
	.long L$set$614
LASFDE146:
	.set L$set$615,Lframe0-Lsection__debug_frame
	.long L$set$615
	.long	LFB2712
	.set L$set$616,LFE2712-LFB2712
	.long L$set$616
	.byte	0x4
	.set L$set$617,LCFI225-LFB2712
	.long L$set$617
	.byte	0xe
	.byte	0x8
	.byte	0x85
	.byte	0x2
	.byte	0x4
	.set L$set$618,LCFI226-LCFI225
	.long L$set$618
	.byte	0xd
	.byte	0x5
	.align 2
LEFDE146:
LSFDE148:
	.set L$set$619,LEFDE148-LASFDE148
	.long L$set$619
LASFDE148:
	.set L$set$620,Lframe0-Lsection__debug_frame
	.long L$set$620
	.long	LFB2716
	.set L$set$621,LFE2716-LFB2716
	.long L$set$621
	.byte	0x4
	.set L$set$622,LCFI228-LFB2716
	.long L$set$622
	.byte	0xe
	.byte	0x8
	.byte	0x85
	.byte	0x2
	.byte	0x4
	.set L$set$623,LCFI229-LCFI228
	.long L$set$623
	.byte	0xd
	.byte	0x5
	.align 2
LEFDE148:
LSFDE150:
	.set L$set$624,LEFDE150-LASFDE150
	.long L$set$624
LASFDE150:
	.set L$set$625,Lframe0-Lsection__debug_frame
	.long L$set$625
	.long	LFB2719
	.set L$set$626,LFE2719-LFB2719
	.long L$set$626
	.byte	0x4
	.set L$set$627,LCFI231-LFB2719
	.long L$set$627
	.byte	0xe
	.byte	0x8
	.byte	0x85
	.byte	0x2
	.byte	0x4
	.set L$set$628,LCFI232-LCFI231
	.long L$set$628
	.byte	0xd
	.byte	0x5
	.align 2
LEFDE150:
LSFDE152:
	.set L$set$629,LEFDE152-LASFDE152
	.long L$set$629
LASFDE152:
	.set L$set$630,Lframe0-Lsection__debug_frame
	.long L$set$630
	.long	LFB2720
	.set L$set$631,LFE2720-LFB2720
	.long L$set$631
	.byte	0x4
	.set L$set$632,LCFI234-LFB2720
	.long L$set$632
	.byte	0xe
	.byte	0x8
	.byte	0x85
	.byte	0x2
	.byte	0x4
	.set L$set$633,LCFI235-LCFI234
	.long L$set$633
	.byte	0xd
	.byte	0x5
	.align 2
LEFDE152:
LSFDE154:
	.set L$set$634,LEFDE154-LASFDE154
	.long L$set$634
LASFDE154:
	.set L$set$635,Lframe0-Lsection__debug_frame
	.long L$set$635
	.long	LFB2721
	.set L$set$636,LFE2721-LFB2721
	.long L$set$636
	.byte	0x4
	.set L$set$637,LCFI237-LFB2721
	.long L$set$637
	.byte	0xe
	.byte	0x8
	.byte	0x85
	.byte	0x2
	.byte	0x4
	.set L$set$638,LCFI238-LCFI237
	.long L$set$638
	.byte	0xd
	.byte	0x5
	.align 2
LEFDE154:
LSFDE156:
	.set L$set$639,LEFDE156-LASFDE156
	.long L$set$639
LASFDE156:
	.set L$set$640,Lframe0-Lsection__debug_frame
	.long L$set$640
	.long	LFB2722
	.set L$set$641,LFE2722-LFB2722
	.long L$set$641
	.byte	0x4
	.set L$set$642,LCFI240-LFB2722
	.long L$set$642
	.byte	0xe
	.byte	0x8
	.byte	0x85
	.byte	0x2
	.byte	0x4
	.set L$set$643,LCFI241-LCFI240
	.long L$set$643
	.byte	0xd
	.byte	0x5
	.align 2
LEFDE156:
LSFDE158:
	.set L$set$644,LEFDE158-LASFDE158
	.long L$set$644
LASFDE158:
	.set L$set$645,Lframe0-Lsection__debug_frame
	.long L$set$645
	.long	LFB2725
	.set L$set$646,LFE2725-LFB2725
	.long L$set$646
	.byte	0x4
	.set L$set$647,LCFI243-LFB2725
	.long L$set$647
	.byte	0xe
	.byte	0x8
	.byte	0x85
	.byte	0x2
	.byte	0x4
	.set L$set$648,LCFI244-LCFI243
	.long L$set$648
	.byte	0xd
	.byte	0x5
	.align 2
LEFDE158:
LSFDE160:
	.set L$set$649,LEFDE160-LASFDE160
	.long L$set$649
LASFDE160:
	.set L$set$650,Lframe0-Lsection__debug_frame
	.long L$set$650
	.long	LFB2672
	.set L$set$651,LFE2672-LFB2672
	.long L$set$651
	.byte	0x4
	.set L$set$652,LCFI246-LFB2672
	.long L$set$652
	.byte	0xe
	.byte	0x8
	.byte	0x85
	.byte	0x2
	.byte	0x4
	.set L$set$653,LCFI247-LCFI246
	.long L$set$653
	.byte	0xd
	.byte	0x5
	.align 2
LEFDE160:
LSFDE162:
	.set L$set$654,LEFDE162-LASFDE162
	.long L$set$654
LASFDE162:
	.set L$set$655,Lframe0-Lsection__debug_frame
	.long L$set$655
	.long	LFB2670
	.set L$set$656,LFE2670-LFB2670
	.long L$set$656
	.byte	0x4
	.set L$set$657,LCFI249-LFB2670
	.long L$set$657
	.byte	0xe
	.byte	0x8
	.byte	0x85
	.byte	0x2
	.byte	0x4
	.set L$set$658,LCFI250-LCFI249
	.long L$set$658
	.byte	0xd
	.byte	0x5
	.align 2
LEFDE162:
LSFDE164:
	.set L$set$659,LEFDE164-LASFDE164
	.long L$set$659
LASFDE164:
	.set L$set$660,Lframe0-Lsection__debug_frame
	.long L$set$660
	.long	LFB2727
	.set L$set$661,LFE2727-LFB2727
	.long L$set$661
	.byte	0x4
	.set L$set$662,LCFI252-LFB2727
	.long L$set$662
	.byte	0xe
	.byte	0x8
	.byte	0x85
	.byte	0x2
	.byte	0x4
	.set L$set$663,LCFI253-LCFI252
	.long L$set$663
	.byte	0xd
	.byte	0x5
	.align 2
LEFDE164:
LSFDE166:
	.set L$set$664,LEFDE166-LASFDE166
	.long L$set$664
LASFDE166:
	.set L$set$665,Lframe0-Lsection__debug_frame
	.long L$set$665
	.long	LFB2728
	.set L$set$666,LFE2728-LFB2728
	.long L$set$666
	.byte	0x4
	.set L$set$667,LCFI255-LFB2728
	.long L$set$667
	.byte	0xe
	.byte	0x8
	.byte	0x85
	.byte	0x2
	.byte	0x4
	.set L$set$668,LCFI256-LCFI255
	.long L$set$668
	.byte	0xd
	.byte	0x5
	.align 2
LEFDE166:
LSFDE168:
	.set L$set$669,LEFDE168-LASFDE168
	.long L$set$669
LASFDE168:
	.set L$set$670,Lframe0-Lsection__debug_frame
	.long L$set$670
	.long	LFB2729
	.set L$set$671,LFE2729-LFB2729
	.long L$set$671
	.byte	0x4
	.set L$set$672,LCFI258-LFB2729
	.long L$set$672
	.byte	0xe
	.byte	0x8
	.byte	0x85
	.byte	0x2
	.byte	0x4
	.set L$set$673,LCFI259-LCFI258
	.long L$set$673
	.byte	0xd
	.byte	0x5
	.align 2
LEFDE168:
LSFDE170:
	.set L$set$674,LEFDE170-LASFDE170
	.long L$set$674
LASFDE170:
	.set L$set$675,Lframe0-Lsection__debug_frame
	.long L$set$675
	.long	LFB2732
	.set L$set$676,LFE2732-LFB2732
	.long L$set$676
	.byte	0x4
	.set L$set$677,LCFI261-LFB2732
	.long L$set$677
	.byte	0xe
	.byte	0x8
	.byte	0x85
	.byte	0x2
	.byte	0x4
	.set L$set$678,LCFI262-LCFI261
	.long L$set$678
	.byte	0xd
	.byte	0x5
	.align 2
LEFDE170:
LSFDE172:
	.set L$set$679,LEFDE172-LASFDE172
	.long L$set$679
LASFDE172:
	.set L$set$680,Lframe0-Lsection__debug_frame
	.long L$set$680
	.long	LFB2680
	.set L$set$681,LFE2680-LFB2680
	.long L$set$681
	.byte	0x4
	.set L$set$682,LCFI264-LFB2680
	.long L$set$682
	.byte	0xe
	.byte	0x8
	.byte	0x85
	.byte	0x2
	.byte	0x4
	.set L$set$683,LCFI265-LCFI264
	.long L$set$683
	.byte	0xd
	.byte	0x5
	.align 2
LEFDE172:
LSFDE174:
	.set L$set$684,LEFDE174-LASFDE174
	.long L$set$684
LASFDE174:
	.set L$set$685,Lframe0-Lsection__debug_frame
	.long L$set$685
	.long	LFB2644
	.set L$set$686,LFE2644-LFB2644
	.long L$set$686
	.byte	0x4
	.set L$set$687,LCFI267-LFB2644
	.long L$set$687
	.byte	0xe
	.byte	0x8
	.byte	0x85
	.byte	0x2
	.byte	0x4
	.set L$set$688,LCFI268-LCFI267
	.long L$set$688
	.byte	0xd
	.byte	0x5
	.byte	0x4
	.set L$set$689,LCFI271-LCFI268
	.long L$set$689
	.byte	0x86
	.byte	0x4
	.byte	0x87
	.byte	0x3
	.align 2
LEFDE174:
LSFDE176:
	.set L$set$690,LEFDE176-LASFDE176
	.long L$set$690
LASFDE176:
	.set L$set$691,Lframe0-Lsection__debug_frame
	.long L$set$691
	.long	LFB2737
	.set L$set$692,LFE2737-LFB2737
	.long L$set$692
	.byte	0x4
	.set L$set$693,LCFI272-LFB2737
	.long L$set$693
	.byte	0xe
	.byte	0x8
	.byte	0x85
	.byte	0x2
	.byte	0x4
	.set L$set$694,LCFI273-LCFI272
	.long L$set$694
	.byte	0xd
	.byte	0x5
	.align 2
LEFDE176:
LSFDE178:
	.set L$set$695,LEFDE178-LASFDE178
	.long L$set$695
LASFDE178:
	.set L$set$696,Lframe0-Lsection__debug_frame
	.long L$set$696
	.long	LFB2741
	.set L$set$697,LFE2741-LFB2741
	.long L$set$697
	.byte	0x4
	.set L$set$698,LCFI275-LFB2741
	.long L$set$698
	.byte	0xe
	.byte	0x8
	.byte	0x85
	.byte	0x2
	.byte	0x4
	.set L$set$699,LCFI276-LCFI275
	.long L$set$699
	.byte	0xd
	.byte	0x5
	.align 2
LEFDE178:
LSFDE180:
	.set L$set$700,LEFDE180-LASFDE180
	.long L$set$700
LASFDE180:
	.set L$set$701,Lframe0-Lsection__debug_frame
	.long L$set$701
	.long	LFB2744
	.set L$set$702,LFE2744-LFB2744
	.long L$set$702
	.byte	0x4
	.set L$set$703,LCFI278-LFB2744
	.long L$set$703
	.byte	0xe
	.byte	0x8
	.byte	0x85
	.byte	0x2
	.byte	0x4
	.set L$set$704,LCFI279-LCFI278
	.long L$set$704
	.byte	0xd
	.byte	0x5
	.align 2
LEFDE180:
LSFDE182:
	.set L$set$705,LEFDE182-LASFDE182
	.long L$set$705
LASFDE182:
	.set L$set$706,Lframe0-Lsection__debug_frame
	.long L$set$706
	.long	LFB2745
	.set L$set$707,LFE2745-LFB2745
	.long L$set$707
	.byte	0x4
	.set L$set$708,LCFI281-LFB2745
	.long L$set$708
	.byte	0xe
	.byte	0x8
	.byte	0x85
	.byte	0x2
	.byte	0x4
	.set L$set$709,LCFI282-LCFI281
	.long L$set$709
	.byte	0xd
	.byte	0x5
	.align 2
LEFDE182:
LSFDE184:
	.set L$set$710,LEFDE184-LASFDE184
	.long L$set$710
LASFDE184:
	.set L$set$711,Lframe0-Lsection__debug_frame
	.long L$set$711
	.long	LFB2748
	.set L$set$712,LFE2748-LFB2748
	.long L$set$712
	.byte	0x4
	.set L$set$713,LCFI284-LFB2748
	.long L$set$713
	.byte	0xe
	.byte	0x8
	.byte	0x85
	.byte	0x2
	.byte	0x4
	.set L$set$714,LCFI285-LCFI284
	.long L$set$714
	.byte	0xd
	.byte	0x5
	.align 2
LEFDE184:
LSFDE186:
	.set L$set$715,LEFDE186-LASFDE186
	.long L$set$715
LASFDE186:
	.set L$set$716,Lframe0-Lsection__debug_frame
	.long L$set$716
	.long	LFB2701
	.set L$set$717,LFE2701-LFB2701
	.long L$set$717
	.byte	0x4
	.set L$set$718,LCFI287-LFB2701
	.long L$set$718
	.byte	0xe
	.byte	0x8
	.byte	0x85
	.byte	0x2
	.byte	0x4
	.set L$set$719,LCFI288-LCFI287
	.long L$set$719
	.byte	0xd
	.byte	0x5
	.align 2
LEFDE186:
LSFDE188:
	.set L$set$720,LEFDE188-LASFDE188
	.long L$set$720
LASFDE188:
	.set L$set$721,Lframe0-Lsection__debug_frame
	.long L$set$721
	.long	LFB2699
	.set L$set$722,LFE2699-LFB2699
	.long L$set$722
	.byte	0x4
	.set L$set$723,LCFI290-LFB2699
	.long L$set$723
	.byte	0xe
	.byte	0x8
	.byte	0x85
	.byte	0x2
	.byte	0x4
	.set L$set$724,LCFI291-LCFI290
	.long L$set$724
	.byte	0xd
	.byte	0x5
	.align 2
LEFDE188:
LSFDE190:
	.set L$set$725,LEFDE190-LASFDE190
	.long L$set$725
LASFDE190:
	.set L$set$726,Lframe0-Lsection__debug_frame
	.long L$set$726
	.long	LFB2749
	.set L$set$727,LFE2749-LFB2749
	.long L$set$727
	.byte	0x4
	.set L$set$728,LCFI293-LFB2749
	.long L$set$728
	.byte	0xe
	.byte	0x8
	.byte	0x85
	.byte	0x2
	.byte	0x4
	.set L$set$729,LCFI294-LCFI293
	.long L$set$729
	.byte	0xd
	.byte	0x5
	.align 2
LEFDE190:
LSFDE192:
	.set L$set$730,LEFDE192-LASFDE192
	.long L$set$730
LASFDE192:
	.set L$set$731,Lframe0-Lsection__debug_frame
	.long L$set$731
	.long	LFB2750
	.set L$set$732,LFE2750-LFB2750
	.long L$set$732
	.byte	0x4
	.set L$set$733,LCFI296-LFB2750
	.long L$set$733
	.byte	0xe
	.byte	0x8
	.byte	0x85
	.byte	0x2
	.byte	0x4
	.set L$set$734,LCFI297-LCFI296
	.long L$set$734
	.byte	0xd
	.byte	0x5
	.align 2
LEFDE192:
LSFDE194:
	.set L$set$735,LEFDE194-LASFDE194
	.long L$set$735
LASFDE194:
	.set L$set$736,Lframe0-Lsection__debug_frame
	.long L$set$736
	.long	LFB2751
	.set L$set$737,LFE2751-LFB2751
	.long L$set$737
	.byte	0x4
	.set L$set$738,LCFI299-LFB2751
	.long L$set$738
	.byte	0xe
	.byte	0x8
	.byte	0x85
	.byte	0x2
	.byte	0x4
	.set L$set$739,LCFI300-LCFI299
	.long L$set$739
	.byte	0xd
	.byte	0x5
	.align 2
LEFDE194:
LSFDE196:
	.set L$set$740,LEFDE196-LASFDE196
	.long L$set$740
LASFDE196:
	.set L$set$741,Lframe0-Lsection__debug_frame
	.long L$set$741
	.long	LFB2756
	.set L$set$742,LFE2756-LFB2756
	.long L$set$742
	.byte	0x4
	.set L$set$743,LCFI302-LFB2756
	.long L$set$743
	.byte	0xe
	.byte	0x8
	.byte	0x85
	.byte	0x2
	.byte	0x4
	.set L$set$744,LCFI303-LCFI302
	.long L$set$744
	.byte	0xd
	.byte	0x5
	.align 2
LEFDE196:
LSFDE198:
	.set L$set$745,LEFDE198-LASFDE198
	.long L$set$745
LASFDE198:
	.set L$set$746,Lframe0-Lsection__debug_frame
	.long L$set$746
	.long	LFB2757
	.set L$set$747,LFE2757-LFB2757
	.long L$set$747
	.byte	0x4
	.set L$set$748,LCFI305-LFB2757
	.long L$set$748
	.byte	0xe
	.byte	0x8
	.byte	0x85
	.byte	0x2
	.byte	0x4
	.set L$set$749,LCFI306-LCFI305
	.long L$set$749
	.byte	0xd
	.byte	0x5
	.align 2
LEFDE198:
LSFDE200:
	.set L$set$750,LEFDE200-LASFDE200
	.long L$set$750
LASFDE200:
	.set L$set$751,Lframe0-Lsection__debug_frame
	.long L$set$751
	.long	LFB2713
	.set L$set$752,LFE2713-LFB2713
	.long L$set$752
	.byte	0x4
	.set L$set$753,LCFI308-LFB2713
	.long L$set$753
	.byte	0xe
	.byte	0x8
	.byte	0x85
	.byte	0x2
	.byte	0x4
	.set L$set$754,LCFI309-LCFI308
	.long L$set$754
	.byte	0xd
	.byte	0x5
	.byte	0x4
	.set L$set$755,LCFI311-LCFI309
	.long L$set$755
	.byte	0x86
	.byte	0x3
	.align 2
LEFDE200:
LSFDE202:
	.set L$set$756,LEFDE202-LASFDE202
	.long L$set$756
LASFDE202:
	.set L$set$757,Lframe0-Lsection__debug_frame
	.long L$set$757
	.long	LFB2666
	.set L$set$758,LFE2666-LFB2666
	.long L$set$758
	.byte	0x4
	.set L$set$759,LCFI312-LFB2666
	.long L$set$759
	.byte	0xe
	.byte	0x8
	.byte	0x85
	.byte	0x2
	.byte	0x4
	.set L$set$760,LCFI313-LCFI312
	.long L$set$760
	.byte	0xd
	.byte	0x5
	.align 2
LEFDE202:
LSFDE204:
	.set L$set$761,LEFDE204-LASFDE204
	.long L$set$761
LASFDE204:
	.set L$set$762,Lframe0-Lsection__debug_frame
	.long L$set$762
	.long	LFB2665
	.set L$set$763,LFE2665-LFB2665
	.long L$set$763
	.byte	0x4
	.set L$set$764,LCFI315-LFB2665
	.long L$set$764
	.byte	0xe
	.byte	0x8
	.byte	0x85
	.byte	0x2
	.byte	0x4
	.set L$set$765,LCFI316-LCFI315
	.long L$set$765
	.byte	0xd
	.byte	0x5
	.align 2
LEFDE204:
LSFDE206:
	.set L$set$766,LEFDE206-LASFDE206
	.long L$set$766
LASFDE206:
	.set L$set$767,Lframe0-Lsection__debug_frame
	.long L$set$767
	.long	LFB2641
	.set L$set$768,LFE2641-LFB2641
	.long L$set$768
	.byte	0x4
	.set L$set$769,LCFI318-LFB2641
	.long L$set$769
	.byte	0xe
	.byte	0x8
	.byte	0x85
	.byte	0x2
	.byte	0x4
	.set L$set$770,LCFI319-LCFI318
	.long L$set$770
	.byte	0xd
	.byte	0x5
	.align 2
LEFDE206:
LSFDE208:
	.set L$set$771,LEFDE208-LASFDE208
	.long L$set$771
LASFDE208:
	.set L$set$772,Lframe0-Lsection__debug_frame
	.long L$set$772
	.long	LFB2762
	.set L$set$773,LFE2762-LFB2762
	.long L$set$773
	.byte	0x4
	.set L$set$774,LCFI321-LFB2762
	.long L$set$774
	.byte	0xe
	.byte	0x8
	.byte	0x85
	.byte	0x2
	.byte	0x4
	.set L$set$775,LCFI322-LCFI321
	.long L$set$775
	.byte	0xd
	.byte	0x5
	.align 2
LEFDE208:
LSFDE210:
	.set L$set$776,LEFDE210-LASFDE210
	.long L$set$776
LASFDE210:
	.set L$set$777,Lframe0-Lsection__debug_frame
	.long L$set$777
	.long	LFB2764
	.set L$set$778,LFE2764-LFB2764
	.long L$set$778
	.byte	0x4
	.set L$set$779,LCFI324-LFB2764
	.long L$set$779
	.byte	0xe
	.byte	0x8
	.byte	0x85
	.byte	0x2
	.byte	0x4
	.set L$set$780,LCFI325-LCFI324
	.long L$set$780
	.byte	0xd
	.byte	0x5
	.align 2
LEFDE210:
LSFDE212:
	.set L$set$781,LEFDE212-LASFDE212
	.long L$set$781
LASFDE212:
	.set L$set$782,Lframe0-Lsection__debug_frame
	.long L$set$782
	.long	LFB2765
	.set L$set$783,LFE2765-LFB2765
	.long L$set$783
	.byte	0x4
	.set L$set$784,LCFI327-LFB2765
	.long L$set$784
	.byte	0xe
	.byte	0x8
	.byte	0x85
	.byte	0x2
	.byte	0x4
	.set L$set$785,LCFI328-LCFI327
	.long L$set$785
	.byte	0xd
	.byte	0x5
	.align 2
LEFDE212:
LSFDE214:
	.set L$set$786,LEFDE214-LASFDE214
	.long L$set$786
LASFDE214:
	.set L$set$787,Lframe0-Lsection__debug_frame
	.long L$set$787
	.long	LFB2738
	.set L$set$788,LFE2738-LFB2738
	.long L$set$788
	.byte	0x4
	.set L$set$789,LCFI330-LFB2738
	.long L$set$789
	.byte	0xe
	.byte	0x8
	.byte	0x85
	.byte	0x2
	.byte	0x4
	.set L$set$790,LCFI331-LCFI330
	.long L$set$790
	.byte	0xd
	.byte	0x5
	.byte	0x4
	.set L$set$791,LCFI333-LCFI331
	.long L$set$791
	.byte	0x86
	.byte	0x3
	.align 2
LEFDE214:
LSFDE216:
	.set L$set$792,LEFDE216-LASFDE216
	.long L$set$792
LASFDE216:
	.set L$set$793,Lframe0-Lsection__debug_frame
	.long L$set$793
	.long	LFB2695
	.set L$set$794,LFE2695-LFB2695
	.long L$set$794
	.byte	0x4
	.set L$set$795,LCFI334-LFB2695
	.long L$set$795
	.byte	0xe
	.byte	0x8
	.byte	0x85
	.byte	0x2
	.byte	0x4
	.set L$set$796,LCFI335-LCFI334
	.long L$set$796
	.byte	0xd
	.byte	0x5
	.align 2
LEFDE216:
LSFDE218:
	.set L$set$797,LEFDE218-LASFDE218
	.long L$set$797
LASFDE218:
	.set L$set$798,Lframe0-Lsection__debug_frame
	.long L$set$798
	.long	LFB2694
	.set L$set$799,LFE2694-LFB2694
	.long L$set$799
	.byte	0x4
	.set L$set$800,LCFI337-LFB2694
	.long L$set$800
	.byte	0xe
	.byte	0x8
	.byte	0x85
	.byte	0x2
	.byte	0x4
	.set L$set$801,LCFI338-LCFI337
	.long L$set$801
	.byte	0xd
	.byte	0x5
	.align 2
LEFDE218:
LSFDE220:
	.set L$set$802,LEFDE220-LASFDE220
	.long L$set$802
LASFDE220:
	.set L$set$803,Lframe0-Lsection__debug_frame
	.long L$set$803
	.long	LFB2661
	.set L$set$804,LFE2661-LFB2661
	.long L$set$804
	.byte	0x4
	.set L$set$805,LCFI340-LFB2661
	.long L$set$805
	.byte	0xe
	.byte	0x8
	.byte	0x85
	.byte	0x2
	.byte	0x4
	.set L$set$806,LCFI341-LCFI340
	.long L$set$806
	.byte	0xd
	.byte	0x5
	.align 2
LEFDE220:
LSFDE222:
	.set L$set$807,LEFDE222-LASFDE222
	.long L$set$807
LASFDE222:
	.set L$set$808,Lframe0-Lsection__debug_frame
	.long L$set$808
	.long	LFB2766
	.set L$set$809,LFE2766-LFB2766
	.long L$set$809
	.byte	0x4
	.set L$set$810,LCFI343-LFB2766
	.long L$set$810
	.byte	0xe
	.byte	0x8
	.byte	0x85
	.byte	0x2
	.byte	0x4
	.set L$set$811,LCFI344-LCFI343
	.long L$set$811
	.byte	0xd
	.byte	0x5
	.align 2
LEFDE222:
LSFDE224:
	.set L$set$812,LEFDE224-LASFDE224
	.long L$set$812
LASFDE224:
	.set L$set$813,Lframe0-Lsection__debug_frame
	.long L$set$813
	.long	LFB2774
	.set L$set$814,LFE2774-LFB2774
	.long L$set$814
	.byte	0x4
	.set L$set$815,LCFI346-LFB2774
	.long L$set$815
	.byte	0xe
	.byte	0x8
	.byte	0x85
	.byte	0x2
	.byte	0x4
	.set L$set$816,LCFI347-LCFI346
	.long L$set$816
	.byte	0xd
	.byte	0x5
	.align 2
LEFDE224:
LSFDE226:
	.set L$set$817,LEFDE226-LASFDE226
	.long L$set$817
LASFDE226:
	.set L$set$818,Lframe0-Lsection__debug_frame
	.long L$set$818
	.long	LFB2761
	.set L$set$819,LFE2761-LFB2761
	.long L$set$819
	.byte	0x4
	.set L$set$820,LCFI349-LFB2761
	.long L$set$820
	.byte	0xe
	.byte	0x8
	.byte	0x85
	.byte	0x2
	.byte	0x4
	.set L$set$821,LCFI350-LCFI349
	.long L$set$821
	.byte	0xd
	.byte	0x5
	.align 2
LEFDE226:
LSFDE228:
	.set L$set$822,LEFDE228-LASFDE228
	.long L$set$822
LASFDE228:
	.set L$set$823,Lframe0-Lsection__debug_frame
	.long L$set$823
	.long	LFB2778
	.set L$set$824,LFE2778-LFB2778
	.long L$set$824
	.byte	0x4
	.set L$set$825,LCFI352-LFB2778
	.long L$set$825
	.byte	0xe
	.byte	0x8
	.byte	0x85
	.byte	0x2
	.byte	0x4
	.set L$set$826,LCFI353-LCFI352
	.long L$set$826
	.byte	0xd
	.byte	0x5
	.align 2
LEFDE228:
LSFDE230:
	.set L$set$827,LEFDE230-LASFDE230
	.long L$set$827
LASFDE230:
	.set L$set$828,Lframe0-Lsection__debug_frame
	.long L$set$828
	.long	LFB2769
	.set L$set$829,LFE2769-LFB2769
	.long L$set$829
	.byte	0x4
	.set L$set$830,LCFI355-LFB2769
	.long L$set$830
	.byte	0xe
	.byte	0x8
	.byte	0x85
	.byte	0x2
	.byte	0x4
	.set L$set$831,LCFI356-LCFI355
	.long L$set$831
	.byte	0xd
	.byte	0x5
	.align 2
LEFDE230:
LSFDE232:
	.set L$set$832,LEFDE232-LASFDE232
	.long L$set$832
LASFDE232:
	.set L$set$833,Lframe0-Lsection__debug_frame
	.long L$set$833
	.long	LFB2758
	.set L$set$834,LFE2758-LFB2758
	.long L$set$834
	.byte	0x4
	.set L$set$835,LCFI358-LFB2758
	.long L$set$835
	.byte	0xe
	.byte	0x8
	.byte	0x85
	.byte	0x2
	.byte	0x4
	.set L$set$836,LCFI359-LCFI358
	.long L$set$836
	.byte	0xd
	.byte	0x5
	.byte	0x4
	.set L$set$837,LCFI362-LCFI359
	.long L$set$837
	.byte	0x86
	.byte	0x4
	.byte	0x87
	.byte	0x3
	.align 2
LEFDE232:
LSFDE234:
	.set L$set$838,LEFDE234-LASFDE234
	.long L$set$838
LASFDE234:
	.set L$set$839,Lframe0-Lsection__debug_frame
	.long L$set$839
	.long	LFB2785
	.set L$set$840,LFE2785-LFB2785
	.long L$set$840
	.byte	0x4
	.set L$set$841,LCFI363-LFB2785
	.long L$set$841
	.byte	0xe
	.byte	0x8
	.byte	0x85
	.byte	0x2
	.byte	0x4
	.set L$set$842,LCFI364-LCFI363
	.long L$set$842
	.byte	0xd
	.byte	0x5
	.byte	0x4
	.set L$set$843,LCFI366-LCFI364
	.long L$set$843
	.byte	0x83
	.byte	0x3
	.align 2
LEFDE234:
LSFDE236:
	.set L$set$844,LEFDE236-LASFDE236
	.long L$set$844
LASFDE236:
	.set L$set$845,Lframe0-Lsection__debug_frame
	.long L$set$845
	.long	LFB2786
	.set L$set$846,LFE2786-LFB2786
	.long L$set$846
	.byte	0x4
	.set L$set$847,LCFI367-LFB2786
	.long L$set$847
	.byte	0xe
	.byte	0x8
	.byte	0x85
	.byte	0x2
	.byte	0x4
	.set L$set$848,LCFI368-LCFI367
	.long L$set$848
	.byte	0xd
	.byte	0x5
	.byte	0x4
	.set L$set$849,LCFI370-LCFI368
	.long L$set$849
	.byte	0x83
	.byte	0x3
	.align 2
LEFDE236:
LSFDE238:
	.set L$set$850,LEFDE238-LASFDE238
	.long L$set$850
LASFDE238:
	.set L$set$851,Lframe0-Lsection__debug_frame
	.long L$set$851
	.long	LFB2787
	.set L$set$852,LFE2787-LFB2787
	.long L$set$852
	.byte	0x4
	.set L$set$853,LCFI371-LFB2787
	.long L$set$853
	.byte	0xe
	.byte	0x8
	.byte	0x85
	.byte	0x2
	.byte	0x4
	.set L$set$854,LCFI372-LCFI371
	.long L$set$854
	.byte	0xd
	.byte	0x5
	.byte	0x4
	.set L$set$855,LCFI374-LCFI372
	.long L$set$855
	.byte	0x83
	.byte	0x3
	.align 2
LEFDE238:
LSFDE240:
	.set L$set$856,LEFDE240-LASFDE240
	.long L$set$856
LASFDE240:
	.set L$set$857,Lframe0-Lsection__debug_frame
	.long L$set$857
	.long	LFB2788
	.set L$set$858,LFE2788-LFB2788
	.long L$set$858
	.byte	0x4
	.set L$set$859,LCFI375-LFB2788
	.long L$set$859
	.byte	0xe
	.byte	0x8
	.byte	0x85
	.byte	0x2
	.byte	0x4
	.set L$set$860,LCFI376-LCFI375
	.long L$set$860
	.byte	0xd
	.byte	0x5
	.byte	0x4
	.set L$set$861,LCFI378-LCFI376
	.long L$set$861
	.byte	0x83
	.byte	0x3
	.align 2
LEFDE240:
LSFDE242:
	.set L$set$862,LEFDE242-LASFDE242
	.long L$set$862
LASFDE242:
	.set L$set$863,Lframe0-Lsection__debug_frame
	.long L$set$863
	.long	LFB2783
	.set L$set$864,LFE2783-LFB2783
	.long L$set$864
	.byte	0x4
	.set L$set$865,LCFI379-LFB2783
	.long L$set$865
	.byte	0xe
	.byte	0x8
	.byte	0x85
	.byte	0x2
	.byte	0x4
	.set L$set$866,LCFI380-LCFI379
	.long L$set$866
	.byte	0xd
	.byte	0x5
	.byte	0x4
	.set L$set$867,LCFI383-LCFI380
	.long L$set$867
	.byte	0x83
	.byte	0x4
	.byte	0x86
	.byte	0x3
	.align 2
LEFDE242:
LSFDE244:
	.set L$set$868,LEFDE244-LASFDE244
	.long L$set$868
LASFDE244:
	.set L$set$869,Lframe0-Lsection__debug_frame
	.long L$set$869
	.long	LFB2793
	.set L$set$870,LFE2793-LFB2793
	.long L$set$870
	.byte	0x4
	.set L$set$871,LCFI384-LFB2793
	.long L$set$871
	.byte	0xe
	.byte	0x8
	.byte	0x85
	.byte	0x2
	.byte	0x4
	.set L$set$872,LCFI385-LCFI384
	.long L$set$872
	.byte	0xd
	.byte	0x5
	.align 2
LEFDE244:
LSFDE246:
	.set L$set$873,LEFDE246-LASFDE246
	.long L$set$873
LASFDE246:
	.set L$set$874,Lframe0-Lsection__debug_frame
	.long L$set$874
	.long	LFB2776
	.set L$set$875,LFE2776-LFB2776
	.long L$set$875
	.byte	0x4
	.set L$set$876,LCFI387-LFB2776
	.long L$set$876
	.byte	0xe
	.byte	0x8
	.byte	0x85
	.byte	0x2
	.byte	0x4
	.set L$set$877,LCFI388-LCFI387
	.long L$set$877
	.byte	0xd
	.byte	0x5
	.align 2
LEFDE246:
LSFDE248:
	.set L$set$878,LEFDE248-LASFDE248
	.long L$set$878
LASFDE248:
	.set L$set$879,Lframe0-Lsection__debug_frame
	.long L$set$879
	.long	LFB2763
	.set L$set$880,LFE2763-LFB2763
	.long L$set$880
	.byte	0x4
	.set L$set$881,LCFI390-LFB2763
	.long L$set$881
	.byte	0xe
	.byte	0x8
	.byte	0x85
	.byte	0x2
	.byte	0x4
	.set L$set$882,LCFI391-LCFI390
	.long L$set$882
	.byte	0xd
	.byte	0x5
	.align 2
LEFDE248:
LSFDE250:
	.set L$set$883,LEFDE250-LASFDE250
	.long L$set$883
LASFDE250:
	.set L$set$884,Lframe0-Lsection__debug_frame
	.long L$set$884
	.long	LFB2730
	.set L$set$885,LFE2730-LFB2730
	.long L$set$885
	.byte	0x4
	.set L$set$886,LCFI393-LFB2730
	.long L$set$886
	.byte	0xe
	.byte	0x8
	.byte	0x85
	.byte	0x2
	.byte	0x4
	.set L$set$887,LCFI394-LCFI393
	.long L$set$887
	.byte	0xd
	.byte	0x5
	.byte	0x4
	.set L$set$888,LCFI396-LCFI394
	.long L$set$888
	.byte	0x86
	.byte	0x3
	.align 2
LEFDE250:
LSFDE252:
	.set L$set$889,LEFDE252-LASFDE252
	.long L$set$889
LASFDE252:
	.set L$set$890,Lframe0-Lsection__debug_frame
	.long L$set$890
	.long	LFB2726
	.set L$set$891,LFE2726-LFB2726
	.long L$set$891
	.byte	0x4
	.set L$set$892,LCFI397-LFB2726
	.long L$set$892
	.byte	0xe
	.byte	0x8
	.byte	0x85
	.byte	0x2
	.byte	0x4
	.set L$set$893,LCFI398-LCFI397
	.long L$set$893
	.byte	0xd
	.byte	0x5
	.align 2
LEFDE252:
LSFDE254:
	.set L$set$894,LEFDE254-LASFDE254
	.long L$set$894
LASFDE254:
	.set L$set$895,Lframe0-Lsection__debug_frame
	.long L$set$895
	.long	LFB2673
	.set L$set$896,LFE2673-LFB2673
	.long L$set$896
	.byte	0x4
	.set L$set$897,LCFI400-LFB2673
	.long L$set$897
	.byte	0xe
	.byte	0x8
	.byte	0x85
	.byte	0x2
	.byte	0x4
	.set L$set$898,LCFI401-LCFI400
	.long L$set$898
	.byte	0xd
	.byte	0x5
	.byte	0x4
	.set L$set$899,LCFI403-LCFI401
	.long L$set$899
	.byte	0x86
	.byte	0x3
	.align 2
LEFDE254:
LSFDE256:
	.set L$set$900,LEFDE256-LASFDE256
	.long L$set$900
LASFDE256:
	.set L$set$901,Lframe0-Lsection__debug_frame
	.long L$set$901
	.long	LFB2626
	.set L$set$902,LFE2626-LFB2626
	.long L$set$902
	.byte	0x4
	.set L$set$903,LCFI404-LFB2626
	.long L$set$903
	.byte	0xe
	.byte	0x8
	.byte	0x85
	.byte	0x2
	.byte	0x4
	.set L$set$904,LCFI405-LCFI404
	.long L$set$904
	.byte	0xd
	.byte	0x5
	.align 2
LEFDE256:
LSFDE258:
	.set L$set$905,LEFDE258-LASFDE258
	.long L$set$905
LASFDE258:
	.set L$set$906,Lframe0-Lsection__debug_frame
	.long L$set$906
	.long	LFB2595
	.set L$set$907,LFE2595-LFB2595
	.long L$set$907
	.byte	0x4
	.set L$set$908,LCFI407-LFB2595
	.long L$set$908
	.byte	0xe
	.byte	0x8
	.byte	0x85
	.byte	0x2
	.byte	0x4
	.set L$set$909,LCFI408-LCFI407
	.long L$set$909
	.byte	0xd
	.byte	0x5
	.byte	0x4
	.set L$set$910,LCFI410-LCFI408
	.long L$set$910
	.byte	0x86
	.byte	0x3
	.align 2
LEFDE258:
LSFDE260:
	.set L$set$911,LEFDE260-LASFDE260
	.long L$set$911
LASFDE260:
	.set L$set$912,Lframe0-Lsection__debug_frame
	.long L$set$912
	.long	LFB2687
	.set L$set$913,LFE2687-LFB2687
	.long L$set$913
	.byte	0x4
	.set L$set$914,LCFI411-LFB2687
	.long L$set$914
	.byte	0xe
	.byte	0x8
	.byte	0x85
	.byte	0x2
	.byte	0x4
	.set L$set$915,LCFI412-LCFI411
	.long L$set$915
	.byte	0xd
	.byte	0x5
	.align 2
LEFDE260:
LSFDE262:
	.set L$set$916,LEFDE262-LASFDE262
	.long L$set$916
LASFDE262:
	.set L$set$917,Lframe0-Lsection__debug_frame
	.long L$set$917
	.long	LFB2649
	.set L$set$918,LFE2649-LFB2649
	.long L$set$918
	.byte	0x4
	.set L$set$919,LCFI414-LFB2649
	.long L$set$919
	.byte	0xe
	.byte	0x8
	.byte	0x85
	.byte	0x2
	.byte	0x4
	.set L$set$920,LCFI415-LCFI414
	.long L$set$920
	.byte	0xd
	.byte	0x5
	.align 2
LEFDE262:
LSFDE264:
	.set L$set$921,LEFDE264-LASFDE264
	.long L$set$921
LASFDE264:
	.set L$set$922,Lframe0-Lsection__debug_frame
	.long L$set$922
	.long	LFB2610
	.set L$set$923,LFE2610-LFB2610
	.long L$set$923
	.byte	0x4
	.set L$set$924,LCFI417-LFB2610
	.long L$set$924
	.byte	0xe
	.byte	0x8
	.byte	0x85
	.byte	0x2
	.byte	0x4
	.set L$set$925,LCFI418-LCFI417
	.long L$set$925
	.byte	0xd
	.byte	0x5
	.byte	0x4
	.set L$set$926,LCFI420-LCFI418
	.long L$set$926
	.byte	0x86
	.byte	0x3
	.align 2
LEFDE264:
LSFDE266:
	.set L$set$927,LEFDE266-LASFDE266
	.long L$set$927
LASFDE266:
	.set L$set$928,Lframe0-Lsection__debug_frame
	.long L$set$928
	.long	LFB2577
	.set L$set$929,LFE2577-LFB2577
	.long L$set$929
	.byte	0x4
	.set L$set$930,LCFI421-LFB2577
	.long L$set$930
	.byte	0xe
	.byte	0x8
	.byte	0x85
	.byte	0x2
	.byte	0x4
	.set L$set$931,LCFI422-LCFI421
	.long L$set$931
	.byte	0xd
	.byte	0x5
	.align 2
LEFDE266:
LSFDE268:
	.set L$set$932,LEFDE268-LASFDE268
	.long L$set$932
LASFDE268:
	.set L$set$933,Lframe0-Lsection__debug_frame
	.long L$set$933
	.long	LFB2702
	.set L$set$934,LFE2702-LFB2702
	.long L$set$934
	.byte	0x4
	.set L$set$935,LCFI424-LFB2702
	.long L$set$935
	.byte	0xe
	.byte	0x8
	.byte	0x85
	.byte	0x2
	.byte	0x4
	.set L$set$936,LCFI425-LCFI424
	.long L$set$936
	.byte	0xd
	.byte	0x5
	.byte	0x4
	.set L$set$937,LCFI427-LCFI425
	.long L$set$937
	.byte	0x86
	.byte	0x3
	.align 2
LEFDE268:
LSFDE270:
	.set L$set$938,LEFDE270-LASFDE270
	.long L$set$938
LASFDE270:
	.set L$set$939,Lframe0-Lsection__debug_frame
	.long L$set$939
	.long	LFB2535
	.set L$set$940,LFE2535-LFB2535
	.long L$set$940
	.byte	0x4
	.set L$set$941,LCFI428-LFB2535
	.long L$set$941
	.byte	0xe
	.byte	0x8
	.byte	0x85
	.byte	0x2
	.byte	0x4
	.set L$set$942,LCFI429-LCFI428
	.long L$set$942
	.byte	0xd
	.byte	0x5
	.byte	0x4
	.set L$set$943,LCFI431-LCFI429
	.long L$set$943
	.byte	0x86
	.byte	0x3
	.align 2
LEFDE270:
LSFDE272:
	.set L$set$944,LEFDE272-LASFDE272
	.long L$set$944
LASFDE272:
	.set L$set$945,Lframe0-Lsection__debug_frame
	.long L$set$945
	.long	LFB2466
	.set L$set$946,LFE2466-LFB2466
	.long L$set$946
	.byte	0x4
	.set L$set$947,LCFI432-LFB2466
	.long L$set$947
	.byte	0xe
	.byte	0x8
	.byte	0x85
	.byte	0x2
	.byte	0x4
	.set L$set$948,LCFI433-LCFI432
	.long L$set$948
	.byte	0xd
	.byte	0x5
	.align 2
LEFDE272:
LSFDE274:
	.set L$set$949,LEFDE274-LASFDE274
	.long L$set$949
LASFDE274:
	.set L$set$950,Lframe0-Lsection__debug_frame
	.long L$set$950
	.long	LFB2660
	.set L$set$951,LFE2660-LFB2660
	.long L$set$951
	.byte	0x4
	.set L$set$952,LCFI435-LFB2660
	.long L$set$952
	.byte	0xe
	.byte	0x8
	.byte	0x85
	.byte	0x2
	.byte	0x4
	.set L$set$953,LCFI436-LCFI435
	.long L$set$953
	.byte	0xd
	.byte	0x5
	.align 2
LEFDE274:
LSFDE276:
	.set L$set$954,LEFDE276-LASFDE276
	.long L$set$954
LASFDE276:
	.set L$set$955,Lframe0-Lsection__debug_frame
	.long L$set$955
	.long	LFB2622
	.set L$set$956,LFE2622-LFB2622
	.long L$set$956
	.byte	0x4
	.set L$set$957,LCFI438-LFB2622
	.long L$set$957
	.byte	0xe
	.byte	0x8
	.byte	0x85
	.byte	0x2
	.byte	0x4
	.set L$set$958,LCFI439-LCFI438
	.long L$set$958
	.byte	0xd
	.byte	0x5
	.align 2
LEFDE276:
LSFDE278:
	.set L$set$959,LEFDE278-LASFDE278
	.long L$set$959
LASFDE278:
	.set L$set$960,Lframe0-Lsection__debug_frame
	.long L$set$960
	.long	LFB2586
	.set L$set$961,LFE2586-LFB2586
	.long L$set$961
	.byte	0x4
	.set L$set$962,LCFI441-LFB2586
	.long L$set$962
	.byte	0xe
	.byte	0x8
	.byte	0x85
	.byte	0x2
	.byte	0x4
	.set L$set$963,LCFI442-LCFI441
	.long L$set$963
	.byte	0xd
	.byte	0x5
	.byte	0x4
	.set L$set$964,LCFI444-LCFI442
	.long L$set$964
	.byte	0x86
	.byte	0x3
	.align 2
LEFDE278:
LSFDE280:
	.set L$set$965,LEFDE280-LASFDE280
	.long L$set$965
LASFDE280:
	.set L$set$966,Lframe0-Lsection__debug_frame
	.long L$set$966
	.long	LFB2545
	.set L$set$967,LFE2545-LFB2545
	.long L$set$967
	.byte	0x4
	.set L$set$968,LCFI445-LFB2545
	.long L$set$968
	.byte	0xe
	.byte	0x8
	.byte	0x85
	.byte	0x2
	.byte	0x4
	.set L$set$969,LCFI446-LCFI445
	.long L$set$969
	.byte	0xd
	.byte	0x5
	.align 2
LEFDE280:
LSFDE282:
	.set L$set$970,LEFDE282-LASFDE282
	.long L$set$970
LASFDE282:
	.set L$set$971,Lframe0-Lsection__debug_frame
	.long L$set$971
	.long	LFB2474
	.set L$set$972,LFE2474-LFB2474
	.long L$set$972
	.byte	0x4
	.set L$set$973,LCFI448-LFB2474
	.long L$set$973
	.byte	0xe
	.byte	0x8
	.byte	0x85
	.byte	0x2
	.byte	0x4
	.set L$set$974,LCFI449-LCFI448
	.long L$set$974
	.byte	0xd
	.byte	0x5
	.byte	0x4
	.set L$set$975,LCFI451-LCFI449
	.long L$set$975
	.byte	0x86
	.byte	0x3
	.align 2
LEFDE282:
LSFDE284:
	.set L$set$976,LEFDE284-LASFDE284
	.long L$set$976
LASFDE284:
	.set L$set$977,Lframe0-Lsection__debug_frame
	.long L$set$977
	.long	LFB2393
	.set L$set$978,LFE2393-LFB2393
	.long L$set$978
	.byte	0x4
	.set L$set$979,LCFI452-LFB2393
	.long L$set$979
	.byte	0xe
	.byte	0x8
	.byte	0x85
	.byte	0x2
	.byte	0x4
	.set L$set$980,LCFI453-LCFI452
	.long L$set$980
	.byte	0xd
	.byte	0x5
	.align 2
LEFDE284:
LSFDE286:
	.set L$set$981,LEFDE286-LASFDE286
	.long L$set$981
LASFDE286:
	.set L$set$982,Lframe0-Lsection__debug_frame
	.long L$set$982
	.long	LFB283
	.set L$set$983,LFE283-LFB283
	.long L$set$983
	.byte	0x4
	.set L$set$984,LCFI455-LFB283
	.long L$set$984
	.byte	0xe
	.byte	0x8
	.byte	0x85
	.byte	0x2
	.byte	0x4
	.set L$set$985,LCFI456-LCFI455
	.long L$set$985
	.byte	0xd
	.byte	0x5
	.align 2
LEFDE286:
LSFDE288:
	.set L$set$986,LEFDE288-LASFDE288
	.long L$set$986
LASFDE288:
	.set L$set$987,Lframe0-Lsection__debug_frame
	.long L$set$987
	.long	LFB287
	.set L$set$988,LFE287-LFB287
	.long L$set$988
	.byte	0x4
	.set L$set$989,LCFI458-LFB287
	.long L$set$989
	.byte	0xe
	.byte	0x8
	.byte	0x85
	.byte	0x2
	.byte	0x4
	.set L$set$990,LCFI459-LCFI458
	.long L$set$990
	.byte	0xd
	.byte	0x5
	.align 2
LEFDE288:
LSFDE290:
	.set L$set$991,LEFDE290-LASFDE290
	.long L$set$991
LASFDE290:
	.set L$set$992,Lframe0-Lsection__debug_frame
	.long L$set$992
	.long	LFB2555
	.set L$set$993,LFE2555-LFB2555
	.long L$set$993
	.byte	0x4
	.set L$set$994,LCFI461-LFB2555
	.long L$set$994
	.byte	0xe
	.byte	0x8
	.byte	0x85
	.byte	0x2
	.byte	0x4
	.set L$set$995,LCFI462-LCFI461
	.long L$set$995
	.byte	0xd
	.byte	0x5
	.align 2
LEFDE290:
LSFDE292:
	.set L$set$996,LEFDE292-LASFDE292
	.long L$set$996
LASFDE292:
	.set L$set$997,Lframe0-Lsection__debug_frame
	.long L$set$997
	.long	LFB2480
	.set L$set$998,LFE2480-LFB2480
	.long L$set$998
	.byte	0x4
	.set L$set$999,LCFI464-LFB2480
	.long L$set$999
	.byte	0xe
	.byte	0x8
	.byte	0x85
	.byte	0x2
	.byte	0x4
	.set L$set$1000,LCFI465-LCFI464
	.long L$set$1000
	.byte	0xd
	.byte	0x5
	.align 2
LEFDE292:
LSFDE294:
	.set L$set$1001,LEFDE294-LASFDE294
	.long L$set$1001
LASFDE294:
	.set L$set$1002,Lframe0-Lsection__debug_frame
	.long L$set$1002
	.long	LFB2398
	.set L$set$1003,LFE2398-LFB2398
	.long L$set$1003
	.byte	0x4
	.set L$set$1004,LCFI467-LFB2398
	.long L$set$1004
	.byte	0xe
	.byte	0x8
	.byte	0x85
	.byte	0x2
	.byte	0x4
	.set L$set$1005,LCFI468-LCFI467
	.long L$set$1005
	.byte	0xd
	.byte	0x5
	.align 2
LEFDE294:
LSFDE296:
	.set L$set$1006,LEFDE296-LASFDE296
	.long L$set$1006
LASFDE296:
	.set L$set$1007,Lframe0-Lsection__debug_frame
	.long L$set$1007
	.long	LFB2784
	.set L$set$1008,LFE2784-LFB2784
	.long L$set$1008
	.byte	0x4
	.set L$set$1009,LCFI470-LFB2784
	.long L$set$1009
	.byte	0xe
	.byte	0x8
	.byte	0x85
	.byte	0x2
	.byte	0x4
	.set L$set$1010,LCFI471-LCFI470
	.long L$set$1010
	.byte	0xd
	.byte	0x5
	.byte	0x4
	.set L$set$1011,LCFI473-LCFI471
	.long L$set$1011
	.byte	0x83
	.byte	0x3
	.align 2
LEFDE296:
LSFDE298:
	.set L$set$1012,LEFDE298-LASFDE298
	.long L$set$1012
LASFDE298:
	.set L$set$1013,Lframe0-Lsection__debug_frame
	.long L$set$1013
	.long	LFB258
	.set L$set$1014,LFE258-LFB258
	.long L$set$1014
	.byte	0x4
	.set L$set$1015,LCFI474-LFB258
	.long L$set$1015
	.byte	0xe
	.byte	0x8
	.byte	0x85
	.byte	0x2
	.byte	0x4
	.set L$set$1016,LCFI475-LCFI474
	.long L$set$1016
	.byte	0xd
	.byte	0x5
	.align 2
LEFDE298:
LSFDE300:
	.set L$set$1017,LEFDE300-LASFDE300
	.long L$set$1017
LASFDE300:
	.set L$set$1018,Lframe0-Lsection__debug_frame
	.long L$set$1018
	.long	LFB2345
	.set L$set$1019,LFE2345-LFB2345
	.long L$set$1019
	.byte	0x4
	.set L$set$1020,LCFI477-LFB2345
	.long L$set$1020
	.byte	0xe
	.byte	0x8
	.byte	0x85
	.byte	0x2
	.byte	0x4
	.set L$set$1021,LCFI478-LCFI477
	.long L$set$1021
	.byte	0xd
	.byte	0x5
	.align 2
LEFDE300:
LSFDE302:
	.set L$set$1022,LEFDE302-LASFDE302
	.long L$set$1022
LASFDE302:
	.set L$set$1023,Lframe0-Lsection__debug_frame
	.long L$set$1023
	.long	LFB2363
	.set L$set$1024,LFE2363-LFB2363
	.long L$set$1024
	.byte	0x4
	.set L$set$1025,LCFI480-LFB2363
	.long L$set$1025
	.byte	0xe
	.byte	0x8
	.byte	0x85
	.byte	0x2
	.byte	0x4
	.set L$set$1026,LCFI481-LCFI480
	.long L$set$1026
	.byte	0xd
	.byte	0x5
	.byte	0x4
	.set L$set$1027,LCFI483-LCFI481
	.long L$set$1027
	.byte	0x86
	.byte	0x3
	.align 2
LEFDE302:
LSFDE304:
	.set L$set$1028,LEFDE304-LASFDE304
	.long L$set$1028
LASFDE304:
	.set L$set$1029,Lframe0-Lsection__debug_frame
	.long L$set$1029
	.long	LFB2365
	.set L$set$1030,LFE2365-LFB2365
	.long L$set$1030
	.byte	0x4
	.set L$set$1031,LCFI484-LFB2365
	.long L$set$1031
	.byte	0xe
	.byte	0x8
	.byte	0x85
	.byte	0x2
	.byte	0x4
	.set L$set$1032,LCFI485-LCFI484
	.long L$set$1032
	.byte	0xd
	.byte	0x5
	.byte	0x4
	.set L$set$1033,LCFI487-LCFI485
	.long L$set$1033
	.byte	0x86
	.byte	0x3
	.align 2
LEFDE304:
LSFDE306:
	.set L$set$1034,LEFDE306-LASFDE306
	.long L$set$1034
LASFDE306:
	.set L$set$1035,Lframe0-Lsection__debug_frame
	.long L$set$1035
	.long	LFB2361
	.set L$set$1036,LFE2361-LFB2361
	.long L$set$1036
	.byte	0x4
	.set L$set$1037,LCFI488-LFB2361
	.long L$set$1037
	.byte	0xe
	.byte	0x8
	.byte	0x85
	.byte	0x2
	.byte	0x4
	.set L$set$1038,LCFI489-LCFI488
	.long L$set$1038
	.byte	0xd
	.byte	0x5
	.byte	0x4
	.set L$set$1039,LCFI491-LCFI489
	.long L$set$1039
	.byte	0x86
	.byte	0x3
	.align 2
LEFDE306:
LSFDE308:
	.set L$set$1040,LEFDE308-LASFDE308
	.long L$set$1040
LASFDE308:
	.set L$set$1041,Lframe0-Lsection__debug_frame
	.long L$set$1041
	.long	LFB2675
	.set L$set$1042,LFE2675-LFB2675
	.long L$set$1042
	.byte	0x4
	.set L$set$1043,LCFI492-LFB2675
	.long L$set$1043
	.byte	0xe
	.byte	0x8
	.byte	0x85
	.byte	0x2
	.byte	0x4
	.set L$set$1044,LCFI493-LCFI492
	.long L$set$1044
	.byte	0xd
	.byte	0x5
	.align 2
LEFDE308:
LSFDE310:
	.set L$set$1045,LEFDE310-LASFDE310
	.long L$set$1045
LASFDE310:
	.set L$set$1046,Lframe0-Lsection__debug_frame
	.long L$set$1046
	.long	LFB2704
	.set L$set$1047,LFE2704-LFB2704
	.long L$set$1047
	.byte	0x4
	.set L$set$1048,LCFI495-LFB2704
	.long L$set$1048
	.byte	0xe
	.byte	0x8
	.byte	0x85
	.byte	0x2
	.byte	0x4
	.set L$set$1049,LCFI496-LCFI495
	.long L$set$1049
	.byte	0xd
	.byte	0x5
	.align 2
LEFDE310:
LSFDE312:
	.set L$set$1050,LEFDE312-LASFDE312
	.long L$set$1050
LASFDE312:
	.set L$set$1051,Lframe0-Lsection__debug_frame
	.long L$set$1051
	.long	LFB2676
	.set L$set$1052,LFE2676-LFB2676
	.long L$set$1052
	.byte	0x4
	.set L$set$1053,LCFI498-LFB2676
	.long L$set$1053
	.byte	0xe
	.byte	0x8
	.byte	0x85
	.byte	0x2
	.byte	0x4
	.set L$set$1054,LCFI499-LCFI498
	.long L$set$1054
	.byte	0xd
	.byte	0x5
	.align 2
LEFDE312:
LSFDE314:
	.set L$set$1055,LEFDE314-LASFDE314
	.long L$set$1055
LASFDE314:
	.set L$set$1056,Lframe0-Lsection__debug_frame
	.long L$set$1056
	.long	LFB2643
	.set L$set$1057,LFE2643-LFB2643
	.long L$set$1057
	.byte	0x4
	.set L$set$1058,LCFI501-LFB2643
	.long L$set$1058
	.byte	0xe
	.byte	0x8
	.byte	0x85
	.byte	0x2
	.byte	0x4
	.set L$set$1059,LCFI502-LCFI501
	.long L$set$1059
	.byte	0xd
	.byte	0x5
	.align 2
LEFDE314:
LSFDE316:
	.set L$set$1060,LEFDE316-LASFDE316
	.long L$set$1060
LASFDE316:
	.set L$set$1061,Lframe0-Lsection__debug_frame
	.long L$set$1061
	.long	LFB2604
	.set L$set$1062,LFE2604-LFB2604
	.long L$set$1062
	.byte	0x4
	.set L$set$1063,LCFI504-LFB2604
	.long L$set$1063
	.byte	0xe
	.byte	0x8
	.byte	0x85
	.byte	0x2
	.byte	0x4
	.set L$set$1064,LCFI505-LCFI504
	.long L$set$1064
	.byte	0xd
	.byte	0x5
	.align 2
LEFDE316:
LSFDE318:
	.set L$set$1065,LEFDE318-LASFDE318
	.long L$set$1065
LASFDE318:
	.set L$set$1066,Lframe0-Lsection__debug_frame
	.long L$set$1066
	.long	LFB2573
	.set L$set$1067,LFE2573-LFB2573
	.long L$set$1067
	.byte	0x4
	.set L$set$1068,LCFI507-LFB2573
	.long L$set$1068
	.byte	0xe
	.byte	0x8
	.byte	0x85
	.byte	0x2
	.byte	0x4
	.set L$set$1069,LCFI508-LCFI507
	.long L$set$1069
	.byte	0xd
	.byte	0x5
	.align 2
LEFDE318:
LSFDE320:
	.set L$set$1070,LEFDE320-LASFDE320
	.long L$set$1070
LASFDE320:
	.set L$set$1071,Lframe0-Lsection__debug_frame
	.long L$set$1071
	.long	LFB2529
	.set L$set$1072,LFE2529-LFB2529
	.long L$set$1072
	.byte	0x4
	.set L$set$1073,LCFI510-LFB2529
	.long L$set$1073
	.byte	0xe
	.byte	0x8
	.byte	0x85
	.byte	0x2
	.byte	0x4
	.set L$set$1074,LCFI511-LCFI510
	.long L$set$1074
	.byte	0xd
	.byte	0x5
	.align 2
LEFDE320:
LSFDE322:
	.set L$set$1075,LEFDE322-LASFDE322
	.long L$set$1075
LASFDE322:
	.set L$set$1076,Lframe0-Lsection__debug_frame
	.long L$set$1076
	.long	LFB2462
	.set L$set$1077,LFE2462-LFB2462
	.long L$set$1077
	.byte	0x4
	.set L$set$1078,LCFI513-LFB2462
	.long L$set$1078
	.byte	0xe
	.byte	0x8
	.byte	0x85
	.byte	0x2
	.byte	0x4
	.set L$set$1079,LCFI514-LCFI513
	.long L$set$1079
	.byte	0xd
	.byte	0x5
	.align 2
LEFDE322:
LSFDE324:
	.set L$set$1080,LEFDE324-LASFDE324
	.long L$set$1080
LASFDE324:
	.set L$set$1081,Lframe0-Lsection__debug_frame
	.long L$set$1081
	.long	LFB2387
	.set L$set$1082,LFE2387-LFB2387
	.long L$set$1082
	.byte	0x4
	.set L$set$1083,LCFI516-LFB2387
	.long L$set$1083
	.byte	0xe
	.byte	0x8
	.byte	0x85
	.byte	0x2
	.byte	0x4
	.set L$set$1084,LCFI517-LCFI516
	.long L$set$1084
	.byte	0xd
	.byte	0x5
	.byte	0x4
	.set L$set$1085,LCFI520-LCFI517
	.long L$set$1085
	.byte	0x83
	.byte	0x4
	.byte	0x86
	.byte	0x3
	.align 2
LEFDE324:
LSFDE326:
	.set L$set$1086,LEFDE326-LASFDE326
	.long L$set$1086
LASFDE326:
	.set L$set$1087,Lframe0-Lsection__debug_frame
	.long L$set$1087
	.long	LFB2384
	.set L$set$1088,LFE2384-LFB2384
	.long L$set$1088
	.byte	0x4
	.set L$set$1089,LCFI521-LFB2384
	.long L$set$1089
	.byte	0xe
	.byte	0x8
	.byte	0x85
	.byte	0x2
	.byte	0x4
	.set L$set$1090,LCFI522-LCFI521
	.long L$set$1090
	.byte	0xd
	.byte	0x5
	.byte	0x4
	.set L$set$1091,LCFI525-LCFI522
	.long L$set$1091
	.byte	0x83
	.byte	0x4
	.byte	0x86
	.byte	0x3
	.align 2
LEFDE326:
LSFDE328:
	.set L$set$1092,LEFDE328-LASFDE328
	.long L$set$1092
LASFDE328:
	.set L$set$1093,Lframe0-Lsection__debug_frame
	.long L$set$1093
	.long	LFB2705
	.set L$set$1094,LFE2705-LFB2705
	.long L$set$1094
	.byte	0x4
	.set L$set$1095,LCFI526-LFB2705
	.long L$set$1095
	.byte	0xe
	.byte	0x8
	.byte	0x85
	.byte	0x2
	.byte	0x4
	.set L$set$1096,LCFI527-LCFI526
	.long L$set$1096
	.byte	0xd
	.byte	0x5
	.align 2
LEFDE328:
LSFDE330:
	.set L$set$1097,LEFDE330-LASFDE330
	.long L$set$1097
LASFDE330:
	.set L$set$1098,Lframe0-Lsection__debug_frame
	.long L$set$1098
	.long	LFB2663
	.set L$set$1099,LFE2663-LFB2663
	.long L$set$1099
	.byte	0x4
	.set L$set$1100,LCFI529-LFB2663
	.long L$set$1100
	.byte	0xe
	.byte	0x8
	.byte	0x85
	.byte	0x2
	.byte	0x4
	.set L$set$1101,LCFI530-LCFI529
	.long L$set$1101
	.byte	0xd
	.byte	0x5
	.align 2
LEFDE330:
LSFDE332:
	.set L$set$1102,LEFDE332-LASFDE332
	.long L$set$1102
LASFDE332:
	.set L$set$1103,Lframe0-Lsection__debug_frame
	.long L$set$1103
	.long	LFB2627
	.set L$set$1104,LFE2627-LFB2627
	.long L$set$1104
	.byte	0x4
	.set L$set$1105,LCFI532-LFB2627
	.long L$set$1105
	.byte	0xe
	.byte	0x8
	.byte	0x85
	.byte	0x2
	.byte	0x4
	.set L$set$1106,LCFI533-LCFI532
	.long L$set$1106
	.byte	0xd
	.byte	0x5
	.align 2
LEFDE332:
LSFDE334:
	.set L$set$1107,LEFDE334-LASFDE334
	.long L$set$1107
LASFDE334:
	.set L$set$1108,Lframe0-Lsection__debug_frame
	.long L$set$1108
	.long	LFB2596
	.set L$set$1109,LFE2596-LFB2596
	.long L$set$1109
	.byte	0x4
	.set L$set$1110,LCFI535-LFB2596
	.long L$set$1110
	.byte	0xe
	.byte	0x8
	.byte	0x85
	.byte	0x2
	.byte	0x4
	.set L$set$1111,LCFI536-LCFI535
	.long L$set$1111
	.byte	0xd
	.byte	0x5
	.align 2
LEFDE334:
LSFDE336:
	.set L$set$1112,LEFDE336-LASFDE336
	.long L$set$1112
LASFDE336:
	.set L$set$1113,Lframe0-Lsection__debug_frame
	.long L$set$1113
	.long	LFB2556
	.set L$set$1114,LFE2556-LFB2556
	.long L$set$1114
	.byte	0x4
	.set L$set$1115,LCFI538-LFB2556
	.long L$set$1115
	.byte	0xe
	.byte	0x8
	.byte	0x85
	.byte	0x2
	.byte	0x4
	.set L$set$1116,LCFI539-LCFI538
	.long L$set$1116
	.byte	0xd
	.byte	0x5
	.align 2
LEFDE336:
LSFDE338:
	.set L$set$1117,LEFDE338-LASFDE338
	.long L$set$1117
LASFDE338:
	.set L$set$1118,Lframe0-Lsection__debug_frame
	.long L$set$1118
	.long	LFB2483
	.set L$set$1119,LFE2483-LFB2483
	.long L$set$1119
	.byte	0x4
	.set L$set$1120,LCFI541-LFB2483
	.long L$set$1120
	.byte	0xe
	.byte	0x8
	.byte	0x85
	.byte	0x2
	.byte	0x4
	.set L$set$1121,LCFI542-LCFI541
	.long L$set$1121
	.byte	0xd
	.byte	0x5
	.align 2
LEFDE338:
LSFDE340:
	.set L$set$1122,LEFDE340-LASFDE340
	.long L$set$1122
LASFDE340:
	.set L$set$1123,Lframe0-Lsection__debug_frame
	.long L$set$1123
	.long	LFB2401
	.set L$set$1124,LFE2401-LFB2401
	.long L$set$1124
	.byte	0x4
	.set L$set$1125,LCFI544-LFB2401
	.long L$set$1125
	.byte	0xe
	.byte	0x8
	.byte	0x85
	.byte	0x2
	.byte	0x4
	.set L$set$1126,LCFI545-LCFI544
	.long L$set$1126
	.byte	0xd
	.byte	0x5
	.byte	0x4
	.set L$set$1127,LCFI548-LCFI545
	.long L$set$1127
	.byte	0x83
	.byte	0x4
	.byte	0x86
	.byte	0x3
	.align 2
LEFDE340:
LSFDE342:
	.set L$set$1128,LEFDE342-LASFDE342
	.long L$set$1128
LASFDE342:
	.set L$set$1129,Lframe0-Lsection__debug_frame
	.long L$set$1129
	.long	LFB2405
	.set L$set$1130,LFE2405-LFB2405
	.long L$set$1130
	.byte	0x4
	.set L$set$1131,LCFI549-LFB2405
	.long L$set$1131
	.byte	0xe
	.byte	0x8
	.byte	0x85
	.byte	0x2
	.byte	0x4
	.set L$set$1132,LCFI550-LCFI549
	.long L$set$1132
	.byte	0xd
	.byte	0x5
	.byte	0x4
	.set L$set$1133,LCFI554-LCFI550
	.long L$set$1133
	.byte	0x83
	.byte	0x5
	.byte	0x86
	.byte	0x4
	.byte	0x87
	.byte	0x3
	.align 2
LEFDE342:
LSFDE344:
	.set L$set$1134,LEFDE344-LASFDE344
	.long L$set$1134
LASFDE344:
	.set L$set$1135,Lframe0-Lsection__debug_frame
	.long L$set$1135
	.long	LFB2407
	.set L$set$1136,LFE2407-LFB2407
	.long L$set$1136
	.byte	0x4
	.set L$set$1137,LCFI555-LFB2407
	.long L$set$1137
	.byte	0xe
	.byte	0x8
	.byte	0x85
	.byte	0x2
	.byte	0x4
	.set L$set$1138,LCFI556-LCFI555
	.long L$set$1138
	.byte	0xd
	.byte	0x5
	.align 2
LEFDE344:
LSFDE346:
	.set L$set$1139,LEFDE346-LASFDE346
	.long L$set$1139
LASFDE346:
	.set L$set$1140,Lframe0-Lsection__debug_frame
	.long L$set$1140
	.long	LFB2406
	.set L$set$1141,LFE2406-LFB2406
	.long L$set$1141
	.byte	0x4
	.set L$set$1142,LCFI558-LFB2406
	.long L$set$1142
	.byte	0xe
	.byte	0x8
	.byte	0x85
	.byte	0x2
	.byte	0x4
	.set L$set$1143,LCFI559-LCFI558
	.long L$set$1143
	.byte	0xd
	.byte	0x5
	.align 2
LEFDE346:
LSFDE348:
	.set L$set$1144,LEFDE348-LASFDE348
	.long L$set$1144
LASFDE348:
	.set L$set$1145,Lframe0-Lsection__debug_frame
	.long L$set$1145
	.long	LFB2350
	.set L$set$1146,LFE2350-LFB2350
	.long L$set$1146
	.byte	0x4
	.set L$set$1147,LCFI561-LFB2350
	.long L$set$1147
	.byte	0xe
	.byte	0x8
	.byte	0x85
	.byte	0x2
	.byte	0x4
	.set L$set$1148,LCFI562-LCFI561
	.long L$set$1148
	.byte	0xd
	.byte	0x5
	.byte	0x4
	.set L$set$1149,LCFI564-LCFI562
	.long L$set$1149
	.byte	0x86
	.byte	0x3
	.align 2
LEFDE348:
LSFDE350:
	.set L$set$1150,LEFDE350-LASFDE350
	.long L$set$1150
LASFDE350:
	.set L$set$1151,Lframe0-Lsection__debug_frame
	.long L$set$1151
	.long	LFB2484
	.set L$set$1152,LFE2484-LFB2484
	.long L$set$1152
	.byte	0x4
	.set L$set$1153,LCFI565-LFB2484
	.long L$set$1153
	.byte	0xe
	.byte	0x8
	.byte	0x85
	.byte	0x2
	.byte	0x4
	.set L$set$1154,LCFI566-LCFI565
	.long L$set$1154
	.byte	0xd
	.byte	0x5
	.byte	0x4
	.set L$set$1155,LCFI568-LCFI566
	.long L$set$1155
	.byte	0x86
	.byte	0x3
	.align 2
LEFDE350:
LSFDE352:
	.set L$set$1156,LEFDE352-LASFDE352
	.long L$set$1156
LASFDE352:
	.set L$set$1157,Lframe0-Lsection__debug_frame
	.long L$set$1157
	.long	LFB2539
	.set L$set$1158,LFE2539-LFB2539
	.long L$set$1158
	.byte	0x4
	.set L$set$1159,LCFI569-LFB2539
	.long L$set$1159
	.byte	0xe
	.byte	0x8
	.byte	0x85
	.byte	0x2
	.byte	0x4
	.set L$set$1160,LCFI570-LCFI569
	.long L$set$1160
	.byte	0xd
	.byte	0x5
	.align 2
LEFDE352:
LSFDE354:
	.set L$set$1161,LEFDE354-LASFDE354
	.long L$set$1161
LASFDE354:
	.set L$set$1162,Lframe0-Lsection__debug_frame
	.long L$set$1162
	.long	LFB2467
	.set L$set$1163,LFE2467-LFB2467
	.long L$set$1163
	.byte	0x4
	.set L$set$1164,LCFI572-LFB2467
	.long L$set$1164
	.byte	0xe
	.byte	0x8
	.byte	0x85
	.byte	0x2
	.byte	0x4
	.set L$set$1165,LCFI573-LCFI572
	.long L$set$1165
	.byte	0xd
	.byte	0x5
	.byte	0x4
	.set L$set$1166,LCFI575-LCFI573
	.long L$set$1166
	.byte	0x86
	.byte	0x3
	.align 2
LEFDE354:
LSFDE356:
	.set L$set$1167,LEFDE356-LASFDE356
	.long L$set$1167
LASFDE356:
	.set L$set$1168,Lframe0-Lsection__debug_frame
	.long L$set$1168
	.long	LFB2395
	.set L$set$1169,LFE2395-LFB2395
	.long L$set$1169
	.byte	0x4
	.set L$set$1170,LCFI576-LFB2395
	.long L$set$1170
	.byte	0xe
	.byte	0x8
	.byte	0x85
	.byte	0x2
	.byte	0x4
	.set L$set$1171,LCFI577-LCFI576
	.long L$set$1171
	.byte	0xd
	.byte	0x5
	.byte	0x4
	.set L$set$1172,LCFI579-LCFI577
	.long L$set$1172
	.byte	0x86
	.byte	0x3
	.align 2
LEFDE356:
LSFDE358:
	.set L$set$1173,LEFDE358-LASFDE358
	.long L$set$1173
LASFDE358:
	.set L$set$1174,Lframe0-Lsection__debug_frame
	.long L$set$1174
	.long	LFB2404
	.set L$set$1175,LFE2404-LFB2404
	.long L$set$1175
	.byte	0x4
	.set L$set$1176,LCFI580-LFB2404
	.long L$set$1176
	.byte	0xe
	.byte	0x8
	.byte	0x85
	.byte	0x2
	.byte	0x4
	.set L$set$1177,LCFI581-LCFI580
	.long L$set$1177
	.byte	0xd
	.byte	0x5
	.byte	0x4
	.set L$set$1178,LCFI584-LCFI581
	.long L$set$1178
	.byte	0x83
	.byte	0x4
	.byte	0x86
	.byte	0x3
	.align 2
LEFDE358:
LSFDE360:
	.set L$set$1179,LEFDE360-LASFDE360
	.long L$set$1179
LASFDE360:
	.set L$set$1180,Lframe0-Lsection__debug_frame
	.long L$set$1180
	.long	LFB2403
	.set L$set$1181,LFE2403-LFB2403
	.long L$set$1181
	.byte	0x4
	.set L$set$1182,LCFI585-LFB2403
	.long L$set$1182
	.byte	0xe
	.byte	0x8
	.byte	0x85
	.byte	0x2
	.byte	0x4
	.set L$set$1183,LCFI586-LCFI585
	.long L$set$1183
	.byte	0xd
	.byte	0x5
	.byte	0x4
	.set L$set$1184,LCFI589-LCFI586
	.long L$set$1184
	.byte	0x83
	.byte	0x4
	.byte	0x86
	.byte	0x3
	.align 2
LEFDE360:
LSFDE362:
	.set L$set$1185,LEFDE362-LASFDE362
	.long L$set$1185
LASFDE362:
	.set L$set$1186,Lframe0-Lsection__debug_frame
	.long L$set$1186
	.long	LFB2389
	.set L$set$1187,LFE2389-LFB2389
	.long L$set$1187
	.byte	0x4
	.set L$set$1188,LCFI590-LFB2389
	.long L$set$1188
	.byte	0xe
	.byte	0x8
	.byte	0x85
	.byte	0x2
	.byte	0x4
	.set L$set$1189,LCFI591-LCFI590
	.long L$set$1189
	.byte	0xd
	.byte	0x5
	.byte	0x4
	.set L$set$1190,LCFI594-LCFI591
	.long L$set$1190
	.byte	0x83
	.byte	0x4
	.byte	0x86
	.byte	0x3
	.align 2
LEFDE362:
LSFDE364:
	.set L$set$1191,LEFDE364-LASFDE364
	.long L$set$1191
LASFDE364:
	.set L$set$1192,Lframe0-Lsection__debug_frame
	.long L$set$1192
	.long	LFB2408
	.set L$set$1193,LFE2408-LFB2408
	.long L$set$1193
	.byte	0x4
	.set L$set$1194,LCFI595-LFB2408
	.long L$set$1194
	.byte	0xe
	.byte	0x8
	.byte	0x85
	.byte	0x2
	.byte	0x4
	.set L$set$1195,LCFI596-LCFI595
	.long L$set$1195
	.byte	0xd
	.byte	0x5
	.byte	0x4
	.set L$set$1196,LCFI599-LCFI596
	.long L$set$1196
	.byte	0x83
	.byte	0x4
	.byte	0x86
	.byte	0x3
	.align 2
LEFDE364:
LSFDE366:
	.set L$set$1197,LEFDE366-LASFDE366
	.long L$set$1197
LASFDE366:
	.set L$set$1198,Lframe0-Lsection__debug_frame
	.long L$set$1198
	.long	LFB2380
	.set L$set$1199,LFE2380-LFB2380
	.long L$set$1199
	.byte	0x4
	.set L$set$1200,LCFI600-LFB2380
	.long L$set$1200
	.byte	0xe
	.byte	0x8
	.byte	0x85
	.byte	0x2
	.byte	0x4
	.set L$set$1201,LCFI601-LCFI600
	.long L$set$1201
	.byte	0xd
	.byte	0x5
	.align 2
LEFDE366:
LSFDE368:
	.set L$set$1202,LEFDE368-LASFDE368
	.long L$set$1202
LASFDE368:
	.set L$set$1203,Lframe0-Lsection__debug_frame
	.long L$set$1203
	.long	LFB2382
	.set L$set$1204,LFE2382-LFB2382
	.long L$set$1204
	.byte	0x4
	.set L$set$1205,LCFI603-LFB2382
	.long L$set$1205
	.byte	0xe
	.byte	0x8
	.byte	0x85
	.byte	0x2
	.byte	0x4
	.set L$set$1206,LCFI604-LCFI603
	.long L$set$1206
	.byte	0xd
	.byte	0x5
	.align 2
LEFDE368:
LSFDE370:
	.set L$set$1207,LEFDE370-LASFDE370
	.long L$set$1207
LASFDE370:
	.set L$set$1208,Lframe0-Lsection__debug_frame
	.long L$set$1208
	.long	LFB2383
	.set L$set$1209,LFE2383-LFB2383
	.long L$set$1209
	.byte	0x4
	.set L$set$1210,LCFI606-LFB2383
	.long L$set$1210
	.byte	0xe
	.byte	0x8
	.byte	0x85
	.byte	0x2
	.byte	0x4
	.set L$set$1211,LCFI607-LCFI606
	.long L$set$1211
	.byte	0xd
	.byte	0x5
	.align 2
LEFDE370:
LSFDE372:
	.set L$set$1212,LEFDE372-LASFDE372
	.long L$set$1212
LASFDE372:
	.set L$set$1213,Lframe0-Lsection__debug_frame
	.long L$set$1213
	.long	LFB2342
	.set L$set$1214,LFE2342-LFB2342
	.long L$set$1214
	.byte	0x4
	.set L$set$1215,LCFI609-LFB2342
	.long L$set$1215
	.byte	0xe
	.byte	0x8
	.byte	0x85
	.byte	0x2
	.byte	0x4
	.set L$set$1216,LCFI610-LCFI609
	.long L$set$1216
	.byte	0xd
	.byte	0x5
	.align 2
LEFDE372:
LSFDE374:
	.set L$set$1217,LEFDE374-LASFDE374
	.long L$set$1217
LASFDE374:
	.set L$set$1218,Lframe0-Lsection__debug_frame
	.long L$set$1218
	.long	LFB2379
	.set L$set$1219,LFE2379-LFB2379
	.long L$set$1219
	.byte	0x4
	.set L$set$1220,LCFI612-LFB2379
	.long L$set$1220
	.byte	0xe
	.byte	0x8
	.byte	0x85
	.byte	0x2
	.byte	0x4
	.set L$set$1221,LCFI613-LCFI612
	.long L$set$1221
	.byte	0xd
	.byte	0x5
	.byte	0x4
	.set L$set$1222,LCFI615-LCFI613
	.long L$set$1222
	.byte	0x86
	.byte	0x3
	.align 2
LEFDE374:
LSFDE376:
	.set L$set$1223,LEFDE376-LASFDE376
	.long L$set$1223
LASFDE376:
	.set L$set$1224,Lframe0-Lsection__debug_frame
	.long L$set$1224
	.long	LFB2409
	.set L$set$1225,LFE2409-LFB2409
	.long L$set$1225
	.byte	0x4
	.set L$set$1226,LCFI616-LFB2409
	.long L$set$1226
	.byte	0xe
	.byte	0x8
	.byte	0x85
	.byte	0x2
	.byte	0x4
	.set L$set$1227,LCFI617-LCFI616
	.long L$set$1227
	.byte	0xd
	.byte	0x5
	.byte	0x4
	.set L$set$1228,LCFI619-LCFI617
	.long L$set$1228
	.byte	0x83
	.byte	0x3
	.align 2
LEFDE376:
__ZL18__gthread_active_pv.eh = 0
.no_dead_strip __ZL18__gthread_active_pv.eh
__ZN9__gnu_cxxL25__exchange_and_add_singleEPii.eh = 0
.no_dead_strip __ZN9__gnu_cxxL25__exchange_and_add_singleEPii.eh
.globl __ZN4Game12computeLevelEv.eh
__ZN4Game12computeLevelEv.eh = 0
.no_dead_strip __ZN4Game12computeLevelEv.eh
.globl __ZN4Game25computeFallIterationDelayEv.eh
__ZN4Game25computeFallIterationDelayEv.eh = 0
.no_dead_strip __ZN4Game25computeFallIterationDelayEv.eh
.globl __ZN4Game12computeScoreEi.eh
__ZN4Game12computeScoreEi.eh = 0
.no_dead_strip __ZN4Game12computeScoreEi.eh
.globl __ZN4Game15updateGameInfosEi.eh
__ZN4Game15updateGameInfosEi.eh = 0
.no_dead_strip __ZN4Game15updateGameInfosEi.eh
__ZN9__gnu_cxxL18__exchange_and_addEPVii.eh = 0
.no_dead_strip __ZN9__gnu_cxxL18__exchange_and_addEPVii.eh
__ZN9__gnu_cxxL27__exchange_and_add_dispatchEPii.eh = 0
.no_dead_strip __ZN9__gnu_cxxL27__exchange_and_add_dispatchEPii.eh
	.section __TEXT,__eh_frame,coalesced,no_toc+strip_static_syms+live_support
EH_frame1:
	.set L$set$1229,LECIE1-LSCIE1
	.long L$set$1229
LSCIE1:
	.long	0x0
	.byte	0x1
	.ascii "zPLR\0"
	.byte	0x1
	.byte	0x7c
	.byte	0x8
	.byte	0x7
	.byte	0x9b
	.long	L___gxx_personality_v0$non_lazy_ptr-.
	.byte	0x10
	.byte	0x10
	.byte	0xc
	.byte	0x5
	.byte	0x4
	.byte	0x88
	.byte	0x1
	.align 2
LECIE1:
.globl __ZStorSt13_Ios_OpenmodeS_.eh
	.weak_definition __ZStorSt13_Ios_OpenmodeS_.eh
__ZStorSt13_Ios_OpenmodeS_.eh:
LSFDE5:
	.set L$set$1230,LEFDE5-LASFDE5
	.long L$set$1230
LASFDE5:
	.long	LASFDE5-EH_frame1
	.long	LFB952-.
	.set L$set$1231,LFE952-LFB952
	.long L$set$1231
	.byte	0x4
	.long	0x0
	.byte	0x4
	.set L$set$1232,LCFI6-LFB952
	.long L$set$1232
	.byte	0xe
	.byte	0x8
	.byte	0x84
	.byte	0x2
	.byte	0x4
	.set L$set$1233,LCFI7-LCFI6
	.long L$set$1233
	.byte	0xd
	.byte	0x4
	.align 2
LEFDE5:
.globl __ZN4Game19setCurrentGamePieceE6BPiece.eh
	.private_extern __ZN4Game19setCurrentGamePieceE6BPiece.eh
	.weak_definition __ZN4Game19setCurrentGamePieceE6BPiece.eh
__ZN4Game19setCurrentGamePieceE6BPiece.eh:
LSFDE7:
	.set L$set$1234,LEFDE7-LASFDE7
	.long L$set$1234
LASFDE7:
	.long	LASFDE7-EH_frame1
	.long	LFB2360-.
	.set L$set$1235,LFE2360-LFB2360
	.long L$set$1235
	.byte	0x4
	.long	0x0
	.byte	0x4
	.set L$set$1236,LCFI9-LFB2360
	.long L$set$1236
	.byte	0xe
	.byte	0x8
	.byte	0x84
	.byte	0x2
	.byte	0x4
	.set L$set$1237,LCFI10-LCFI9
	.long L$set$1237
	.byte	0xd
	.byte	0x4
	.align 2
LEFDE7:
.globl __ZN4Game12setNextPieceE6BPiece.eh
	.private_extern __ZN4Game12setNextPieceE6BPiece.eh
	.weak_definition __ZN4Game12setNextPieceE6BPiece.eh
__ZN4Game12setNextPieceE6BPiece.eh:
LSFDE9:
	.set L$set$1238,LEFDE9-LASFDE9
	.long L$set$1238
LASFDE9:
	.long	LASFDE9-EH_frame1
	.long	LFB2362-.
	.set L$set$1239,LFE2362-LFB2362
	.long L$set$1239
	.byte	0x4
	.long	0x0
	.byte	0x4
	.set L$set$1240,LCFI12-LFB2362
	.long L$set$1240
	.byte	0xe
	.byte	0x8
	.byte	0x84
	.byte	0x2
	.byte	0x4
	.set L$set$1241,LCFI13-LCFI12
	.long L$set$1241
	.byte	0xd
	.byte	0x4
	.align 2
LEFDE9:
.globl __ZN4Game12setHoldPieceE6BPiece.eh
	.private_extern __ZN4Game12setHoldPieceE6BPiece.eh
	.weak_definition __ZN4Game12setHoldPieceE6BPiece.eh
__ZN4Game12setHoldPieceE6BPiece.eh:
LSFDE11:
	.set L$set$1242,LEFDE11-LASFDE11
	.long L$set$1242
LASFDE11:
	.long	LASFDE11-EH_frame1
	.long	LFB2364-.
	.set L$set$1243,LFE2364-LFB2364
	.long L$set$1243
	.byte	0x4
	.long	0x0
	.byte	0x4
	.set L$set$1244,LCFI15-LFB2364
	.long L$set$1244
	.byte	0xe
	.byte	0x8
	.byte	0x84
	.byte	0x2
	.byte	0x4
	.set L$set$1245,LCFI16-LCFI15
	.long L$set$1245
	.byte	0xd
	.byte	0x4
	.align 2
LEFDE11:
.globl __ZN4Game17setLinesCompletedEi.eh
	.private_extern __ZN4Game17setLinesCompletedEi.eh
	.weak_definition __ZN4Game17setLinesCompletedEi.eh
__ZN4Game17setLinesCompletedEi.eh:
LSFDE13:
	.set L$set$1246,LEFDE13-LASFDE13
	.long L$set$1246
LASFDE13:
	.long	LASFDE13-EH_frame1
	.long	LFB2368-.
	.set L$set$1247,LFE2368-LFB2368
	.long L$set$1247
	.byte	0x4
	.long	0x0
	.byte	0x4
	.set L$set$1248,LCFI18-LFB2368
	.long L$set$1248
	.byte	0xe
	.byte	0x8
	.byte	0x84
	.byte	0x2
	.byte	0x4
	.set L$set$1249,LCFI19-LCFI18
	.long L$set$1249
	.byte	0xd
	.byte	0x4
	.align 2
LEFDE13:
.globl __ZN4Game17getLinesCompletedEv.eh
	.private_extern __ZN4Game17getLinesCompletedEv.eh
	.weak_definition __ZN4Game17getLinesCompletedEv.eh
__ZN4Game17getLinesCompletedEv.eh:
LSFDE15:
	.set L$set$1250,LEFDE15-LASFDE15
	.long L$set$1250
LASFDE15:
	.long	LASFDE15-EH_frame1
	.long	LFB2369-.
	.set L$set$1251,LFE2369-LFB2369
	.long L$set$1251
	.byte	0x4
	.long	0x0
	.byte	0x4
	.set L$set$1252,LCFI21-LFB2369
	.long L$set$1252
	.byte	0xe
	.byte	0x8
	.byte	0x84
	.byte	0x2
	.byte	0x4
	.set L$set$1253,LCFI22-LCFI21
	.long L$set$1253
	.byte	0xd
	.byte	0x4
	.align 2
LEFDE15:
.globl __ZN4Game8setLevelEi.eh
	.private_extern __ZN4Game8setLevelEi.eh
	.weak_definition __ZN4Game8setLevelEi.eh
__ZN4Game8setLevelEi.eh:
LSFDE17:
	.set L$set$1254,LEFDE17-LASFDE17
	.long L$set$1254
LASFDE17:
	.long	LASFDE17-EH_frame1
	.long	LFB2370-.
	.set L$set$1255,LFE2370-LFB2370
	.long L$set$1255
	.byte	0x4
	.long	0x0
	.byte	0x4
	.set L$set$1256,LCFI24-LFB2370
	.long L$set$1256
	.byte	0xe
	.byte	0x8
	.byte	0x84
	.byte	0x2
	.byte	0x4
	.set L$set$1257,LCFI25-LCFI24
	.long L$set$1257
	.byte	0xd
	.byte	0x4
	.align 2
LEFDE17:
.globl __ZN4Game8getLevelEv.eh
	.private_extern __ZN4Game8getLevelEv.eh
	.weak_definition __ZN4Game8getLevelEv.eh
__ZN4Game8getLevelEv.eh:
LSFDE19:
	.set L$set$1258,LEFDE19-LASFDE19
	.long L$set$1258
LASFDE19:
	.long	LASFDE19-EH_frame1
	.long	LFB2371-.
	.set L$set$1259,LFE2371-LFB2371
	.long L$set$1259
	.byte	0x4
	.long	0x0
	.byte	0x4
	.set L$set$1260,LCFI27-LFB2371
	.long L$set$1260
	.byte	0xe
	.byte	0x8
	.byte	0x84
	.byte	0x2
	.byte	0x4
	.set L$set$1261,LCFI28-LCFI27
	.long L$set$1261
	.byte	0xd
	.byte	0x4
	.align 2
LEFDE19:
.globl __ZN4Game21setFallIterationDelayEf.eh
	.private_extern __ZN4Game21setFallIterationDelayEf.eh
	.weak_definition __ZN4Game21setFallIterationDelayEf.eh
__ZN4Game21setFallIterationDelayEf.eh:
LSFDE21:
	.set L$set$1262,LEFDE21-LASFDE21
	.long L$set$1262
LASFDE21:
	.long	LASFDE21-EH_frame1
	.long	LFB2372-.
	.set L$set$1263,LFE2372-LFB2372
	.long L$set$1263
	.byte	0x4
	.long	0x0
	.byte	0x4
	.set L$set$1264,LCFI30-LFB2372
	.long L$set$1264
	.byte	0xe
	.byte	0x8
	.byte	0x84
	.byte	0x2
	.byte	0x4
	.set L$set$1265,LCFI31-LCFI30
	.long L$set$1265
	.byte	0xd
	.byte	0x4
	.align 2
LEFDE21:
.globl __ZN4Game21getFallIterationDelayEv.eh
	.private_extern __ZN4Game21getFallIterationDelayEv.eh
	.weak_definition __ZN4Game21getFallIterationDelayEv.eh
__ZN4Game21getFallIterationDelayEv.eh:
LSFDE23:
	.set L$set$1266,LEFDE23-LASFDE23
	.long L$set$1266
LASFDE23:
	.long	LASFDE23-EH_frame1
	.long	LFB2373-.
	.set L$set$1267,LFE2373-LFB2373
	.long L$set$1267
	.byte	0x4
	.long	0x0
	.byte	0x4
	.set L$set$1268,LCFI33-LFB2373
	.long L$set$1268
	.byte	0xe
	.byte	0x8
	.byte	0x84
	.byte	0x2
	.byte	0x4
	.set L$set$1269,LCFI34-LCFI33
	.long L$set$1269
	.byte	0xd
	.byte	0x4
	.align 2
LEFDE23:
.globl __ZN4Game8setScoreEi.eh
	.private_extern __ZN4Game8setScoreEi.eh
	.weak_definition __ZN4Game8setScoreEi.eh
__ZN4Game8setScoreEi.eh:
LSFDE25:
	.set L$set$1270,LEFDE25-LASFDE25
	.long L$set$1270
LASFDE25:
	.long	LASFDE25-EH_frame1
	.long	LFB2374-.
	.set L$set$1271,LFE2374-LFB2374
	.long L$set$1271
	.byte	0x4
	.long	0x0
	.byte	0x4
	.set L$set$1272,LCFI36-LFB2374
	.long L$set$1272
	.byte	0xe
	.byte	0x8
	.byte	0x84
	.byte	0x2
	.byte	0x4
	.set L$set$1273,LCFI37-LCFI36
	.long L$set$1273
	.byte	0xd
	.byte	0x4
	.align 2
LEFDE25:
.globl __ZN4Game8getScoreEv.eh
	.private_extern __ZN4Game8getScoreEv.eh
	.weak_definition __ZN4Game8getScoreEv.eh
__ZN4Game8getScoreEv.eh:
LSFDE27:
	.set L$set$1274,LEFDE27-LASFDE27
	.long L$set$1274
LASFDE27:
	.long	LASFDE27-EH_frame1
	.long	LFB2375-.
	.set L$set$1275,LFE2375-LFB2375
	.long L$set$1275
	.byte	0x4
	.long	0x0
	.byte	0x4
	.set L$set$1276,LCFI39-LFB2375
	.long L$set$1276
	.byte	0xe
	.byte	0x8
	.byte	0x84
	.byte	0x2
	.byte	0x4
	.set L$set$1277,LCFI40-LCFI39
	.long L$set$1277
	.byte	0xd
	.byte	0x4
	.align 2
LEFDE27:
.globl __ZSt3minImERKT_S2_S2_.eh
	.weak_definition __ZSt3minImERKT_S2_S2_.eh
__ZSt3minImERKT_S2_S2_.eh:
LSFDE37:
	.set L$set$1278,LEFDE37-LASFDE37
	.long L$set$1278
LASFDE37:
	.long	LASFDE37-EH_frame1
	.long	LFB2410-.
	.set L$set$1279,LFE2410-LFB2410
	.long L$set$1279
	.byte	0x4
	.long	0x0
	.byte	0x4
	.set L$set$1280,LCFI56-LFB2410
	.long L$set$1280
	.byte	0xe
	.byte	0x8
	.byte	0x84
	.byte	0x2
	.byte	0x4
	.set L$set$1281,LCFI57-LCFI56
	.long L$set$1281
	.byte	0xd
	.byte	0x4
	.align 2
LEFDE37:
__ZStL17__verify_groupingPKcmRKSs.eh:
LSFDE39:
	.set L$set$1282,LEFDE39-LASFDE39
	.long L$set$1282
LASFDE39:
	.long	LASFDE39-EH_frame1
	.long	LFB1407-.
	.set L$set$1283,LFE1407-LFB1407
	.long L$set$1283
	.byte	0x4
	.long	0x0
	.byte	0x4
	.set L$set$1284,LCFI59-LFB1407
	.long L$set$1284
	.byte	0xe
	.byte	0x8
	.byte	0x84
	.byte	0x2
	.byte	0x4
	.set L$set$1285,LCFI60-LCFI59
	.long L$set$1285
	.byte	0xd
	.byte	0x4
	.byte	0x4
	.set L$set$1286,LCFI62-LCFI60
	.long L$set$1286
	.byte	0x86
	.byte	0x3
	.align 2
LEFDE39:
.globl __ZN9__gnu_cxx13new_allocatorIcEC2Ev.eh
	.private_extern __ZN9__gnu_cxx13new_allocatorIcEC2Ev.eh
	.weak_definition __ZN9__gnu_cxx13new_allocatorIcEC2Ev.eh
__ZN9__gnu_cxx13new_allocatorIcEC2Ev.eh:
LSFDE41:
	.set L$set$1287,LEFDE41-LASFDE41
	.long L$set$1287
LASFDE41:
	.long	LASFDE41-EH_frame1
	.long	LFB2492-.
	.set L$set$1288,LFE2492-LFB2492
	.long L$set$1288
	.byte	0x4
	.long	0x0
	.byte	0x4
	.set L$set$1289,LCFI63-LFB2492
	.long L$set$1289
	.byte	0xe
	.byte	0x8
	.byte	0x84
	.byte	0x2
	.byte	0x4
	.set L$set$1290,LCFI64-LCFI63
	.long L$set$1290
	.byte	0xd
	.byte	0x4
	.align 2
LEFDE41:
.globl __ZNKSt23_Rb_tree_const_iteratorIPN2sf11ResourcePtrINS0_4FontEEEEneERKS5_.eh
	.private_extern __ZNKSt23_Rb_tree_const_iteratorIPN2sf11ResourcePtrINS0_4FontEEEEneERKS5_.eh
	.weak_definition __ZNKSt23_Rb_tree_const_iteratorIPN2sf11ResourcePtrINS0_4FontEEEEneERKS5_.eh
__ZNKSt23_Rb_tree_const_iteratorIPN2sf11ResourcePtrINS0_4FontEEEEneERKS5_.eh:
LSFDE43:
	.set L$set$1291,LEFDE43-LASFDE43
	.long L$set$1291
LASFDE43:
	.long	LASFDE43-EH_frame1
	.long	LFB2538-.
	.set L$set$1292,LFE2538-LFB2538
	.long L$set$1292
	.byte	0x4
	.long	0x0
	.byte	0x4
	.set L$set$1293,LCFI66-LFB2538
	.long L$set$1293
	.byte	0xe
	.byte	0x8
	.byte	0x84
	.byte	0x2
	.byte	0x4
	.set L$set$1294,LCFI67-LCFI66
	.long L$set$1294
	.byte	0xd
	.byte	0x4
	.align 2
LEFDE43:
.globl __ZNKSt23_Rb_tree_const_iteratorIPN2sf11ResourcePtrINS0_4FontEEEEdeEv.eh
	.private_extern __ZNKSt23_Rb_tree_const_iteratorIPN2sf11ResourcePtrINS0_4FontEEEEdeEv.eh
	.weak_definition __ZNKSt23_Rb_tree_const_iteratorIPN2sf11ResourcePtrINS0_4FontEEEEdeEv.eh
__ZNKSt23_Rb_tree_const_iteratorIPN2sf11ResourcePtrINS0_4FontEEEEdeEv.eh:
LSFDE45:
	.set L$set$1295,LEFDE45-LASFDE45
	.long L$set$1295
LASFDE45:
	.long	LASFDE45-EH_frame1
	.long	LFB2540-.
	.set L$set$1296,LFE2540-LFB2540
	.long L$set$1296
	.byte	0x4
	.long	0x0
	.byte	0x4
	.set L$set$1297,LCFI69-LFB2540
	.long L$set$1297
	.byte	0xe
	.byte	0x8
	.byte	0x84
	.byte	0x2
	.byte	0x4
	.set L$set$1298,LCFI70-LCFI69
	.long L$set$1298
	.byte	0xd
	.byte	0x4
	.align 2
LEFDE45:
.globl __ZN2sf11ResourcePtrINS_4FontEE19OnResourceDestroyedEv.eh
	.weak_definition __ZN2sf11ResourcePtrINS_4FontEE19OnResourceDestroyedEv.eh
__ZN2sf11ResourcePtrINS_4FontEE19OnResourceDestroyedEv.eh:
LSFDE47:
	.set L$set$1299,LEFDE47-LASFDE47
	.long L$set$1299
LASFDE47:
	.long	LASFDE47-EH_frame1
	.long	LFB2541-.
	.set L$set$1300,LFE2541-LFB2541
	.long L$set$1300
	.byte	0x4
	.long	0x0
	.byte	0x4
	.set L$set$1301,LCFI72-LFB2541
	.long L$set$1301
	.byte	0xe
	.byte	0x8
	.byte	0x84
	.byte	0x2
	.byte	0x4
	.set L$set$1302,LCFI73-LCFI72
	.long L$set$1302
	.byte	0xd
	.byte	0x4
	.align 2
LEFDE47:
.globl __ZNSt8_Rb_treeIjSt4pairIKjN2sf5GlyphEESt10_Select1stIS4_ESt4lessIjESaIS4_EE8_M_beginEv.eh
	.private_extern __ZNSt8_Rb_treeIjSt4pairIKjN2sf5GlyphEESt10_Select1stIS4_ESt4lessIjESaIS4_EE8_M_beginEv.eh
	.weak_definition __ZNSt8_Rb_treeIjSt4pairIKjN2sf5GlyphEESt10_Select1stIS4_ESt4lessIjESaIS4_EE8_M_beginEv.eh
__ZNSt8_Rb_treeIjSt4pairIKjN2sf5GlyphEESt10_Select1stIS4_ESt4lessIjESaIS4_EE8_M_beginEv.eh:
LSFDE49:
	.set L$set$1303,LEFDE49-LASFDE49
	.long L$set$1303
LASFDE49:
	.long	LASFDE49-EH_frame1
	.long	LFB2546-.
	.set L$set$1304,LFE2546-LFB2546
	.long L$set$1304
	.byte	0x4
	.long	0x0
	.byte	0x4
	.set L$set$1305,LCFI75-LFB2546
	.long L$set$1305
	.byte	0xe
	.byte	0x8
	.byte	0x84
	.byte	0x2
	.byte	0x4
	.set L$set$1306,LCFI76-LCFI75
	.long L$set$1306
	.byte	0xd
	.byte	0x4
	.align 2
LEFDE49:
.globl __ZNSt8_Rb_treeIPN2sf11ResourcePtrINS0_4FontEEES4_St9_IdentityIS4_ESt4lessIS4_ESaIS4_EE8_M_beginEv.eh
	.private_extern __ZNSt8_Rb_treeIPN2sf11ResourcePtrINS0_4FontEEES4_St9_IdentityIS4_ESt4lessIS4_ESaIS4_EE8_M_beginEv.eh
	.weak_definition __ZNSt8_Rb_treeIPN2sf11ResourcePtrINS0_4FontEEES4_St9_IdentityIS4_ESt4lessIS4_ESaIS4_EE8_M_beginEv.eh
__ZNSt8_Rb_treeIPN2sf11ResourcePtrINS0_4FontEEES4_St9_IdentityIS4_ESt4lessIS4_ESaIS4_EE8_M_beginEv.eh:
LSFDE51:
	.set L$set$1307,LEFDE51-LASFDE51
	.long L$set$1307
LASFDE51:
	.long	LASFDE51-EH_frame1
	.long	LFB2578-.
	.set L$set$1308,LFE2578-LFB2578
	.long L$set$1308
	.byte	0x4
	.long	0x0
	.byte	0x4
	.set L$set$1309,LCFI78-LFB2578
	.long L$set$1309
	.byte	0xe
	.byte	0x8
	.byte	0x84
	.byte	0x2
	.byte	0x4
	.set L$set$1310,LCFI79-LCFI78
	.long L$set$1310
	.byte	0xd
	.byte	0x4
	.align 2
LEFDE51:
.globl __ZN9__gnu_cxx13new_allocatorISt13_Rb_tree_nodeISt4pairIKjN2sf5GlyphEEEED2Ev.eh
	.private_extern __ZN9__gnu_cxx13new_allocatorISt13_Rb_tree_nodeISt4pairIKjN2sf5GlyphEEEED2Ev.eh
	.weak_definition __ZN9__gnu_cxx13new_allocatorISt13_Rb_tree_nodeISt4pairIKjN2sf5GlyphEEEED2Ev.eh
__ZN9__gnu_cxx13new_allocatorISt13_Rb_tree_nodeISt4pairIKjN2sf5GlyphEEEED2Ev.eh:
LSFDE53:
	.set L$set$1311,LEFDE53-LASFDE53
	.long L$set$1311
LASFDE53:
	.long	LASFDE53-EH_frame1
	.long	LFB2582-.
	.set L$set$1312,LFE2582-LFB2582
	.long L$set$1312
	.byte	0x4
	.long	0x0
	.byte	0x4
	.set L$set$1313,LCFI81-LFB2582
	.long L$set$1313
	.byte	0xe
	.byte	0x8
	.byte	0x84
	.byte	0x2
	.byte	0x4
	.set L$set$1314,LCFI82-LCFI81
	.long L$set$1314
	.byte	0xd
	.byte	0x4
	.align 2
LEFDE53:
.globl __ZNSaISt13_Rb_tree_nodeISt4pairIKjN2sf5GlyphEEEED2Ev.eh
	.private_extern __ZNSaISt13_Rb_tree_nodeISt4pairIKjN2sf5GlyphEEEED2Ev.eh
	.weak_definition __ZNSaISt13_Rb_tree_nodeISt4pairIKjN2sf5GlyphEEEED2Ev.eh
__ZNSaISt13_Rb_tree_nodeISt4pairIKjN2sf5GlyphEEEED2Ev.eh:
LSFDE55:
	.set L$set$1315,LEFDE55-LASFDE55
	.long L$set$1315
LASFDE55:
	.long	LASFDE55-EH_frame1
	.long	LFB2543-.
	.set L$set$1316,LFE2543-LFB2543
	.long L$set$1316
	.byte	0x4
	.long	0x0
	.byte	0x4
	.set L$set$1317,LCFI84-LFB2543
	.long L$set$1317
	.byte	0xe
	.byte	0x8
	.byte	0x84
	.byte	0x2
	.byte	0x4
	.set L$set$1318,LCFI85-LCFI84
	.long L$set$1318
	.byte	0xd
	.byte	0x4
	.align 2
LEFDE55:
.globl __ZNSt8_Rb_treeIjSt4pairIKjN2sf5GlyphEESt10_Select1stIS4_ESt4lessIjESaIS4_EE13_Rb_tree_implIS8_Lb0EED1Ev.eh
	.private_extern __ZNSt8_Rb_treeIjSt4pairIKjN2sf5GlyphEESt10_Select1stIS4_ESt4lessIjESaIS4_EE13_Rb_tree_implIS8_Lb0EED1Ev.eh
	.weak_definition __ZNSt8_Rb_treeIjSt4pairIKjN2sf5GlyphEESt10_Select1stIS4_ESt4lessIjESaIS4_EE13_Rb_tree_implIS8_Lb0EED1Ev.eh
__ZNSt8_Rb_treeIjSt4pairIKjN2sf5GlyphEESt10_Select1stIS4_ESt4lessIjESaIS4_EE13_Rb_tree_implIS8_Lb0EED1Ev.eh:
LSFDE57:
	.set L$set$1319,LEFDE57-LASFDE57
	.long L$set$1319
LASFDE57:
	.long	LASFDE57-EH_frame1
	.long	LFB2472-.
	.set L$set$1320,LFE2472-LFB2472
	.long L$set$1320
	.byte	0x4
	.long	0x0
	.byte	0x4
	.set L$set$1321,LCFI87-LFB2472
	.long L$set$1321
	.byte	0xe
	.byte	0x8
	.byte	0x84
	.byte	0x2
	.byte	0x4
	.set L$set$1322,LCFI88-LCFI87
	.long L$set$1322
	.byte	0xd
	.byte	0x4
	.align 2
LEFDE57:
.globl __ZNSt8_Rb_treeIjSt4pairIKjN2sf5GlyphEESt10_Select1stIS4_ESt4lessIjESaIS4_EE8_S_rightEPSt18_Rb_tree_node_base.eh
	.private_extern __ZNSt8_Rb_treeIjSt4pairIKjN2sf5GlyphEESt10_Select1stIS4_ESt4lessIjESaIS4_EE8_S_rightEPSt18_Rb_tree_node_base.eh
	.weak_definition __ZNSt8_Rb_treeIjSt4pairIKjN2sf5GlyphEESt10_Select1stIS4_ESt4lessIjESaIS4_EE8_S_rightEPSt18_Rb_tree_node_base.eh
__ZNSt8_Rb_treeIjSt4pairIKjN2sf5GlyphEESt10_Select1stIS4_ESt4lessIjESaIS4_EE8_S_rightEPSt18_Rb_tree_node_base.eh:
LSFDE59:
	.set L$set$1323,LEFDE59-LASFDE59
	.long L$set$1323
LASFDE59:
	.long	LASFDE59-EH_frame1
	.long	LFB2584-.
	.set L$set$1324,LFE2584-LFB2584
	.long L$set$1324
	.byte	0x4
	.long	0x0
	.byte	0x4
	.set L$set$1325,LCFI90-LFB2584
	.long L$set$1325
	.byte	0xe
	.byte	0x8
	.byte	0x84
	.byte	0x2
	.byte	0x4
	.set L$set$1326,LCFI91-LCFI90
	.long L$set$1326
	.byte	0xd
	.byte	0x4
	.align 2
LEFDE59:
.globl __ZNSt8_Rb_treeIjSt4pairIKjN2sf5GlyphEESt10_Select1stIS4_ESt4lessIjESaIS4_EE7_S_leftEPSt18_Rb_tree_node_base.eh
	.private_extern __ZNSt8_Rb_treeIjSt4pairIKjN2sf5GlyphEESt10_Select1stIS4_ESt4lessIjESaIS4_EE7_S_leftEPSt18_Rb_tree_node_base.eh
	.weak_definition __ZNSt8_Rb_treeIjSt4pairIKjN2sf5GlyphEESt10_Select1stIS4_ESt4lessIjESaIS4_EE7_S_leftEPSt18_Rb_tree_node_base.eh
__ZNSt8_Rb_treeIjSt4pairIKjN2sf5GlyphEESt10_Select1stIS4_ESt4lessIjESaIS4_EE7_S_leftEPSt18_Rb_tree_node_base.eh:
LSFDE61:
	.set L$set$1327,LEFDE61-LASFDE61
	.long L$set$1327
LASFDE61:
	.long	LASFDE61-EH_frame1
	.long	LFB2585-.
	.set L$set$1328,LFE2585-LFB2585
	.long L$set$1328
	.byte	0x4
	.long	0x0
	.byte	0x4
	.set L$set$1329,LCFI93-LFB2585
	.long L$set$1329
	.byte	0xe
	.byte	0x8
	.byte	0x84
	.byte	0x2
	.byte	0x4
	.set L$set$1330,LCFI94-LCFI93
	.long L$set$1330
	.byte	0xd
	.byte	0x4
	.align 2
LEFDE61:
.globl __ZN9__gnu_cxx13new_allocatorIjED2Ev.eh
	.private_extern __ZN9__gnu_cxx13new_allocatorIjED2Ev.eh
	.weak_definition __ZN9__gnu_cxx13new_allocatorIjED2Ev.eh
__ZN9__gnu_cxx13new_allocatorIjED2Ev.eh:
LSFDE63:
	.set L$set$1331,LEFDE63-LASFDE63
	.long L$set$1331
LASFDE63:
	.long	LASFDE63-EH_frame1
	.long	LFB2588-.
	.set L$set$1332,LFE2588-LFB2588
	.long L$set$1332
	.byte	0x4
	.long	0x0
	.byte	0x4
	.set L$set$1333,LCFI96-LFB2588
	.long L$set$1333
	.byte	0xe
	.byte	0x8
	.byte	0x84
	.byte	0x2
	.byte	0x4
	.set L$set$1334,LCFI97-LCFI96
	.long L$set$1334
	.byte	0xd
	.byte	0x4
	.align 2
LEFDE63:
.globl __ZNSaIjED1Ev.eh
	.private_extern __ZNSaIjED1Ev.eh
	.weak_definition __ZNSaIjED1Ev.eh
__ZNSaIjED1Ev.eh:
LSFDE65:
	.set L$set$1335,LEFDE65-LASFDE65
	.long L$set$1335
LASFDE65:
	.long	LASFDE65-EH_frame1
	.long	LFB2549-.
	.set L$set$1336,LFE2549-LFB2549
	.long L$set$1336
	.byte	0x4
	.long	0x0
	.byte	0x4
	.set L$set$1337,LCFI99-LFB2549
	.long L$set$1337
	.byte	0xe
	.byte	0x8
	.byte	0x84
	.byte	0x2
	.byte	0x4
	.set L$set$1338,LCFI100-LCFI99
	.long L$set$1338
	.byte	0xd
	.byte	0x4
	.align 2
LEFDE65:
.globl __ZNSaIjED2Ev.eh
	.private_extern __ZNSaIjED2Ev.eh
	.weak_definition __ZNSaIjED2Ev.eh
__ZNSaIjED2Ev.eh:
LSFDE67:
	.set L$set$1339,LEFDE67-LASFDE67
	.long L$set$1339
LASFDE67:
	.long	LASFDE67-EH_frame1
	.long	LFB2548-.
	.set L$set$1340,LFE2548-LFB2548
	.long L$set$1340
	.byte	0x4
	.long	0x0
	.byte	0x4
	.set L$set$1341,LCFI102-LFB2548
	.long L$set$1341
	.byte	0xe
	.byte	0x8
	.byte	0x84
	.byte	0x2
	.byte	0x4
	.set L$set$1342,LCFI103-LCFI102
	.long L$set$1342
	.byte	0xd
	.byte	0x4
	.align 2
LEFDE67:
.globl __ZNSbIjSt11char_traitsIjESaIjEE12_Alloc_hiderD1Ev.eh
	.private_extern __ZNSbIjSt11char_traitsIjESaIjEE12_Alloc_hiderD1Ev.eh
	.weak_definition __ZNSbIjSt11char_traitsIjESaIjEE12_Alloc_hiderD1Ev.eh
__ZNSbIjSt11char_traitsIjESaIjEE12_Alloc_hiderD1Ev.eh:
LSFDE69:
	.set L$set$1343,LEFDE69-LASFDE69
	.long L$set$1343
LASFDE69:
	.long	LASFDE69-EH_frame1
	.long	LFB2478-.
	.set L$set$1344,LFE2478-LFB2478
	.long L$set$1344
	.byte	0x4
	.long	0x0
	.byte	0x4
	.set L$set$1345,LCFI105-LFB2478
	.long L$set$1345
	.byte	0xe
	.byte	0x8
	.byte	0x84
	.byte	0x2
	.byte	0x4
	.set L$set$1346,LCFI106-LCFI105
	.long L$set$1346
	.byte	0xd
	.byte	0x4
	.align 2
LEFDE69:
.globl __ZNKSbIjSt11char_traitsIjESaIjEE7_M_dataEv.eh
	.private_extern __ZNKSbIjSt11char_traitsIjESaIjEE7_M_dataEv.eh
	.weak_definition __ZNKSbIjSt11char_traitsIjESaIjEE7_M_dataEv.eh
__ZNKSbIjSt11char_traitsIjESaIjEE7_M_dataEv.eh:
LSFDE71:
	.set L$set$1347,LEFDE71-LASFDE71
	.long L$set$1347
LASFDE71:
	.long	LASFDE71-EH_frame1
	.long	LFB2590-.
	.set L$set$1348,LFE2590-LFB2590
	.long L$set$1348
	.byte	0x4
	.long	0x0
	.byte	0x4
	.set L$set$1349,LCFI108-LFB2590
	.long L$set$1349
	.byte	0xe
	.byte	0x8
	.byte	0x84
	.byte	0x2
	.byte	0x4
	.set L$set$1350,LCFI109-LCFI108
	.long L$set$1350
	.byte	0xd
	.byte	0x4
	.align 2
LEFDE71:
.globl __ZNKSbIjSt11char_traitsIjESaIjEE6_M_repEv.eh
	.private_extern __ZNKSbIjSt11char_traitsIjESaIjEE6_M_repEv.eh
	.weak_definition __ZNKSbIjSt11char_traitsIjESaIjEE6_M_repEv.eh
__ZNKSbIjSt11char_traitsIjESaIjEE6_M_repEv.eh:
LSFDE73:
	.set L$set$1351,LEFDE73-LASFDE73
	.long L$set$1351
LASFDE73:
	.long	LASFDE73-EH_frame1
	.long	LFB2550-.
	.set L$set$1352,LFE2550-LFB2550
	.long L$set$1352
	.byte	0x4
	.long	0x0
	.byte	0x4
	.set L$set$1353,LCFI111-LFB2550
	.long L$set$1353
	.byte	0xe
	.byte	0x8
	.byte	0x84
	.byte	0x2
	.byte	0x4
	.set L$set$1354,LCFI112-LCFI111
	.long L$set$1354
	.byte	0xd
	.byte	0x4
	.align 2
LEFDE73:
.globl __ZN9__gnu_cxx13new_allocatorIjEC2ERKS1_.eh
	.private_extern __ZN9__gnu_cxx13new_allocatorIjEC2ERKS1_.eh
	.weak_definition __ZN9__gnu_cxx13new_allocatorIjEC2ERKS1_.eh
__ZN9__gnu_cxx13new_allocatorIjEC2ERKS1_.eh:
LSFDE75:
	.set L$set$1355,LEFDE75-LASFDE75
	.long L$set$1355
LASFDE75:
	.long	LASFDE75-EH_frame1
	.long	LFB2592-.
	.set L$set$1356,LFE2592-LFB2592
	.long L$set$1356
	.byte	0x4
	.long	0x0
	.byte	0x4
	.set L$set$1357,LCFI114-LFB2592
	.long L$set$1357
	.byte	0xe
	.byte	0x8
	.byte	0x84
	.byte	0x2
	.byte	0x4
	.set L$set$1358,LCFI115-LCFI114
	.long L$set$1358
	.byte	0xd
	.byte	0x4
	.align 2
LEFDE75:
.globl __ZNSaIjEC1ERKS_.eh
	.private_extern __ZNSaIjEC1ERKS_.eh
	.weak_definition __ZNSaIjEC1ERKS_.eh
__ZNSaIjEC1ERKS_.eh:
LSFDE77:
	.set L$set$1359,LEFDE77-LASFDE77
	.long L$set$1359
LASFDE77:
	.long	LASFDE77-EH_frame1
	.long	LFB2554-.
	.set L$set$1360,LFE2554-LFB2554
	.long L$set$1360
	.byte	0x4
	.long	0x0
	.byte	0x4
	.set L$set$1361,LCFI117-LFB2554
	.long L$set$1361
	.byte	0xe
	.byte	0x8
	.byte	0x84
	.byte	0x2
	.byte	0x4
	.set L$set$1362,LCFI118-LCFI117
	.long L$set$1362
	.byte	0xd
	.byte	0x4
	.align 2
LEFDE77:
.globl __ZNKSbIjSt11char_traitsIjESaIjEE13get_allocatorEv.eh
	.private_extern __ZNKSbIjSt11char_traitsIjESaIjEE13get_allocatorEv.eh
	.weak_definition __ZNKSbIjSt11char_traitsIjESaIjEE13get_allocatorEv.eh
__ZNKSbIjSt11char_traitsIjESaIjEE13get_allocatorEv.eh:
LSFDE79:
	.set L$set$1363,LEFDE79-LASFDE79
	.long L$set$1363
LASFDE79:
	.long	LASFDE79-EH_frame1
	.long	LFB2551-.
	.set L$set$1364,LFE2551-LFB2551
	.long L$set$1364
	.byte	0x4
	.long	0x0
	.byte	0x4
	.set L$set$1365,LCFI120-LFB2551
	.long L$set$1365
	.byte	0xe
	.byte	0x8
	.byte	0x84
	.byte	0x2
	.byte	0x4
	.set L$set$1366,LCFI121-LCFI120
	.long L$set$1366
	.byte	0xd
	.byte	0x4
	.byte	0x4
	.set L$set$1367,LCFI123-LCFI121
	.long L$set$1367
	.byte	0x86
	.byte	0x3
	.align 2
LEFDE79:
.globl __ZNSbIjSt11char_traitsIjESaIjEE4_Rep12_S_empty_repEv.eh
	.private_extern __ZNSbIjSt11char_traitsIjESaIjEE4_Rep12_S_empty_repEv.eh
	.weak_definition __ZNSbIjSt11char_traitsIjESaIjEE4_Rep12_S_empty_repEv.eh
__ZNSbIjSt11char_traitsIjESaIjEE4_Rep12_S_empty_repEv.eh:
LSFDE81:
	.set L$set$1368,LEFDE81-LASFDE81
	.long L$set$1368
LASFDE81:
	.long	LASFDE81-EH_frame1
	.long	LFB2594-.
	.set L$set$1369,LFE2594-LFB2594
	.long L$set$1369
	.byte	0x4
	.long	0x0
	.byte	0x4
	.set L$set$1370,LCFI124-LFB2594
	.long L$set$1370
	.byte	0xe
	.byte	0x8
	.byte	0x84
	.byte	0x2
	.byte	0x4
	.set L$set$1371,LCFI125-LCFI124
	.long L$set$1371
	.byte	0xd
	.byte	0x4
	.align 2
LEFDE81:
.globl __ZN9__gnu_cxx13new_allocatorISt13_Rb_tree_nodeIPN2sf11ResourcePtrINS2_4FontEEEEED2Ev.eh
	.private_extern __ZN9__gnu_cxx13new_allocatorISt13_Rb_tree_nodeIPN2sf11ResourcePtrINS2_4FontEEEEED2Ev.eh
	.weak_definition __ZN9__gnu_cxx13new_allocatorISt13_Rb_tree_nodeIPN2sf11ResourcePtrINS2_4FontEEEEED2Ev.eh
__ZN9__gnu_cxx13new_allocatorISt13_Rb_tree_nodeIPN2sf11ResourcePtrINS2_4FontEEEEED2Ev.eh:
LSFDE83:
	.set L$set$1372,LEFDE83-LASFDE83
	.long L$set$1372
LASFDE83:
	.long	LASFDE83-EH_frame1
	.long	LFB2606-.
	.set L$set$1373,LFE2606-LFB2606
	.long L$set$1373
	.byte	0x4
	.long	0x0
	.byte	0x4
	.set L$set$1374,LCFI127-LFB2606
	.long L$set$1374
	.byte	0xe
	.byte	0x8
	.byte	0x84
	.byte	0x2
	.byte	0x4
	.set L$set$1375,LCFI128-LCFI127
	.long L$set$1375
	.byte	0xd
	.byte	0x4
	.align 2
LEFDE83:
.globl __ZNSaISt13_Rb_tree_nodeIPN2sf11ResourcePtrINS0_4FontEEEEED2Ev.eh
	.private_extern __ZNSaISt13_Rb_tree_nodeIPN2sf11ResourcePtrINS0_4FontEEEEED2Ev.eh
	.weak_definition __ZNSaISt13_Rb_tree_nodeIPN2sf11ResourcePtrINS0_4FontEEEEED2Ev.eh
__ZNSaISt13_Rb_tree_nodeIPN2sf11ResourcePtrINS0_4FontEEEEED2Ev.eh:
LSFDE85:
	.set L$set$1376,LEFDE85-LASFDE85
	.long L$set$1376
LASFDE85:
	.long	LASFDE85-EH_frame1
	.long	LFB2575-.
	.set L$set$1377,LFE2575-LFB2575
	.long L$set$1377
	.byte	0x4
	.long	0x0
	.byte	0x4
	.set L$set$1378,LCFI130-LFB2575
	.long L$set$1378
	.byte	0xe
	.byte	0x8
	.byte	0x84
	.byte	0x2
	.byte	0x4
	.set L$set$1379,LCFI131-LCFI130
	.long L$set$1379
	.byte	0xd
	.byte	0x4
	.align 2
LEFDE85:
.globl __ZNSt8_Rb_treeIPN2sf11ResourcePtrINS0_4FontEEES4_St9_IdentityIS4_ESt4lessIS4_ESaIS4_EE13_Rb_tree_implIS8_Lb0EED1Ev.eh
	.private_extern __ZNSt8_Rb_treeIPN2sf11ResourcePtrINS0_4FontEEES4_St9_IdentityIS4_ESt4lessIS4_ESaIS4_EE13_Rb_tree_implIS8_Lb0EED1Ev.eh
	.weak_definition __ZNSt8_Rb_treeIPN2sf11ResourcePtrINS0_4FontEEES4_St9_IdentityIS4_ESt4lessIS4_ESaIS4_EE13_Rb_tree_implIS8_Lb0EED1Ev.eh
__ZNSt8_Rb_treeIPN2sf11ResourcePtrINS0_4FontEEES4_St9_IdentityIS4_ESt4lessIS4_ESaIS4_EE13_Rb_tree_implIS8_Lb0EED1Ev.eh:
LSFDE87:
	.set L$set$1380,LEFDE87-LASFDE87
	.long L$set$1380
LASFDE87:
	.long	LASFDE87-EH_frame1
	.long	LFB2533-.
	.set L$set$1381,LFE2533-LFB2533
	.long L$set$1381
	.byte	0x4
	.long	0x0
	.byte	0x4
	.set L$set$1382,LCFI133-LFB2533
	.long L$set$1382
	.byte	0xe
	.byte	0x8
	.byte	0x84
	.byte	0x2
	.byte	0x4
	.set L$set$1383,LCFI134-LCFI133
	.long L$set$1383
	.byte	0xd
	.byte	0x4
	.align 2
LEFDE87:
.globl __ZNSt8_Rb_treeIPN2sf11ResourcePtrINS0_4FontEEES4_St9_IdentityIS4_ESt4lessIS4_ESaIS4_EE8_S_rightEPSt18_Rb_tree_node_base.eh
	.private_extern __ZNSt8_Rb_treeIPN2sf11ResourcePtrINS0_4FontEEES4_St9_IdentityIS4_ESt4lessIS4_ESaIS4_EE8_S_rightEPSt18_Rb_tree_node_base.eh
	.weak_definition __ZNSt8_Rb_treeIPN2sf11ResourcePtrINS0_4FontEEES4_St9_IdentityIS4_ESt4lessIS4_ESaIS4_EE8_S_rightEPSt18_Rb_tree_node_base.eh
__ZNSt8_Rb_treeIPN2sf11ResourcePtrINS0_4FontEEES4_St9_IdentityIS4_ESt4lessIS4_ESaIS4_EE8_S_rightEPSt18_Rb_tree_node_base.eh:
LSFDE89:
	.set L$set$1384,LEFDE89-LASFDE89
	.long L$set$1384
LASFDE89:
	.long	LASFDE89-EH_frame1
	.long	LFB2608-.
	.set L$set$1385,LFE2608-LFB2608
	.long L$set$1385
	.byte	0x4
	.long	0x0
	.byte	0x4
	.set L$set$1386,LCFI136-LFB2608
	.long L$set$1386
	.byte	0xe
	.byte	0x8
	.byte	0x84
	.byte	0x2
	.byte	0x4
	.set L$set$1387,LCFI137-LCFI136
	.long L$set$1387
	.byte	0xd
	.byte	0x4
	.align 2
LEFDE89:
.globl __ZNSt8_Rb_treeIPN2sf11ResourcePtrINS0_4FontEEES4_St9_IdentityIS4_ESt4lessIS4_ESaIS4_EE7_S_leftEPSt18_Rb_tree_node_base.eh
	.private_extern __ZNSt8_Rb_treeIPN2sf11ResourcePtrINS0_4FontEEES4_St9_IdentityIS4_ESt4lessIS4_ESaIS4_EE7_S_leftEPSt18_Rb_tree_node_base.eh
	.weak_definition __ZNSt8_Rb_treeIPN2sf11ResourcePtrINS0_4FontEEES4_St9_IdentityIS4_ESt4lessIS4_ESaIS4_EE7_S_leftEPSt18_Rb_tree_node_base.eh
__ZNSt8_Rb_treeIPN2sf11ResourcePtrINS0_4FontEEES4_St9_IdentityIS4_ESt4lessIS4_ESaIS4_EE7_S_leftEPSt18_Rb_tree_node_base.eh:
LSFDE91:
	.set L$set$1388,LEFDE91-LASFDE91
	.long L$set$1388
LASFDE91:
	.long	LASFDE91-EH_frame1
	.long	LFB2609-.
	.set L$set$1389,LFE2609-LFB2609
	.long L$set$1389
	.byte	0x4
	.long	0x0
	.byte	0x4
	.set L$set$1390,LCFI139-LFB2609
	.long L$set$1390
	.byte	0xe
	.byte	0x8
	.byte	0x84
	.byte	0x2
	.byte	0x4
	.set L$set$1391,LCFI140-LCFI139
	.long L$set$1391
	.byte	0xd
	.byte	0x4
	.align 2
LEFDE91:
.globl __ZNSt23_Rb_tree_const_iteratorIPN2sf11ResourcePtrINS0_4FontEEEEC1EPKSt13_Rb_tree_nodeIS4_E.eh
	.private_extern __ZNSt23_Rb_tree_const_iteratorIPN2sf11ResourcePtrINS0_4FontEEEEC1EPKSt13_Rb_tree_nodeIS4_E.eh
	.weak_definition __ZNSt23_Rb_tree_const_iteratorIPN2sf11ResourcePtrINS0_4FontEEEEC1EPKSt13_Rb_tree_nodeIS4_E.eh
__ZNSt23_Rb_tree_const_iteratorIPN2sf11ResourcePtrINS0_4FontEEEEC1EPKSt13_Rb_tree_nodeIS4_E.eh:
LSFDE93:
	.set L$set$1392,LEFDE93-LASFDE93
	.long L$set$1392
LASFDE93:
	.long	LASFDE93-EH_frame1
	.long	LFB2613-.
	.set L$set$1393,LFE2613-LFB2613
	.long L$set$1393
	.byte	0x4
	.long	0x0
	.byte	0x4
	.set L$set$1394,LCFI142-LFB2613
	.long L$set$1394
	.byte	0xe
	.byte	0x8
	.byte	0x84
	.byte	0x2
	.byte	0x4
	.set L$set$1395,LCFI143-LCFI142
	.long L$set$1395
	.byte	0xd
	.byte	0x4
	.align 2
LEFDE93:
.globl __ZNKSt8_Rb_treeIPN2sf11ResourcePtrINS0_4FontEEES4_St9_IdentityIS4_ESt4lessIS4_ESaIS4_EE5beginEv.eh
	.private_extern __ZNKSt8_Rb_treeIPN2sf11ResourcePtrINS0_4FontEEES4_St9_IdentityIS4_ESt4lessIS4_ESaIS4_EE5beginEv.eh
	.weak_definition __ZNKSt8_Rb_treeIPN2sf11ResourcePtrINS0_4FontEEES4_St9_IdentityIS4_ESt4lessIS4_ESaIS4_EE5beginEv.eh
__ZNKSt8_Rb_treeIPN2sf11ResourcePtrINS0_4FontEEES4_St9_IdentityIS4_ESt4lessIS4_ESaIS4_EE5beginEv.eh:
LSFDE95:
	.set L$set$1396,LEFDE95-LASFDE95
	.long L$set$1396
LASFDE95:
	.long	LASFDE95-EH_frame1
	.long	LFB2579-.
	.set L$set$1397,LFE2579-LFB2579
	.long L$set$1397
	.byte	0x4
	.long	0x0
	.byte	0x4
	.set L$set$1398,LCFI145-LFB2579
	.long L$set$1398
	.byte	0xe
	.byte	0x8
	.byte	0x84
	.byte	0x2
	.byte	0x4
	.set L$set$1399,LCFI146-LCFI145
	.long L$set$1399
	.byte	0xd
	.byte	0x4
	.align 2
LEFDE95:
.globl __ZNKSt3setIPN2sf11ResourcePtrINS0_4FontEEESt4lessIS4_ESaIS4_EE5beginEv.eh
	.private_extern __ZNKSt3setIPN2sf11ResourcePtrINS0_4FontEEESt4lessIS4_ESaIS4_EE5beginEv.eh
	.weak_definition __ZNKSt3setIPN2sf11ResourcePtrINS0_4FontEEESt4lessIS4_ESaIS4_EE5beginEv.eh
__ZNKSt3setIPN2sf11ResourcePtrINS0_4FontEEESt4lessIS4_ESaIS4_EE5beginEv.eh:
LSFDE97:
	.set L$set$1400,LEFDE97-LASFDE97
	.long L$set$1400
LASFDE97:
	.long	LASFDE97-EH_frame1
	.long	LFB2536-.
	.set L$set$1401,LFE2536-LFB2536
	.long L$set$1401
	.byte	0x4
	.long	0x0
	.byte	0x4
	.set L$set$1402,LCFI148-LFB2536
	.long L$set$1402
	.byte	0xe
	.byte	0x8
	.byte	0x84
	.byte	0x2
	.byte	0x4
	.set L$set$1403,LCFI149-LCFI148
	.long L$set$1403
	.byte	0xd
	.byte	0x4
	.align 2
LEFDE97:
.globl __ZNKSt8_Rb_treeIPN2sf11ResourcePtrINS0_4FontEEES4_St9_IdentityIS4_ESt4lessIS4_ESaIS4_EE3endEv.eh
	.private_extern __ZNKSt8_Rb_treeIPN2sf11ResourcePtrINS0_4FontEEES4_St9_IdentityIS4_ESt4lessIS4_ESaIS4_EE3endEv.eh
	.weak_definition __ZNKSt8_Rb_treeIPN2sf11ResourcePtrINS0_4FontEEES4_St9_IdentityIS4_ESt4lessIS4_ESaIS4_EE3endEv.eh
__ZNKSt8_Rb_treeIPN2sf11ResourcePtrINS0_4FontEEES4_St9_IdentityIS4_ESt4lessIS4_ESaIS4_EE3endEv.eh:
LSFDE99:
	.set L$set$1404,LEFDE99-LASFDE99
	.long L$set$1404
LASFDE99:
	.long	LASFDE99-EH_frame1
	.long	LFB2580-.
	.set L$set$1405,LFE2580-LFB2580
	.long L$set$1405
	.byte	0x4
	.long	0x0
	.byte	0x4
	.set L$set$1406,LCFI151-LFB2580
	.long L$set$1406
	.byte	0xe
	.byte	0x8
	.byte	0x84
	.byte	0x2
	.byte	0x4
	.set L$set$1407,LCFI152-LCFI151
	.long L$set$1407
	.byte	0xd
	.byte	0x4
	.align 2
LEFDE99:
.globl __ZNKSt3setIPN2sf11ResourcePtrINS0_4FontEEESt4lessIS4_ESaIS4_EE3endEv.eh
	.private_extern __ZNKSt3setIPN2sf11ResourcePtrINS0_4FontEEESt4lessIS4_ESaIS4_EE3endEv.eh
	.weak_definition __ZNKSt3setIPN2sf11ResourcePtrINS0_4FontEEESt4lessIS4_ESaIS4_EE3endEv.eh
__ZNKSt3setIPN2sf11ResourcePtrINS0_4FontEEESt4lessIS4_ESaIS4_EE3endEv.eh:
LSFDE101:
	.set L$set$1408,LEFDE101-LASFDE101
	.long L$set$1408
LASFDE101:
	.long	LASFDE101-EH_frame1
	.long	LFB2537-.
	.set L$set$1409,LFE2537-LFB2537
	.long L$set$1409
	.byte	0x4
	.long	0x0
	.byte	0x4
	.set L$set$1410,LCFI154-LFB2537
	.long L$set$1410
	.byte	0xe
	.byte	0x8
	.byte	0x84
	.byte	0x2
	.byte	0x4
	.set L$set$1411,LCFI155-LCFI154
	.long L$set$1411
	.byte	0xd
	.byte	0x4
	.align 2
LEFDE101:
.globl __ZNSt4pairIKjN2sf5GlyphEED1Ev.eh
	.private_extern __ZNSt4pairIKjN2sf5GlyphEED1Ev.eh
	.weak_definition __ZNSt4pairIKjN2sf5GlyphEED1Ev.eh
__ZNSt4pairIKjN2sf5GlyphEED1Ev.eh:
LSFDE103:
	.set L$set$1412,LEFDE103-LASFDE103
	.long L$set$1412
LASFDE103:
	.long	LASFDE103-EH_frame1
	.long	LFB2621-.
	.set L$set$1413,LFE2621-LFB2621
	.long L$set$1413
	.byte	0x4
	.long	0x0
	.byte	0x4
	.set L$set$1414,LCFI157-LFB2621
	.long L$set$1414
	.byte	0xe
	.byte	0x8
	.byte	0x84
	.byte	0x2
	.byte	0x4
	.set L$set$1415,LCFI158-LCFI157
	.long L$set$1415
	.byte	0xd
	.byte	0x4
	.align 2
LEFDE103:
.globl __ZN9__gnu_cxx13new_allocatorISt4pairIKjN2sf5GlyphEEE7destroyEPS5_.eh
	.private_extern __ZN9__gnu_cxx13new_allocatorISt4pairIKjN2sf5GlyphEEE7destroyEPS5_.eh
	.weak_definition __ZN9__gnu_cxx13new_allocatorISt4pairIKjN2sf5GlyphEEE7destroyEPS5_.eh
__ZN9__gnu_cxx13new_allocatorISt4pairIKjN2sf5GlyphEEE7destroyEPS5_.eh:
LSFDE105:
	.set L$set$1416,LEFDE105-LASFDE105
	.long L$set$1416
LASFDE105:
	.long	LASFDE105-EH_frame1
	.long	LFB2618-.
	.set L$set$1417,LFE2618-LFB2618
	.long L$set$1417
	.byte	0x4
	.long	0x0
	.byte	0x4
	.set L$set$1418,LCFI160-LFB2618
	.long L$set$1418
	.byte	0xe
	.byte	0x8
	.byte	0x84
	.byte	0x2
	.byte	0x4
	.set L$set$1419,LCFI161-LCFI160
	.long L$set$1419
	.byte	0xd
	.byte	0x4
	.align 2
LEFDE105:
.globl __ZNSaIcEC1IjEERKSaIT_E.eh
	.private_extern __ZNSaIcEC1IjEERKSaIT_E.eh
	.weak_definition __ZNSaIcEC1IjEERKSaIT_E.eh
__ZNSaIcEC1IjEERKSaIT_E.eh:
LSFDE107:
	.set L$set$1420,LEFDE107-LASFDE107
	.long L$set$1420
LASFDE107:
	.long	LASFDE107-EH_frame1
	.long	LFB2625-.
	.set L$set$1421,LFE2625-LFB2625
	.long L$set$1421
	.byte	0x4
	.long	0x0
	.byte	0x4
	.set L$set$1422,LCFI163-LFB2625
	.long L$set$1422
	.byte	0xe
	.byte	0x8
	.byte	0x84
	.byte	0x2
	.byte	0x4
	.set L$set$1423,LCFI164-LCFI163
	.long L$set$1423
	.byte	0xd
	.byte	0x4
	.align 2
LEFDE107:
.globl __ZNKSt8_Rb_treeIPN2sf11ResourcePtrINS0_5ImageEEES4_St9_IdentityIS4_ESt4lessIS4_ESaIS4_EE4sizeEv.eh
	.private_extern __ZNKSt8_Rb_treeIPN2sf11ResourcePtrINS0_5ImageEEES4_St9_IdentityIS4_ESt4lessIS4_ESaIS4_EE4sizeEv.eh
	.weak_definition __ZNKSt8_Rb_treeIPN2sf11ResourcePtrINS0_5ImageEEES4_St9_IdentityIS4_ESt4lessIS4_ESaIS4_EE4sizeEv.eh
__ZNKSt8_Rb_treeIPN2sf11ResourcePtrINS0_5ImageEEES4_St9_IdentityIS4_ESt4lessIS4_ESaIS4_EE4sizeEv.eh:
LSFDE109:
	.set L$set$1424,LEFDE109-LASFDE109
	.long L$set$1424
LASFDE109:
	.long	LASFDE109-EH_frame1
	.long	LFB2642-.
	.set L$set$1425,LFE2642-LFB2642
	.long L$set$1425
	.byte	0x4
	.long	0x0
	.byte	0x4
	.set L$set$1426,LCFI166-LFB2642
	.long L$set$1426
	.byte	0xe
	.byte	0x8
	.byte	0x84
	.byte	0x2
	.byte	0x4
	.set L$set$1427,LCFI167-LCFI166
	.long L$set$1427
	.byte	0xd
	.byte	0x4
	.align 2
LEFDE109:
.globl __ZN9__gnu_cxx13new_allocatorIPN2sf11ResourcePtrINS1_4FontEEEE7destroyEPS5_.eh
	.private_extern __ZN9__gnu_cxx13new_allocatorIPN2sf11ResourcePtrINS1_4FontEEEE7destroyEPS5_.eh
	.weak_definition __ZN9__gnu_cxx13new_allocatorIPN2sf11ResourcePtrINS1_4FontEEEE7destroyEPS5_.eh
__ZN9__gnu_cxx13new_allocatorIPN2sf11ResourcePtrINS1_4FontEEEE7destroyEPS5_.eh:
LSFDE111:
	.set L$set$1428,LEFDE111-LASFDE111
	.long L$set$1428
LASFDE111:
	.long	LASFDE111-EH_frame1
	.long	LFB2648-.
	.set L$set$1429,LFE2648-LFB2648
	.long L$set$1429
	.byte	0x4
	.long	0x0
	.byte	0x4
	.set L$set$1430,LCFI169-LFB2648
	.long L$set$1430
	.byte	0xe
	.byte	0x8
	.byte	0x84
	.byte	0x2
	.byte	0x4
	.set L$set$1431,LCFI170-LCFI169
	.long L$set$1431
	.byte	0xd
	.byte	0x4
	.align 2
LEFDE111:
.globl __ZNKSt8_Rb_treeIjSt4pairIKjN2sf5GlyphEESt10_Select1stIS4_ESt4lessIjESaIS4_EE21_M_get_Node_allocatorEv.eh
	.private_extern __ZNKSt8_Rb_treeIjSt4pairIKjN2sf5GlyphEESt10_Select1stIS4_ESt4lessIjESaIS4_EE21_M_get_Node_allocatorEv.eh
	.weak_definition __ZNKSt8_Rb_treeIjSt4pairIKjN2sf5GlyphEESt10_Select1stIS4_ESt4lessIjESaIS4_EE21_M_get_Node_allocatorEv.eh
__ZNKSt8_Rb_treeIjSt4pairIKjN2sf5GlyphEESt10_Select1stIS4_ESt4lessIjESaIS4_EE21_M_get_Node_allocatorEv.eh:
LSFDE113:
	.set L$set$1432,LEFDE113-LASFDE113
	.long L$set$1432
LASFDE113:
	.long	LASFDE113-EH_frame1
	.long	LFB2650-.
	.set L$set$1433,LFE2650-LFB2650
	.long L$set$1433
	.byte	0x4
	.long	0x0
	.byte	0x4
	.set L$set$1434,LCFI172-LFB2650
	.long L$set$1434
	.byte	0xe
	.byte	0x8
	.byte	0x84
	.byte	0x2
	.byte	0x4
	.set L$set$1435,LCFI173-LCFI172
	.long L$set$1435
	.byte	0xd
	.byte	0x4
	.align 2
LEFDE113:
.globl __ZN9__gnu_cxx13new_allocatorISt4pairIKjN2sf5GlyphEEED2Ev.eh
	.private_extern __ZN9__gnu_cxx13new_allocatorISt4pairIKjN2sf5GlyphEEED2Ev.eh
	.weak_definition __ZN9__gnu_cxx13new_allocatorISt4pairIKjN2sf5GlyphEEED2Ev.eh
__ZN9__gnu_cxx13new_allocatorISt4pairIKjN2sf5GlyphEEED2Ev.eh:
LSFDE115:
	.set L$set$1436,LEFDE115-LASFDE115
	.long L$set$1436
LASFDE115:
	.long	LASFDE115-EH_frame1
	.long	LFB2658-.
	.set L$set$1437,LFE2658-LFB2658
	.long L$set$1437
	.byte	0x4
	.long	0x0
	.byte	0x4
	.set L$set$1438,LCFI175-LFB2658
	.long L$set$1438
	.byte	0xe
	.byte	0x8
	.byte	0x84
	.byte	0x2
	.byte	0x4
	.set L$set$1439,LCFI176-LCFI175
	.long L$set$1439
	.byte	0xd
	.byte	0x4
	.align 2
LEFDE115:
.globl __ZNSaISt4pairIKjN2sf5GlyphEEED1Ev.eh
	.private_extern __ZNSaISt4pairIKjN2sf5GlyphEEED1Ev.eh
	.weak_definition __ZNSaISt4pairIKjN2sf5GlyphEEED1Ev.eh
__ZNSaISt4pairIKjN2sf5GlyphEEED1Ev.eh:
LSFDE117:
	.set L$set$1440,LEFDE117-LASFDE117
	.long L$set$1440
LASFDE117:
	.long	LASFDE117-EH_frame1
	.long	LFB2617-.
	.set L$set$1441,LFE2617-LFB2617
	.long L$set$1441
	.byte	0x4
	.long	0x0
	.byte	0x4
	.set L$set$1442,LCFI178-LFB2617
	.long L$set$1442
	.byte	0xe
	.byte	0x8
	.byte	0x84
	.byte	0x2
	.byte	0x4
	.set L$set$1443,LCFI179-LCFI178
	.long L$set$1443
	.byte	0xd
	.byte	0x4
	.align 2
LEFDE117:
.globl __ZNKSt8_Rb_treeIPN2sf11ResourcePtrINS0_4FontEEES4_St9_IdentityIS4_ESt4lessIS4_ESaIS4_EE4sizeEv.eh
	.private_extern __ZNKSt8_Rb_treeIPN2sf11ResourcePtrINS0_4FontEEES4_St9_IdentityIS4_ESt4lessIS4_ESaIS4_EE4sizeEv.eh
	.weak_definition __ZNKSt8_Rb_treeIPN2sf11ResourcePtrINS0_4FontEEES4_St9_IdentityIS4_ESt4lessIS4_ESaIS4_EE4sizeEv.eh
__ZNKSt8_Rb_treeIPN2sf11ResourcePtrINS0_4FontEEES4_St9_IdentityIS4_ESt4lessIS4_ESaIS4_EE4sizeEv.eh:
LSFDE119:
	.set L$set$1444,LEFDE119-LASFDE119
	.long L$set$1444
LASFDE119:
	.long	LASFDE119-EH_frame1
	.long	LFB2662-.
	.set L$set$1445,LFE2662-LFB2662
	.long L$set$1445
	.byte	0x4
	.long	0x0
	.byte	0x4
	.set L$set$1446,LCFI181-LFB2662
	.long L$set$1446
	.byte	0xe
	.byte	0x8
	.byte	0x84
	.byte	0x2
	.byte	0x4
	.set L$set$1447,LCFI182-LCFI181
	.long L$set$1447
	.byte	0xd
	.byte	0x4
	.align 2
LEFDE119:
.globl __ZNSt4pairISt17_Rb_tree_iteratorIPN2sf11ResourcePtrINS1_5ImageEEEES6_EC1ERKS6_S9_.eh
	.private_extern __ZNSt4pairISt17_Rb_tree_iteratorIPN2sf11ResourcePtrINS1_5ImageEEEES6_EC1ERKS6_S9_.eh
	.weak_definition __ZNSt4pairISt17_Rb_tree_iteratorIPN2sf11ResourcePtrINS1_5ImageEEEES6_EC1ERKS6_S9_.eh
__ZNSt4pairISt17_Rb_tree_iteratorIPN2sf11ResourcePtrINS1_5ImageEEEES6_EC1ERKS6_S9_.eh:
LSFDE121:
	.set L$set$1448,LEFDE121-LASFDE121
	.long L$set$1448
LASFDE121:
	.long	LASFDE121-EH_frame1
	.long	LFB2669-.
	.set L$set$1449,LFE2669-LFB2669
	.long L$set$1449
	.byte	0x4
	.long	0x0
	.byte	0x4
	.set L$set$1450,LCFI184-LFB2669
	.long L$set$1450
	.byte	0xe
	.byte	0x8
	.byte	0x84
	.byte	0x2
	.byte	0x4
	.set L$set$1451,LCFI185-LCFI184
	.long L$set$1451
	.byte	0xd
	.byte	0x4
	.align 2
LEFDE121:
.globl __ZNKSt17_Rb_tree_iteratorIPN2sf11ResourcePtrINS0_5ImageEEEEeqERKS5_.eh
	.private_extern __ZNKSt17_Rb_tree_iteratorIPN2sf11ResourcePtrINS0_5ImageEEEEeqERKS5_.eh
	.weak_definition __ZNKSt17_Rb_tree_iteratorIPN2sf11ResourcePtrINS0_5ImageEEEEeqERKS5_.eh
__ZNKSt17_Rb_tree_iteratorIPN2sf11ResourcePtrINS0_5ImageEEEEeqERKS5_.eh:
LSFDE123:
	.set L$set$1452,LEFDE123-LASFDE123
	.long L$set$1452
LASFDE123:
	.long	LASFDE123-EH_frame1
	.long	LFB2671-.
	.set L$set$1453,LFE2671-LFB2671
	.long L$set$1453
	.byte	0x4
	.long	0x0
	.byte	0x4
	.set L$set$1454,LCFI187-LFB2671
	.long L$set$1454
	.byte	0xe
	.byte	0x8
	.byte	0x84
	.byte	0x2
	.byte	0x4
	.set L$set$1455,LCFI188-LCFI187
	.long L$set$1455
	.byte	0xd
	.byte	0x4
	.align 2
LEFDE123:
.globl __ZNKSt17_Rb_tree_iteratorIPN2sf11ResourcePtrINS0_5ImageEEEEneERKS5_.eh
	.private_extern __ZNKSt17_Rb_tree_iteratorIPN2sf11ResourcePtrINS0_5ImageEEEEneERKS5_.eh
	.weak_definition __ZNKSt17_Rb_tree_iteratorIPN2sf11ResourcePtrINS0_5ImageEEEEneERKS5_.eh
__ZNKSt17_Rb_tree_iteratorIPN2sf11ResourcePtrINS0_5ImageEEEEneERKS5_.eh:
LSFDE125:
	.set L$set$1456,LEFDE125-LASFDE125
	.long L$set$1456
LASFDE125:
	.long	LASFDE125-EH_frame1
	.long	LFB2674-.
	.set L$set$1457,LFE2674-LFB2674
	.long L$set$1457
	.byte	0x4
	.long	0x0
	.byte	0x4
	.set L$set$1458,LCFI190-LFB2674
	.long L$set$1458
	.byte	0xe
	.byte	0x8
	.byte	0x84
	.byte	0x2
	.byte	0x4
	.set L$set$1459,LCFI191-LCFI190
	.long L$set$1459
	.byte	0xd
	.byte	0x4
	.align 2
LEFDE125:
.globl __ZNKSt8_Rb_treeIPN2sf11ResourcePtrINS0_4FontEEES4_St9_IdentityIS4_ESt4lessIS4_ESaIS4_EE21_M_get_Node_allocatorEv.eh
	.private_extern __ZNKSt8_Rb_treeIPN2sf11ResourcePtrINS0_4FontEEES4_St9_IdentityIS4_ESt4lessIS4_ESaIS4_EE21_M_get_Node_allocatorEv.eh
	.weak_definition __ZNKSt8_Rb_treeIPN2sf11ResourcePtrINS0_4FontEEES4_St9_IdentityIS4_ESt4lessIS4_ESaIS4_EE21_M_get_Node_allocatorEv.eh
__ZNKSt8_Rb_treeIPN2sf11ResourcePtrINS0_4FontEEES4_St9_IdentityIS4_ESt4lessIS4_ESaIS4_EE21_M_get_Node_allocatorEv.eh:
LSFDE127:
	.set L$set$1460,LEFDE127-LASFDE127
	.long L$set$1460
LASFDE127:
	.long	LASFDE127-EH_frame1
	.long	LFB2677-.
	.set L$set$1461,LFE2677-LFB2677
	.long L$set$1461
	.byte	0x4
	.long	0x0
	.byte	0x4
	.set L$set$1462,LCFI193-LFB2677
	.long L$set$1462
	.byte	0xe
	.byte	0x8
	.byte	0x84
	.byte	0x2
	.byte	0x4
	.set L$set$1463,LCFI194-LCFI193
	.long L$set$1463
	.byte	0xd
	.byte	0x4
	.align 2
LEFDE127:
.globl __ZN9__gnu_cxx13new_allocatorIPN2sf11ResourcePtrINS1_4FontEEEED2Ev.eh
	.private_extern __ZN9__gnu_cxx13new_allocatorIPN2sf11ResourcePtrINS1_4FontEEEED2Ev.eh
	.weak_definition __ZN9__gnu_cxx13new_allocatorIPN2sf11ResourcePtrINS1_4FontEEEED2Ev.eh
__ZN9__gnu_cxx13new_allocatorIPN2sf11ResourcePtrINS1_4FontEEEED2Ev.eh:
LSFDE129:
	.set L$set$1464,LEFDE129-LASFDE129
	.long L$set$1464
LASFDE129:
	.long	LASFDE129-EH_frame1
	.long	LFB2685-.
	.set L$set$1465,LFE2685-LFB2685
	.long L$set$1465
	.byte	0x4
	.long	0x0
	.byte	0x4
	.set L$set$1466,LCFI196-LFB2685
	.long L$set$1466
	.byte	0xe
	.byte	0x8
	.byte	0x84
	.byte	0x2
	.byte	0x4
	.set L$set$1467,LCFI197-LCFI196
	.long L$set$1467
	.byte	0xd
	.byte	0x4
	.align 2
LEFDE129:
.globl __ZNSaIPN2sf11ResourcePtrINS_4FontEEEED1Ev.eh
	.private_extern __ZNSaIPN2sf11ResourcePtrINS_4FontEEEED1Ev.eh
	.weak_definition __ZNSaIPN2sf11ResourcePtrINS_4FontEEEED1Ev.eh
__ZNSaIPN2sf11ResourcePtrINS_4FontEEEED1Ev.eh:
LSFDE131:
	.set L$set$1468,LEFDE131-LASFDE131
	.long L$set$1468
LASFDE131:
	.long	LASFDE131-EH_frame1
	.long	LFB2647-.
	.set L$set$1469,LFE2647-LFB2647
	.long L$set$1469
	.byte	0x4
	.long	0x0
	.byte	0x4
	.set L$set$1470,LCFI199-LFB2647
	.long L$set$1470
	.byte	0xe
	.byte	0x8
	.byte	0x84
	.byte	0x2
	.byte	0x4
	.set L$set$1471,LCFI200-LCFI199
	.long L$set$1471
	.byte	0xd
	.byte	0x4
	.align 2
LEFDE131:
.globl __ZN9__gnu_cxx13new_allocatorISt4pairIKjN2sf5GlyphEEEC2Ev.eh
	.private_extern __ZN9__gnu_cxx13new_allocatorISt4pairIKjN2sf5GlyphEEEC2Ev.eh
	.weak_definition __ZN9__gnu_cxx13new_allocatorISt4pairIKjN2sf5GlyphEEEC2Ev.eh
__ZN9__gnu_cxx13new_allocatorISt4pairIKjN2sf5GlyphEEEC2Ev.eh:
LSFDE133:
	.set L$set$1472,LEFDE133-LASFDE133
	.long L$set$1472
LASFDE133:
	.long	LASFDE133-EH_frame1
	.long	LFB2689-.
	.set L$set$1473,LFE2689-LFB2689
	.long L$set$1473
	.byte	0x4
	.long	0x0
	.byte	0x4
	.set L$set$1474,LCFI202-LFB2689
	.long L$set$1474
	.byte	0xe
	.byte	0x8
	.byte	0x84
	.byte	0x2
	.byte	0x4
	.set L$set$1475,LCFI203-LCFI202
	.long L$set$1475
	.byte	0xd
	.byte	0x4
	.align 2
LEFDE133:
.globl __ZNSaISt4pairIKjN2sf5GlyphEEEC1ISt13_Rb_tree_nodeIS3_EEERKSaIT_E.eh
	.private_extern __ZNSaISt4pairIKjN2sf5GlyphEEEC1ISt13_Rb_tree_nodeIS3_EEERKSaIT_E.eh
	.weak_definition __ZNSaISt4pairIKjN2sf5GlyphEEEC1ISt13_Rb_tree_nodeIS3_EEERKSaIT_E.eh
__ZNSaISt4pairIKjN2sf5GlyphEEEC1ISt13_Rb_tree_nodeIS3_EEERKSaIT_E.eh:
LSFDE135:
	.set L$set$1476,LEFDE135-LASFDE135
	.long L$set$1476
LASFDE135:
	.long	LASFDE135-EH_frame1
	.long	LFB2653-.
	.set L$set$1477,LFE2653-LFB2653
	.long L$set$1477
	.byte	0x4
	.long	0x0
	.byte	0x4
	.set L$set$1478,LCFI205-LFB2653
	.long L$set$1478
	.byte	0xe
	.byte	0x8
	.byte	0x84
	.byte	0x2
	.byte	0x4
	.set L$set$1479,LCFI206-LCFI205
	.long L$set$1479
	.byte	0xd
	.byte	0x4
	.align 2
LEFDE135:
.globl __ZNKSt8_Rb_treeIjSt4pairIKjN2sf5GlyphEESt10_Select1stIS4_ESt4lessIjESaIS4_EE13get_allocatorEv.eh
	.private_extern __ZNKSt8_Rb_treeIjSt4pairIKjN2sf5GlyphEESt10_Select1stIS4_ESt4lessIjESaIS4_EE13get_allocatorEv.eh
	.weak_definition __ZNKSt8_Rb_treeIjSt4pairIKjN2sf5GlyphEESt10_Select1stIS4_ESt4lessIjESaIS4_EE13get_allocatorEv.eh
__ZNKSt8_Rb_treeIjSt4pairIKjN2sf5GlyphEESt10_Select1stIS4_ESt4lessIjESaIS4_EE13get_allocatorEv.eh:
LSFDE137:
	.set L$set$1480,LEFDE137-LASFDE137
	.long L$set$1480
LASFDE137:
	.long	LASFDE137-EH_frame1
	.long	LFB2614-.
	.set L$set$1481,LFE2614-LFB2614
	.long L$set$1481
	.byte	0x4
	.long	0x0
	.byte	0x4
	.set L$set$1482,LCFI208-LFB2614
	.long L$set$1482
	.byte	0xe
	.byte	0x8
	.byte	0x84
	.byte	0x2
	.byte	0x4
	.set L$set$1483,LCFI209-LCFI208
	.long L$set$1483
	.byte	0xd
	.byte	0x4
	.byte	0x4
	.set L$set$1484,LCFI212-LCFI209
	.long L$set$1484
	.byte	0x86
	.byte	0x4
	.byte	0x87
	.byte	0x3
	.align 2
LEFDE137:
.globl __ZNSt4pairISt17_Rb_tree_iteratorIPN2sf11ResourcePtrINS1_4FontEEEES6_EC1ERKS6_S9_.eh
	.private_extern __ZNSt4pairISt17_Rb_tree_iteratorIPN2sf11ResourcePtrINS1_4FontEEEES6_EC1ERKS6_S9_.eh
	.weak_definition __ZNSt4pairISt17_Rb_tree_iteratorIPN2sf11ResourcePtrINS1_4FontEEEES6_EC1ERKS6_S9_.eh
__ZNSt4pairISt17_Rb_tree_iteratorIPN2sf11ResourcePtrINS1_4FontEEEES6_EC1ERKS6_S9_.eh:
LSFDE139:
	.set L$set$1485,LEFDE139-LASFDE139
	.long L$set$1485
LASFDE139:
	.long	LASFDE139-EH_frame1
	.long	LFB2698-.
	.set L$set$1486,LFE2698-LFB2698
	.long L$set$1486
	.byte	0x4
	.long	0x0
	.byte	0x4
	.set L$set$1487,LCFI213-LFB2698
	.long L$set$1487
	.byte	0xe
	.byte	0x8
	.byte	0x84
	.byte	0x2
	.byte	0x4
	.set L$set$1488,LCFI214-LCFI213
	.long L$set$1488
	.byte	0xd
	.byte	0x4
	.align 2
LEFDE139:
.globl __ZNKSt17_Rb_tree_iteratorIPN2sf11ResourcePtrINS0_4FontEEEEeqERKS5_.eh
	.private_extern __ZNKSt17_Rb_tree_iteratorIPN2sf11ResourcePtrINS0_4FontEEEEeqERKS5_.eh
	.weak_definition __ZNKSt17_Rb_tree_iteratorIPN2sf11ResourcePtrINS0_4FontEEEEeqERKS5_.eh
__ZNKSt17_Rb_tree_iteratorIPN2sf11ResourcePtrINS0_4FontEEEEeqERKS5_.eh:
LSFDE141:
	.set L$set$1489,LEFDE141-LASFDE141
	.long L$set$1489
LASFDE141:
	.long	LASFDE141-EH_frame1
	.long	LFB2700-.
	.set L$set$1490,LFE2700-LFB2700
	.long L$set$1490
	.byte	0x4
	.long	0x0
	.byte	0x4
	.set L$set$1491,LCFI216-LFB2700
	.long L$set$1491
	.byte	0xe
	.byte	0x8
	.byte	0x84
	.byte	0x2
	.byte	0x4
	.set L$set$1492,LCFI217-LCFI216
	.long L$set$1492
	.byte	0xd
	.byte	0x4
	.align 2
LEFDE141:
.globl __ZNKSt17_Rb_tree_iteratorIPN2sf11ResourcePtrINS0_4FontEEEEneERKS5_.eh
	.private_extern __ZNKSt17_Rb_tree_iteratorIPN2sf11ResourcePtrINS0_4FontEEEEneERKS5_.eh
	.weak_definition __ZNKSt17_Rb_tree_iteratorIPN2sf11ResourcePtrINS0_4FontEEEEneERKS5_.eh
__ZNKSt17_Rb_tree_iteratorIPN2sf11ResourcePtrINS0_4FontEEEEneERKS5_.eh:
LSFDE143:
	.set L$set$1493,LEFDE143-LASFDE143
	.long L$set$1493
LASFDE143:
	.long	LASFDE143-EH_frame1
	.long	LFB2703-.
	.set L$set$1494,LFE2703-LFB2703
	.long L$set$1494
	.byte	0x4
	.long	0x0
	.byte	0x4
	.set L$set$1495,LCFI219-LFB2703
	.long L$set$1495
	.byte	0xe
	.byte	0x8
	.byte	0x84
	.byte	0x2
	.byte	0x4
	.set L$set$1496,LCFI220-LCFI219
	.long L$set$1496
	.byte	0xd
	.byte	0x4
	.align 2
LEFDE143:
.globl __ZNSt8_Rb_treeIPN2sf11ResourcePtrINS0_5ImageEEES4_St9_IdentityIS4_ESt4lessIS4_ESaIS4_EE8_M_beginEv.eh
	.private_extern __ZNSt8_Rb_treeIPN2sf11ResourcePtrINS0_5ImageEEES4_St9_IdentityIS4_ESt4lessIS4_ESaIS4_EE8_M_beginEv.eh
	.weak_definition __ZNSt8_Rb_treeIPN2sf11ResourcePtrINS0_5ImageEEES4_St9_IdentityIS4_ESt4lessIS4_ESaIS4_EE8_M_beginEv.eh
__ZNSt8_Rb_treeIPN2sf11ResourcePtrINS0_5ImageEEES4_St9_IdentityIS4_ESt4lessIS4_ESaIS4_EE8_M_beginEv.eh:
LSFDE145:
	.set L$set$1497,LEFDE145-LASFDE145
	.long L$set$1497
LASFDE145:
	.long	LASFDE145-EH_frame1
	.long	LFB2711-.
	.set L$set$1498,LFE2711-LFB2711
	.long L$set$1498
	.byte	0x4
	.long	0x0
	.byte	0x4
	.set L$set$1499,LCFI222-LFB2711
	.long L$set$1499
	.byte	0xe
	.byte	0x8
	.byte	0x84
	.byte	0x2
	.byte	0x4
	.set L$set$1500,LCFI223-LCFI222
	.long L$set$1500
	.byte	0xd
	.byte	0x4
	.align 2
LEFDE145:
.globl __ZNSt8_Rb_treeIPN2sf11ResourcePtrINS0_5ImageEEES4_St9_IdentityIS4_ESt4lessIS4_ESaIS4_EE6_M_endEv.eh
	.private_extern __ZNSt8_Rb_treeIPN2sf11ResourcePtrINS0_5ImageEEES4_St9_IdentityIS4_ESt4lessIS4_ESaIS4_EE6_M_endEv.eh
	.weak_definition __ZNSt8_Rb_treeIPN2sf11ResourcePtrINS0_5ImageEEES4_St9_IdentityIS4_ESt4lessIS4_ESaIS4_EE6_M_endEv.eh
__ZNSt8_Rb_treeIPN2sf11ResourcePtrINS0_5ImageEEES4_St9_IdentityIS4_ESt4lessIS4_ESaIS4_EE6_M_endEv.eh:
LSFDE147:
	.set L$set$1501,LEFDE147-LASFDE147
	.long L$set$1501
LASFDE147:
	.long	LASFDE147-EH_frame1
	.long	LFB2712-.
	.set L$set$1502,LFE2712-LFB2712
	.long L$set$1502
	.byte	0x4
	.long	0x0
	.byte	0x4
	.set L$set$1503,LCFI225-LFB2712
	.long L$set$1503
	.byte	0xe
	.byte	0x8
	.byte	0x84
	.byte	0x2
	.byte	0x4
	.set L$set$1504,LCFI226-LCFI225
	.long L$set$1504
	.byte	0xd
	.byte	0x4
	.align 2
LEFDE147:
.globl __ZNSt14unary_functionIPN2sf11ResourcePtrINS0_5ImageEEES4_EC2Ev.eh
	.private_extern __ZNSt14unary_functionIPN2sf11ResourcePtrINS0_5ImageEEES4_EC2Ev.eh
	.weak_definition __ZNSt14unary_functionIPN2sf11ResourcePtrINS0_5ImageEEES4_EC2Ev.eh
__ZNSt14unary_functionIPN2sf11ResourcePtrINS0_5ImageEEES4_EC2Ev.eh:
LSFDE149:
	.set L$set$1505,LEFDE149-LASFDE149
	.long L$set$1505
LASFDE149:
	.long	LASFDE149-EH_frame1
	.long	LFB2716-.
	.set L$set$1506,LFE2716-LFB2716
	.long L$set$1506
	.byte	0x4
	.long	0x0
	.byte	0x4
	.set L$set$1507,LCFI228-LFB2716
	.long L$set$1507
	.byte	0xe
	.byte	0x8
	.byte	0x84
	.byte	0x2
	.byte	0x4
	.set L$set$1508,LCFI229-LCFI228
	.long L$set$1508
	.byte	0xd
	.byte	0x4
	.align 2
LEFDE149:
.globl __ZNSt9_IdentityIPN2sf11ResourcePtrINS0_5ImageEEEEC1Ev.eh
	.private_extern __ZNSt9_IdentityIPN2sf11ResourcePtrINS0_5ImageEEEEC1Ev.eh
	.weak_definition __ZNSt9_IdentityIPN2sf11ResourcePtrINS0_5ImageEEEEC1Ev.eh
__ZNSt9_IdentityIPN2sf11ResourcePtrINS0_5ImageEEEEC1Ev.eh:
LSFDE151:
	.set L$set$1509,LEFDE151-LASFDE151
	.long L$set$1509
LASFDE151:
	.long	LASFDE151-EH_frame1
	.long	LFB2719-.
	.set L$set$1510,LFE2719-LFB2719
	.long L$set$1510
	.byte	0x4
	.long	0x0
	.byte	0x4
	.set L$set$1511,LCFI231-LFB2719
	.long L$set$1511
	.byte	0xe
	.byte	0x8
	.byte	0x84
	.byte	0x2
	.byte	0x4
	.set L$set$1512,LCFI232-LCFI231
	.long L$set$1512
	.byte	0xd
	.byte	0x4
	.align 2
LEFDE151:
.globl __ZNKSt4lessIPN2sf11ResourcePtrINS0_5ImageEEEEclERKS4_S7_.eh
	.private_extern __ZNKSt4lessIPN2sf11ResourcePtrINS0_5ImageEEEEclERKS4_S7_.eh
	.weak_definition __ZNKSt4lessIPN2sf11ResourcePtrINS0_5ImageEEEEclERKS4_S7_.eh
__ZNKSt4lessIPN2sf11ResourcePtrINS0_5ImageEEEEclERKS4_S7_.eh:
LSFDE153:
	.set L$set$1513,LEFDE153-LASFDE153
	.long L$set$1513
LASFDE153:
	.long	LASFDE153-EH_frame1
	.long	LFB2720-.
	.set L$set$1514,LFE2720-LFB2720
	.long L$set$1514
	.byte	0x4
	.long	0x0
	.byte	0x4
	.set L$set$1515,LCFI234-LFB2720
	.long L$set$1515
	.byte	0xe
	.byte	0x8
	.byte	0x84
	.byte	0x2
	.byte	0x4
	.set L$set$1516,LCFI235-LCFI234
	.long L$set$1516
	.byte	0xd
	.byte	0x4
	.align 2
LEFDE153:
.globl __ZNSt8_Rb_treeIPN2sf11ResourcePtrINS0_5ImageEEES4_St9_IdentityIS4_ESt4lessIS4_ESaIS4_EE7_S_leftEPSt18_Rb_tree_node_base.eh
	.private_extern __ZNSt8_Rb_treeIPN2sf11ResourcePtrINS0_5ImageEEES4_St9_IdentityIS4_ESt4lessIS4_ESaIS4_EE7_S_leftEPSt18_Rb_tree_node_base.eh
	.weak_definition __ZNSt8_Rb_treeIPN2sf11ResourcePtrINS0_5ImageEEES4_St9_IdentityIS4_ESt4lessIS4_ESaIS4_EE7_S_leftEPSt18_Rb_tree_node_base.eh
__ZNSt8_Rb_treeIPN2sf11ResourcePtrINS0_5ImageEEES4_St9_IdentityIS4_ESt4lessIS4_ESaIS4_EE7_S_leftEPSt18_Rb_tree_node_base.eh:
LSFDE155:
	.set L$set$1517,LEFDE155-LASFDE155
	.long L$set$1517
LASFDE155:
	.long	LASFDE155-EH_frame1
	.long	LFB2721-.
	.set L$set$1518,LFE2721-LFB2721
	.long L$set$1518
	.byte	0x4
	.long	0x0
	.byte	0x4
	.set L$set$1519,LCFI237-LFB2721
	.long L$set$1519
	.byte	0xe
	.byte	0x8
	.byte	0x84
	.byte	0x2
	.byte	0x4
	.set L$set$1520,LCFI238-LCFI237
	.long L$set$1520
	.byte	0xd
	.byte	0x4
	.align 2
LEFDE155:
.globl __ZNSt8_Rb_treeIPN2sf11ResourcePtrINS0_5ImageEEES4_St9_IdentityIS4_ESt4lessIS4_ESaIS4_EE8_S_rightEPSt18_Rb_tree_node_base.eh
	.private_extern __ZNSt8_Rb_treeIPN2sf11ResourcePtrINS0_5ImageEEES4_St9_IdentityIS4_ESt4lessIS4_ESaIS4_EE8_S_rightEPSt18_Rb_tree_node_base.eh
	.weak_definition __ZNSt8_Rb_treeIPN2sf11ResourcePtrINS0_5ImageEEES4_St9_IdentityIS4_ESt4lessIS4_ESaIS4_EE8_S_rightEPSt18_Rb_tree_node_base.eh
__ZNSt8_Rb_treeIPN2sf11ResourcePtrINS0_5ImageEEES4_St9_IdentityIS4_ESt4lessIS4_ESaIS4_EE8_S_rightEPSt18_Rb_tree_node_base.eh:
LSFDE157:
	.set L$set$1521,LEFDE157-LASFDE157
	.long L$set$1521
LASFDE157:
	.long	LASFDE157-EH_frame1
	.long	LFB2722-.
	.set L$set$1522,LFE2722-LFB2722
	.long L$set$1522
	.byte	0x4
	.long	0x0
	.byte	0x4
	.set L$set$1523,LCFI240-LFB2722
	.long L$set$1523
	.byte	0xe
	.byte	0x8
	.byte	0x84
	.byte	0x2
	.byte	0x4
	.set L$set$1524,LCFI241-LCFI240
	.long L$set$1524
	.byte	0xd
	.byte	0x4
	.align 2
LEFDE157:
.globl __ZNSt17_Rb_tree_iteratorIPN2sf11ResourcePtrINS0_5ImageEEEEC1EPSt13_Rb_tree_nodeIS4_E.eh
	.private_extern __ZNSt17_Rb_tree_iteratorIPN2sf11ResourcePtrINS0_5ImageEEEEC1EPSt13_Rb_tree_nodeIS4_E.eh
	.weak_definition __ZNSt17_Rb_tree_iteratorIPN2sf11ResourcePtrINS0_5ImageEEEEC1EPSt13_Rb_tree_nodeIS4_E.eh
__ZNSt17_Rb_tree_iteratorIPN2sf11ResourcePtrINS0_5ImageEEEEC1EPSt13_Rb_tree_nodeIS4_E.eh:
LSFDE159:
	.set L$set$1525,LEFDE159-LASFDE159
	.long L$set$1525
LASFDE159:
	.long	LASFDE159-EH_frame1
	.long	LFB2725-.
	.set L$set$1526,LFE2725-LFB2725
	.long L$set$1526
	.byte	0x4
	.long	0x0
	.byte	0x4
	.set L$set$1527,LCFI243-LFB2725
	.long L$set$1527
	.byte	0xe
	.byte	0x8
	.byte	0x84
	.byte	0x2
	.byte	0x4
	.set L$set$1528,LCFI244-LCFI243
	.long L$set$1528
	.byte	0xd
	.byte	0x4
	.align 2
LEFDE159:
.globl __ZNSt8_Rb_treeIPN2sf11ResourcePtrINS0_5ImageEEES4_St9_IdentityIS4_ESt4lessIS4_ESaIS4_EE5beginEv.eh
	.private_extern __ZNSt8_Rb_treeIPN2sf11ResourcePtrINS0_5ImageEEES4_St9_IdentityIS4_ESt4lessIS4_ESaIS4_EE5beginEv.eh
	.weak_definition __ZNSt8_Rb_treeIPN2sf11ResourcePtrINS0_5ImageEEES4_St9_IdentityIS4_ESt4lessIS4_ESaIS4_EE5beginEv.eh
__ZNSt8_Rb_treeIPN2sf11ResourcePtrINS0_5ImageEEES4_St9_IdentityIS4_ESt4lessIS4_ESaIS4_EE5beginEv.eh:
LSFDE161:
	.set L$set$1529,LEFDE161-LASFDE161
	.long L$set$1529
LASFDE161:
	.long	LASFDE161-EH_frame1
	.long	LFB2672-.
	.set L$set$1530,LFE2672-LFB2672
	.long L$set$1530
	.byte	0x4
	.long	0x0
	.byte	0x4
	.set L$set$1531,LCFI246-LFB2672
	.long L$set$1531
	.byte	0xe
	.byte	0x8
	.byte	0x84
	.byte	0x2
	.byte	0x4
	.set L$set$1532,LCFI247-LCFI246
	.long L$set$1532
	.byte	0xd
	.byte	0x4
	.align 2
LEFDE161:
.globl __ZNSt8_Rb_treeIPN2sf11ResourcePtrINS0_5ImageEEES4_St9_IdentityIS4_ESt4lessIS4_ESaIS4_EE3endEv.eh
	.private_extern __ZNSt8_Rb_treeIPN2sf11ResourcePtrINS0_5ImageEEES4_St9_IdentityIS4_ESt4lessIS4_ESaIS4_EE3endEv.eh
	.weak_definition __ZNSt8_Rb_treeIPN2sf11ResourcePtrINS0_5ImageEEES4_St9_IdentityIS4_ESt4lessIS4_ESaIS4_EE3endEv.eh
__ZNSt8_Rb_treeIPN2sf11ResourcePtrINS0_5ImageEEES4_St9_IdentityIS4_ESt4lessIS4_ESaIS4_EE3endEv.eh:
LSFDE163:
	.set L$set$1533,LEFDE163-LASFDE163
	.long L$set$1533
LASFDE163:
	.long	LASFDE163-EH_frame1
	.long	LFB2670-.
	.set L$set$1534,LFE2670-LFB2670
	.long L$set$1534
	.byte	0x4
	.long	0x0
	.byte	0x4
	.set L$set$1535,LCFI249-LFB2670
	.long L$set$1535
	.byte	0xe
	.byte	0x8
	.byte	0x84
	.byte	0x2
	.byte	0x4
	.set L$set$1536,LCFI250-LCFI249
	.long L$set$1536
	.byte	0xd
	.byte	0x4
	.align 2
LEFDE163:
.globl __ZNSt8_Rb_treeIPN2sf11ResourcePtrINS0_5ImageEEES4_St9_IdentityIS4_ESt4lessIS4_ESaIS4_EE11_M_leftmostEv.eh
	.private_extern __ZNSt8_Rb_treeIPN2sf11ResourcePtrINS0_5ImageEEES4_St9_IdentityIS4_ESt4lessIS4_ESaIS4_EE11_M_leftmostEv.eh
	.weak_definition __ZNSt8_Rb_treeIPN2sf11ResourcePtrINS0_5ImageEEES4_St9_IdentityIS4_ESt4lessIS4_ESaIS4_EE11_M_leftmostEv.eh
__ZNSt8_Rb_treeIPN2sf11ResourcePtrINS0_5ImageEEES4_St9_IdentityIS4_ESt4lessIS4_ESaIS4_EE11_M_leftmostEv.eh:
LSFDE165:
	.set L$set$1537,LEFDE165-LASFDE165
	.long L$set$1537
LASFDE165:
	.long	LASFDE165-EH_frame1
	.long	LFB2727-.
	.set L$set$1538,LFE2727-LFB2727
	.long L$set$1538
	.byte	0x4
	.long	0x0
	.byte	0x4
	.set L$set$1539,LCFI252-LFB2727
	.long L$set$1539
	.byte	0xe
	.byte	0x8
	.byte	0x84
	.byte	0x2
	.byte	0x4
	.set L$set$1540,LCFI253-LCFI252
	.long L$set$1540
	.byte	0xd
	.byte	0x4
	.align 2
LEFDE165:
.globl __ZNSt8_Rb_treeIPN2sf11ResourcePtrINS0_5ImageEEES4_St9_IdentityIS4_ESt4lessIS4_ESaIS4_EE7_M_rootEv.eh
	.private_extern __ZNSt8_Rb_treeIPN2sf11ResourcePtrINS0_5ImageEEES4_St9_IdentityIS4_ESt4lessIS4_ESaIS4_EE7_M_rootEv.eh
	.weak_definition __ZNSt8_Rb_treeIPN2sf11ResourcePtrINS0_5ImageEEES4_St9_IdentityIS4_ESt4lessIS4_ESaIS4_EE7_M_rootEv.eh
__ZNSt8_Rb_treeIPN2sf11ResourcePtrINS0_5ImageEEES4_St9_IdentityIS4_ESt4lessIS4_ESaIS4_EE7_M_rootEv.eh:
LSFDE167:
	.set L$set$1541,LEFDE167-LASFDE167
	.long L$set$1541
LASFDE167:
	.long	LASFDE167-EH_frame1
	.long	LFB2728-.
	.set L$set$1542,LFE2728-LFB2728
	.long L$set$1542
	.byte	0x4
	.long	0x0
	.byte	0x4
	.set L$set$1543,LCFI255-LFB2728
	.long L$set$1543
	.byte	0xe
	.byte	0x8
	.byte	0x84
	.byte	0x2
	.byte	0x4
	.set L$set$1544,LCFI256-LCFI255
	.long L$set$1544
	.byte	0xd
	.byte	0x4
	.align 2
LEFDE167:
.globl __ZNSt8_Rb_treeIPN2sf11ResourcePtrINS0_5ImageEEES4_St9_IdentityIS4_ESt4lessIS4_ESaIS4_EE12_M_rightmostEv.eh
	.private_extern __ZNSt8_Rb_treeIPN2sf11ResourcePtrINS0_5ImageEEES4_St9_IdentityIS4_ESt4lessIS4_ESaIS4_EE12_M_rightmostEv.eh
	.weak_definition __ZNSt8_Rb_treeIPN2sf11ResourcePtrINS0_5ImageEEES4_St9_IdentityIS4_ESt4lessIS4_ESaIS4_EE12_M_rightmostEv.eh
__ZNSt8_Rb_treeIPN2sf11ResourcePtrINS0_5ImageEEES4_St9_IdentityIS4_ESt4lessIS4_ESaIS4_EE12_M_rightmostEv.eh:
LSFDE169:
	.set L$set$1545,LEFDE169-LASFDE169
	.long L$set$1545
LASFDE169:
	.long	LASFDE169-EH_frame1
	.long	LFB2729-.
	.set L$set$1546,LFE2729-LFB2729
	.long L$set$1546
	.byte	0x4
	.long	0x0
	.byte	0x4
	.set L$set$1547,LCFI258-LFB2729
	.long L$set$1547
	.byte	0xe
	.byte	0x8
	.byte	0x84
	.byte	0x2
	.byte	0x4
	.set L$set$1548,LCFI259-LCFI258
	.long L$set$1548
	.byte	0xd
	.byte	0x4
	.align 2
LEFDE169:
.globl __ZN9__gnu_cxx13new_allocatorIPN2sf11ResourcePtrINS1_4FontEEEEC2Ev.eh
	.private_extern __ZN9__gnu_cxx13new_allocatorIPN2sf11ResourcePtrINS1_4FontEEEEC2Ev.eh
	.weak_definition __ZN9__gnu_cxx13new_allocatorIPN2sf11ResourcePtrINS1_4FontEEEEC2Ev.eh
__ZN9__gnu_cxx13new_allocatorIPN2sf11ResourcePtrINS1_4FontEEEEC2Ev.eh:
LSFDE171:
	.set L$set$1549,LEFDE171-LASFDE171
	.long L$set$1549
LASFDE171:
	.long	LASFDE171-EH_frame1
	.long	LFB2732-.
	.set L$set$1550,LFE2732-LFB2732
	.long L$set$1550
	.byte	0x4
	.long	0x0
	.byte	0x4
	.set L$set$1551,LCFI261-LFB2732
	.long L$set$1551
	.byte	0xe
	.byte	0x8
	.byte	0x84
	.byte	0x2
	.byte	0x4
	.set L$set$1552,LCFI262-LCFI261
	.long L$set$1552
	.byte	0xd
	.byte	0x4
	.align 2
LEFDE171:
.globl __ZNSaIPN2sf11ResourcePtrINS_4FontEEEEC1ISt13_Rb_tree_nodeIS3_EEERKSaIT_E.eh
	.private_extern __ZNSaIPN2sf11ResourcePtrINS_4FontEEEEC1ISt13_Rb_tree_nodeIS3_EEERKSaIT_E.eh
	.weak_definition __ZNSaIPN2sf11ResourcePtrINS_4FontEEEEC1ISt13_Rb_tree_nodeIS3_EEERKSaIT_E.eh
__ZNSaIPN2sf11ResourcePtrINS_4FontEEEEC1ISt13_Rb_tree_nodeIS3_EEERKSaIT_E.eh:
LSFDE173:
	.set L$set$1553,LEFDE173-LASFDE173
	.long L$set$1553
LASFDE173:
	.long	LASFDE173-EH_frame1
	.long	LFB2680-.
	.set L$set$1554,LFE2680-LFB2680
	.long L$set$1554
	.byte	0x4
	.long	0x0
	.byte	0x4
	.set L$set$1555,LCFI264-LFB2680
	.long L$set$1555
	.byte	0xe
	.byte	0x8
	.byte	0x84
	.byte	0x2
	.byte	0x4
	.set L$set$1556,LCFI265-LCFI264
	.long L$set$1556
	.byte	0xd
	.byte	0x4
	.align 2
LEFDE173:
.globl __ZNKSt8_Rb_treeIPN2sf11ResourcePtrINS0_4FontEEES4_St9_IdentityIS4_ESt4lessIS4_ESaIS4_EE13get_allocatorEv.eh
	.private_extern __ZNKSt8_Rb_treeIPN2sf11ResourcePtrINS0_4FontEEES4_St9_IdentityIS4_ESt4lessIS4_ESaIS4_EE13get_allocatorEv.eh
	.weak_definition __ZNKSt8_Rb_treeIPN2sf11ResourcePtrINS0_4FontEEES4_St9_IdentityIS4_ESt4lessIS4_ESaIS4_EE13get_allocatorEv.eh
__ZNKSt8_Rb_treeIPN2sf11ResourcePtrINS0_4FontEEES4_St9_IdentityIS4_ESt4lessIS4_ESaIS4_EE13get_allocatorEv.eh:
LSFDE175:
	.set L$set$1557,LEFDE175-LASFDE175
	.long L$set$1557
LASFDE175:
	.long	LASFDE175-EH_frame1
	.long	LFB2644-.
	.set L$set$1558,LFE2644-LFB2644
	.long L$set$1558
	.byte	0x4
	.long	0x0
	.byte	0x4
	.set L$set$1559,LCFI267-LFB2644
	.long L$set$1559
	.byte	0xe
	.byte	0x8
	.byte	0x84
	.byte	0x2
	.byte	0x4
	.set L$set$1560,LCFI268-LCFI267
	.long L$set$1560
	.byte	0xd
	.byte	0x4
	.byte	0x4
	.set L$set$1561,LCFI271-LCFI268
	.long L$set$1561
	.byte	0x86
	.byte	0x4
	.byte	0x87
	.byte	0x3
	.align 2
LEFDE175:
.globl __ZNSt8_Rb_treeIPN2sf11ResourcePtrINS0_4FontEEES4_St9_IdentityIS4_ESt4lessIS4_ESaIS4_EE6_M_endEv.eh
	.private_extern __ZNSt8_Rb_treeIPN2sf11ResourcePtrINS0_4FontEEES4_St9_IdentityIS4_ESt4lessIS4_ESaIS4_EE6_M_endEv.eh
	.weak_definition __ZNSt8_Rb_treeIPN2sf11ResourcePtrINS0_4FontEEES4_St9_IdentityIS4_ESt4lessIS4_ESaIS4_EE6_M_endEv.eh
__ZNSt8_Rb_treeIPN2sf11ResourcePtrINS0_4FontEEES4_St9_IdentityIS4_ESt4lessIS4_ESaIS4_EE6_M_endEv.eh:
LSFDE177:
	.set L$set$1562,LEFDE177-LASFDE177
	.long L$set$1562
LASFDE177:
	.long	LASFDE177-EH_frame1
	.long	LFB2737-.
	.set L$set$1563,LFE2737-LFB2737
	.long L$set$1563
	.byte	0x4
	.long	0x0
	.byte	0x4
	.set L$set$1564,LCFI272-LFB2737
	.long L$set$1564
	.byte	0xe
	.byte	0x8
	.byte	0x84
	.byte	0x2
	.byte	0x4
	.set L$set$1565,LCFI273-LCFI272
	.long L$set$1565
	.byte	0xd
	.byte	0x4
	.align 2
LEFDE177:
.globl __ZNSt14unary_functionIPN2sf11ResourcePtrINS0_4FontEEES4_EC2Ev.eh
	.private_extern __ZNSt14unary_functionIPN2sf11ResourcePtrINS0_4FontEEES4_EC2Ev.eh
	.weak_definition __ZNSt14unary_functionIPN2sf11ResourcePtrINS0_4FontEEES4_EC2Ev.eh
__ZNSt14unary_functionIPN2sf11ResourcePtrINS0_4FontEEES4_EC2Ev.eh:
LSFDE179:
	.set L$set$1566,LEFDE179-LASFDE179
	.long L$set$1566
LASFDE179:
	.long	LASFDE179-EH_frame1
	.long	LFB2741-.
	.set L$set$1567,LFE2741-LFB2741
	.long L$set$1567
	.byte	0x4
	.long	0x0
	.byte	0x4
	.set L$set$1568,LCFI275-LFB2741
	.long L$set$1568
	.byte	0xe
	.byte	0x8
	.byte	0x84
	.byte	0x2
	.byte	0x4
	.set L$set$1569,LCFI276-LCFI275
	.long L$set$1569
	.byte	0xd
	.byte	0x4
	.align 2
LEFDE179:
.globl __ZNSt9_IdentityIPN2sf11ResourcePtrINS0_4FontEEEEC1Ev.eh
	.private_extern __ZNSt9_IdentityIPN2sf11ResourcePtrINS0_4FontEEEEC1Ev.eh
	.weak_definition __ZNSt9_IdentityIPN2sf11ResourcePtrINS0_4FontEEEEC1Ev.eh
__ZNSt9_IdentityIPN2sf11ResourcePtrINS0_4FontEEEEC1Ev.eh:
LSFDE181:
	.set L$set$1570,LEFDE181-LASFDE181
	.long L$set$1570
LASFDE181:
	.long	LASFDE181-EH_frame1
	.long	LFB2744-.
	.set L$set$1571,LFE2744-LFB2744
	.long L$set$1571
	.byte	0x4
	.long	0x0
	.byte	0x4
	.set L$set$1572,LCFI278-LFB2744
	.long L$set$1572
	.byte	0xe
	.byte	0x8
	.byte	0x84
	.byte	0x2
	.byte	0x4
	.set L$set$1573,LCFI279-LCFI278
	.long L$set$1573
	.byte	0xd
	.byte	0x4
	.align 2
LEFDE181:
.globl __ZNKSt4lessIPN2sf11ResourcePtrINS0_4FontEEEEclERKS4_S7_.eh
	.private_extern __ZNKSt4lessIPN2sf11ResourcePtrINS0_4FontEEEEclERKS4_S7_.eh
	.weak_definition __ZNKSt4lessIPN2sf11ResourcePtrINS0_4FontEEEEclERKS4_S7_.eh
__ZNKSt4lessIPN2sf11ResourcePtrINS0_4FontEEEEclERKS4_S7_.eh:
LSFDE183:
	.set L$set$1574,LEFDE183-LASFDE183
	.long L$set$1574
LASFDE183:
	.long	LASFDE183-EH_frame1
	.long	LFB2745-.
	.set L$set$1575,LFE2745-LFB2745
	.long L$set$1575
	.byte	0x4
	.long	0x0
	.byte	0x4
	.set L$set$1576,LCFI281-LFB2745
	.long L$set$1576
	.byte	0xe
	.byte	0x8
	.byte	0x84
	.byte	0x2
	.byte	0x4
	.set L$set$1577,LCFI282-LCFI281
	.long L$set$1577
	.byte	0xd
	.byte	0x4
	.align 2
LEFDE183:
.globl __ZNSt17_Rb_tree_iteratorIPN2sf11ResourcePtrINS0_4FontEEEEC1EPSt13_Rb_tree_nodeIS4_E.eh
	.private_extern __ZNSt17_Rb_tree_iteratorIPN2sf11ResourcePtrINS0_4FontEEEEC1EPSt13_Rb_tree_nodeIS4_E.eh
	.weak_definition __ZNSt17_Rb_tree_iteratorIPN2sf11ResourcePtrINS0_4FontEEEEC1EPSt13_Rb_tree_nodeIS4_E.eh
__ZNSt17_Rb_tree_iteratorIPN2sf11ResourcePtrINS0_4FontEEEEC1EPSt13_Rb_tree_nodeIS4_E.eh:
LSFDE185:
	.set L$set$1578,LEFDE185-LASFDE185
	.long L$set$1578
LASFDE185:
	.long	LASFDE185-EH_frame1
	.long	LFB2748-.
	.set L$set$1579,LFE2748-LFB2748
	.long L$set$1579
	.byte	0x4
	.long	0x0
	.byte	0x4
	.set L$set$1580,LCFI284-LFB2748
	.long L$set$1580
	.byte	0xe
	.byte	0x8
	.byte	0x84
	.byte	0x2
	.byte	0x4
	.set L$set$1581,LCFI285-LCFI284
	.long L$set$1581
	.byte	0xd
	.byte	0x4
	.align 2
LEFDE185:
.globl __ZNSt8_Rb_treeIPN2sf11ResourcePtrINS0_4FontEEES4_St9_IdentityIS4_ESt4lessIS4_ESaIS4_EE5beginEv.eh
	.private_extern __ZNSt8_Rb_treeIPN2sf11ResourcePtrINS0_4FontEEES4_St9_IdentityIS4_ESt4lessIS4_ESaIS4_EE5beginEv.eh
	.weak_definition __ZNSt8_Rb_treeIPN2sf11ResourcePtrINS0_4FontEEES4_St9_IdentityIS4_ESt4lessIS4_ESaIS4_EE5beginEv.eh
__ZNSt8_Rb_treeIPN2sf11ResourcePtrINS0_4FontEEES4_St9_IdentityIS4_ESt4lessIS4_ESaIS4_EE5beginEv.eh:
LSFDE187:
	.set L$set$1582,LEFDE187-LASFDE187
	.long L$set$1582
LASFDE187:
	.long	LASFDE187-EH_frame1
	.long	LFB2701-.
	.set L$set$1583,LFE2701-LFB2701
	.long L$set$1583
	.byte	0x4
	.long	0x0
	.byte	0x4
	.set L$set$1584,LCFI287-LFB2701
	.long L$set$1584
	.byte	0xe
	.byte	0x8
	.byte	0x84
	.byte	0x2
	.byte	0x4
	.set L$set$1585,LCFI288-LCFI287
	.long L$set$1585
	.byte	0xd
	.byte	0x4
	.align 2
LEFDE187:
.globl __ZNSt8_Rb_treeIPN2sf11ResourcePtrINS0_4FontEEES4_St9_IdentityIS4_ESt4lessIS4_ESaIS4_EE3endEv.eh
	.private_extern __ZNSt8_Rb_treeIPN2sf11ResourcePtrINS0_4FontEEES4_St9_IdentityIS4_ESt4lessIS4_ESaIS4_EE3endEv.eh
	.weak_definition __ZNSt8_Rb_treeIPN2sf11ResourcePtrINS0_4FontEEES4_St9_IdentityIS4_ESt4lessIS4_ESaIS4_EE3endEv.eh
__ZNSt8_Rb_treeIPN2sf11ResourcePtrINS0_4FontEEES4_St9_IdentityIS4_ESt4lessIS4_ESaIS4_EE3endEv.eh:
LSFDE189:
	.set L$set$1586,LEFDE189-LASFDE189
	.long L$set$1586
LASFDE189:
	.long	LASFDE189-EH_frame1
	.long	LFB2699-.
	.set L$set$1587,LFE2699-LFB2699
	.long L$set$1587
	.byte	0x4
	.long	0x0
	.byte	0x4
	.set L$set$1588,LCFI290-LFB2699
	.long L$set$1588
	.byte	0xe
	.byte	0x8
	.byte	0x84
	.byte	0x2
	.byte	0x4
	.set L$set$1589,LCFI291-LCFI290
	.long L$set$1589
	.byte	0xd
	.byte	0x4
	.align 2
LEFDE189:
.globl __ZNSt8_Rb_treeIPN2sf11ResourcePtrINS0_4FontEEES4_St9_IdentityIS4_ESt4lessIS4_ESaIS4_EE11_M_leftmostEv.eh
	.private_extern __ZNSt8_Rb_treeIPN2sf11ResourcePtrINS0_4FontEEES4_St9_IdentityIS4_ESt4lessIS4_ESaIS4_EE11_M_leftmostEv.eh
	.weak_definition __ZNSt8_Rb_treeIPN2sf11ResourcePtrINS0_4FontEEES4_St9_IdentityIS4_ESt4lessIS4_ESaIS4_EE11_M_leftmostEv.eh
__ZNSt8_Rb_treeIPN2sf11ResourcePtrINS0_4FontEEES4_St9_IdentityIS4_ESt4lessIS4_ESaIS4_EE11_M_leftmostEv.eh:
LSFDE191:
	.set L$set$1590,LEFDE191-LASFDE191
	.long L$set$1590
LASFDE191:
	.long	LASFDE191-EH_frame1
	.long	LFB2749-.
	.set L$set$1591,LFE2749-LFB2749
	.long L$set$1591
	.byte	0x4
	.long	0x0
	.byte	0x4
	.set L$set$1592,LCFI293-LFB2749
	.long L$set$1592
	.byte	0xe
	.byte	0x8
	.byte	0x84
	.byte	0x2
	.byte	0x4
	.set L$set$1593,LCFI294-LCFI293
	.long L$set$1593
	.byte	0xd
	.byte	0x4
	.align 2
LEFDE191:
.globl __ZNSt8_Rb_treeIPN2sf11ResourcePtrINS0_4FontEEES4_St9_IdentityIS4_ESt4lessIS4_ESaIS4_EE7_M_rootEv.eh
	.private_extern __ZNSt8_Rb_treeIPN2sf11ResourcePtrINS0_4FontEEES4_St9_IdentityIS4_ESt4lessIS4_ESaIS4_EE7_M_rootEv.eh
	.weak_definition __ZNSt8_Rb_treeIPN2sf11ResourcePtrINS0_4FontEEES4_St9_IdentityIS4_ESt4lessIS4_ESaIS4_EE7_M_rootEv.eh
__ZNSt8_Rb_treeIPN2sf11ResourcePtrINS0_4FontEEES4_St9_IdentityIS4_ESt4lessIS4_ESaIS4_EE7_M_rootEv.eh:
LSFDE193:
	.set L$set$1594,LEFDE193-LASFDE193
	.long L$set$1594
LASFDE193:
	.long	LASFDE193-EH_frame1
	.long	LFB2750-.
	.set L$set$1595,LFE2750-LFB2750
	.long L$set$1595
	.byte	0x4
	.long	0x0
	.byte	0x4
	.set L$set$1596,LCFI296-LFB2750
	.long L$set$1596
	.byte	0xe
	.byte	0x8
	.byte	0x84
	.byte	0x2
	.byte	0x4
	.set L$set$1597,LCFI297-LCFI296
	.long L$set$1597
	.byte	0xd
	.byte	0x4
	.align 2
LEFDE193:
.globl __ZNSt8_Rb_treeIPN2sf11ResourcePtrINS0_4FontEEES4_St9_IdentityIS4_ESt4lessIS4_ESaIS4_EE12_M_rightmostEv.eh
	.private_extern __ZNSt8_Rb_treeIPN2sf11ResourcePtrINS0_4FontEEES4_St9_IdentityIS4_ESt4lessIS4_ESaIS4_EE12_M_rightmostEv.eh
	.weak_definition __ZNSt8_Rb_treeIPN2sf11ResourcePtrINS0_4FontEEES4_St9_IdentityIS4_ESt4lessIS4_ESaIS4_EE12_M_rightmostEv.eh
__ZNSt8_Rb_treeIPN2sf11ResourcePtrINS0_4FontEEES4_St9_IdentityIS4_ESt4lessIS4_ESaIS4_EE12_M_rightmostEv.eh:
LSFDE195:
	.set L$set$1598,LEFDE195-LASFDE195
	.long L$set$1598
LASFDE195:
	.long	LASFDE195-EH_frame1
	.long	LFB2751-.
	.set L$set$1599,LFE2751-LFB2751
	.long L$set$1599
	.byte	0x4
	.long	0x0
	.byte	0x4
	.set L$set$1600,LCFI299-LFB2751
	.long L$set$1600
	.byte	0xe
	.byte	0x8
	.byte	0x84
	.byte	0x2
	.byte	0x4
	.set L$set$1601,LCFI300-LCFI299
	.long L$set$1601
	.byte	0xd
	.byte	0x4
	.align 2
LEFDE195:
.globl __ZNSt8_Rb_treeIPN2sf11ResourcePtrINS0_5ImageEEES4_St9_IdentityIS4_ESt4lessIS4_ESaIS4_EE8_S_valueEPKSt13_Rb_tree_nodeIS4_E.eh
	.private_extern __ZNSt8_Rb_treeIPN2sf11ResourcePtrINS0_5ImageEEES4_St9_IdentityIS4_ESt4lessIS4_ESaIS4_EE8_S_valueEPKSt13_Rb_tree_nodeIS4_E.eh
	.weak_definition __ZNSt8_Rb_treeIPN2sf11ResourcePtrINS0_5ImageEEES4_St9_IdentityIS4_ESt4lessIS4_ESaIS4_EE8_S_valueEPKSt13_Rb_tree_nodeIS4_E.eh
__ZNSt8_Rb_treeIPN2sf11ResourcePtrINS0_5ImageEEES4_St9_IdentityIS4_ESt4lessIS4_ESaIS4_EE8_S_valueEPKSt13_Rb_tree_nodeIS4_E.eh:
LSFDE197:
	.set L$set$1602,LEFDE197-LASFDE197
	.long L$set$1602
LASFDE197:
	.long	LASFDE197-EH_frame1
	.long	LFB2756-.
	.set L$set$1603,LFE2756-LFB2756
	.long L$set$1603
	.byte	0x4
	.long	0x0
	.byte	0x4
	.set L$set$1604,LCFI302-LFB2756
	.long L$set$1604
	.byte	0xe
	.byte	0x8
	.byte	0x84
	.byte	0x2
	.byte	0x4
	.set L$set$1605,LCFI303-LCFI302
	.long L$set$1605
	.byte	0xd
	.byte	0x4
	.align 2
LEFDE197:
.globl __ZNKSt9_IdentityIPN2sf11ResourcePtrINS0_5ImageEEEEclERKS4_.eh
	.private_extern __ZNKSt9_IdentityIPN2sf11ResourcePtrINS0_5ImageEEEEclERKS4_.eh
	.weak_definition __ZNKSt9_IdentityIPN2sf11ResourcePtrINS0_5ImageEEEEclERKS4_.eh
__ZNKSt9_IdentityIPN2sf11ResourcePtrINS0_5ImageEEEEclERKS4_.eh:
LSFDE199:
	.set L$set$1606,LEFDE199-LASFDE199
	.long L$set$1606
LASFDE199:
	.long	LASFDE199-EH_frame1
	.long	LFB2757-.
	.set L$set$1607,LFE2757-LFB2757
	.long L$set$1607
	.byte	0x4
	.long	0x0
	.byte	0x4
	.set L$set$1608,LCFI305-LFB2757
	.long L$set$1608
	.byte	0xe
	.byte	0x8
	.byte	0x84
	.byte	0x2
	.byte	0x4
	.set L$set$1609,LCFI306-LCFI305
	.long L$set$1609
	.byte	0xd
	.byte	0x4
	.align 2
LEFDE199:
.globl __ZNSt8_Rb_treeIPN2sf11ResourcePtrINS0_5ImageEEES4_St9_IdentityIS4_ESt4lessIS4_ESaIS4_EE6_S_keyEPKSt13_Rb_tree_nodeIS4_E.eh
	.private_extern __ZNSt8_Rb_treeIPN2sf11ResourcePtrINS0_5ImageEEES4_St9_IdentityIS4_ESt4lessIS4_ESaIS4_EE6_S_keyEPKSt13_Rb_tree_nodeIS4_E.eh
	.weak_definition __ZNSt8_Rb_treeIPN2sf11ResourcePtrINS0_5ImageEEES4_St9_IdentityIS4_ESt4lessIS4_ESaIS4_EE6_S_keyEPKSt13_Rb_tree_nodeIS4_E.eh
__ZNSt8_Rb_treeIPN2sf11ResourcePtrINS0_5ImageEEES4_St9_IdentityIS4_ESt4lessIS4_ESaIS4_EE6_S_keyEPKSt13_Rb_tree_nodeIS4_E.eh:
LSFDE201:
	.set L$set$1610,LEFDE201-LASFDE201
	.long L$set$1610
LASFDE201:
	.long	LASFDE201-EH_frame1
	.long	LFB2713-.
	.set L$set$1611,LFE2713-LFB2713
	.long L$set$1611
	.byte	0x4
	.long	0x0
	.byte	0x4
	.set L$set$1612,LCFI308-LFB2713
	.long L$set$1612
	.byte	0xe
	.byte	0x8
	.byte	0x84
	.byte	0x2
	.byte	0x4
	.set L$set$1613,LCFI309-LCFI308
	.long L$set$1613
	.byte	0xd
	.byte	0x4
	.byte	0x4
	.set L$set$1614,LCFI311-LCFI309
	.long L$set$1614
	.byte	0x86
	.byte	0x3
	.align 2
LEFDE201:
.globl __ZNSt8_Rb_treeIPN2sf11ResourcePtrINS0_5ImageEEES4_St9_IdentityIS4_ESt4lessIS4_ESaIS4_EE11upper_boundERKS4_.eh
	.weak_definition __ZNSt8_Rb_treeIPN2sf11ResourcePtrINS0_5ImageEEES4_St9_IdentityIS4_ESt4lessIS4_ESaIS4_EE11upper_boundERKS4_.eh
__ZNSt8_Rb_treeIPN2sf11ResourcePtrINS0_5ImageEEES4_St9_IdentityIS4_ESt4lessIS4_ESaIS4_EE11upper_boundERKS4_.eh:
LSFDE203:
	.set L$set$1615,LEFDE203-LASFDE203
	.long L$set$1615
LASFDE203:
	.long	LASFDE203-EH_frame1
	.long	LFB2666-.
	.set L$set$1616,LFE2666-LFB2666
	.long L$set$1616
	.byte	0x4
	.long	0x0
	.byte	0x4
	.set L$set$1617,LCFI312-LFB2666
	.long L$set$1617
	.byte	0xe
	.byte	0x8
	.byte	0x84
	.byte	0x2
	.byte	0x4
	.set L$set$1618,LCFI313-LCFI312
	.long L$set$1618
	.byte	0xd
	.byte	0x4
	.align 2
LEFDE203:
.globl __ZNSt8_Rb_treeIPN2sf11ResourcePtrINS0_5ImageEEES4_St9_IdentityIS4_ESt4lessIS4_ESaIS4_EE11lower_boundERKS4_.eh
	.weak_definition __ZNSt8_Rb_treeIPN2sf11ResourcePtrINS0_5ImageEEES4_St9_IdentityIS4_ESt4lessIS4_ESaIS4_EE11lower_boundERKS4_.eh
__ZNSt8_Rb_treeIPN2sf11ResourcePtrINS0_5ImageEEES4_St9_IdentityIS4_ESt4lessIS4_ESaIS4_EE11lower_boundERKS4_.eh:
LSFDE205:
	.set L$set$1619,LEFDE205-LASFDE205
	.long L$set$1619
LASFDE205:
	.long	LASFDE205-EH_frame1
	.long	LFB2665-.
	.set L$set$1620,LFE2665-LFB2665
	.long L$set$1620
	.byte	0x4
	.long	0x0
	.byte	0x4
	.set L$set$1621,LCFI315-LFB2665
	.long L$set$1621
	.byte	0xe
	.byte	0x8
	.byte	0x84
	.byte	0x2
	.byte	0x4
	.set L$set$1622,LCFI316-LCFI315
	.long L$set$1622
	.byte	0xd
	.byte	0x4
	.align 2
LEFDE205:
.globl __ZNSt8_Rb_treeIPN2sf11ResourcePtrINS0_5ImageEEES4_St9_IdentityIS4_ESt4lessIS4_ESaIS4_EE11equal_rangeERKS4_.eh
	.private_extern __ZNSt8_Rb_treeIPN2sf11ResourcePtrINS0_5ImageEEES4_St9_IdentityIS4_ESt4lessIS4_ESaIS4_EE11equal_rangeERKS4_.eh
	.weak_definition __ZNSt8_Rb_treeIPN2sf11ResourcePtrINS0_5ImageEEES4_St9_IdentityIS4_ESt4lessIS4_ESaIS4_EE11equal_rangeERKS4_.eh
__ZNSt8_Rb_treeIPN2sf11ResourcePtrINS0_5ImageEEES4_St9_IdentityIS4_ESt4lessIS4_ESaIS4_EE11equal_rangeERKS4_.eh:
LSFDE207:
	.set L$set$1623,LEFDE207-LASFDE207
	.long L$set$1623
LASFDE207:
	.long	LASFDE207-EH_frame1
	.long	LFB2641-.
	.set L$set$1624,LFE2641-LFB2641
	.long L$set$1624
	.byte	0x4
	.long	0x0
	.byte	0x4
	.set L$set$1625,LCFI318-LFB2641
	.long L$set$1625
	.byte	0xe
	.byte	0x8
	.byte	0x84
	.byte	0x2
	.byte	0x4
	.set L$set$1626,LCFI319-LCFI318
	.long L$set$1626
	.byte	0xd
	.byte	0x4
	.align 2
LEFDE207:
.globl __ZN9__gnu_cxx13new_allocatorIPN2sf11ResourcePtrINS1_5ImageEEEE7destroyEPS5_.eh
	.private_extern __ZN9__gnu_cxx13new_allocatorIPN2sf11ResourcePtrINS1_5ImageEEEE7destroyEPS5_.eh
	.weak_definition __ZN9__gnu_cxx13new_allocatorIPN2sf11ResourcePtrINS1_5ImageEEEE7destroyEPS5_.eh
__ZN9__gnu_cxx13new_allocatorIPN2sf11ResourcePtrINS1_5ImageEEEE7destroyEPS5_.eh:
LSFDE209:
	.set L$set$1627,LEFDE209-LASFDE209
	.long L$set$1627
LASFDE209:
	.long	LASFDE209-EH_frame1
	.long	LFB2762-.
	.set L$set$1628,LFE2762-LFB2762
	.long L$set$1628
	.byte	0x4
	.long	0x0
	.byte	0x4
	.set L$set$1629,LCFI321-LFB2762
	.long L$set$1629
	.byte	0xe
	.byte	0x8
	.byte	0x84
	.byte	0x2
	.byte	0x4
	.set L$set$1630,LCFI322-LCFI321
	.long L$set$1630
	.byte	0xd
	.byte	0x4
	.align 2
LEFDE209:
.globl __ZNSt8_Rb_treeIPN2sf11ResourcePtrINS0_4FontEEES4_St9_IdentityIS4_ESt4lessIS4_ESaIS4_EE8_S_valueEPKSt13_Rb_tree_nodeIS4_E.eh
	.private_extern __ZNSt8_Rb_treeIPN2sf11ResourcePtrINS0_4FontEEES4_St9_IdentityIS4_ESt4lessIS4_ESaIS4_EE8_S_valueEPKSt13_Rb_tree_nodeIS4_E.eh
	.weak_definition __ZNSt8_Rb_treeIPN2sf11ResourcePtrINS0_4FontEEES4_St9_IdentityIS4_ESt4lessIS4_ESaIS4_EE8_S_valueEPKSt13_Rb_tree_nodeIS4_E.eh
__ZNSt8_Rb_treeIPN2sf11ResourcePtrINS0_4FontEEES4_St9_IdentityIS4_ESt4lessIS4_ESaIS4_EE8_S_valueEPKSt13_Rb_tree_nodeIS4_E.eh:
LSFDE211:
	.set L$set$1631,LEFDE211-LASFDE211
	.long L$set$1631
LASFDE211:
	.long	LASFDE211-EH_frame1
	.long	LFB2764-.
	.set L$set$1632,LFE2764-LFB2764
	.long L$set$1632
	.byte	0x4
	.long	0x0
	.byte	0x4
	.set L$set$1633,LCFI324-LFB2764
	.long L$set$1633
	.byte	0xe
	.byte	0x8
	.byte	0x84
	.byte	0x2
	.byte	0x4
	.set L$set$1634,LCFI325-LCFI324
	.long L$set$1634
	.byte	0xd
	.byte	0x4
	.align 2
LEFDE211:
.globl __ZNKSt9_IdentityIPN2sf11ResourcePtrINS0_4FontEEEEclERKS4_.eh
	.private_extern __ZNKSt9_IdentityIPN2sf11ResourcePtrINS0_4FontEEEEclERKS4_.eh
	.weak_definition __ZNKSt9_IdentityIPN2sf11ResourcePtrINS0_4FontEEEEclERKS4_.eh
__ZNKSt9_IdentityIPN2sf11ResourcePtrINS0_4FontEEEEclERKS4_.eh:
LSFDE213:
	.set L$set$1635,LEFDE213-LASFDE213
	.long L$set$1635
LASFDE213:
	.long	LASFDE213-EH_frame1
	.long	LFB2765-.
	.set L$set$1636,LFE2765-LFB2765
	.long L$set$1636
	.byte	0x4
	.long	0x0
	.byte	0x4
	.set L$set$1637,LCFI327-LFB2765
	.long L$set$1637
	.byte	0xe
	.byte	0x8
	.byte	0x84
	.byte	0x2
	.byte	0x4
	.set L$set$1638,LCFI328-LCFI327
	.long L$set$1638
	.byte	0xd
	.byte	0x4
	.align 2
LEFDE213:
.globl __ZNSt8_Rb_treeIPN2sf11ResourcePtrINS0_4FontEEES4_St9_IdentityIS4_ESt4lessIS4_ESaIS4_EE6_S_keyEPKSt13_Rb_tree_nodeIS4_E.eh
	.private_extern __ZNSt8_Rb_treeIPN2sf11ResourcePtrINS0_4FontEEES4_St9_IdentityIS4_ESt4lessIS4_ESaIS4_EE6_S_keyEPKSt13_Rb_tree_nodeIS4_E.eh
	.weak_definition __ZNSt8_Rb_treeIPN2sf11ResourcePtrINS0_4FontEEES4_St9_IdentityIS4_ESt4lessIS4_ESaIS4_EE6_S_keyEPKSt13_Rb_tree_nodeIS4_E.eh
__ZNSt8_Rb_treeIPN2sf11ResourcePtrINS0_4FontEEES4_St9_IdentityIS4_ESt4lessIS4_ESaIS4_EE6_S_keyEPKSt13_Rb_tree_nodeIS4_E.eh:
LSFDE215:
	.set L$set$1639,LEFDE215-LASFDE215
	.long L$set$1639
LASFDE215:
	.long	LASFDE215-EH_frame1
	.long	LFB2738-.
	.set L$set$1640,LFE2738-LFB2738
	.long L$set$1640
	.byte	0x4
	.long	0x0
	.byte	0x4
	.set L$set$1641,LCFI330-LFB2738
	.long L$set$1641
	.byte	0xe
	.byte	0x8
	.byte	0x84
	.byte	0x2
	.byte	0x4
	.set L$set$1642,LCFI331-LCFI330
	.long L$set$1642
	.byte	0xd
	.byte	0x4
	.byte	0x4
	.set L$set$1643,LCFI333-LCFI331
	.long L$set$1643
	.byte	0x86
	.byte	0x3
	.align 2
LEFDE215:
.globl __ZNSt8_Rb_treeIPN2sf11ResourcePtrINS0_4FontEEES4_St9_IdentityIS4_ESt4lessIS4_ESaIS4_EE11upper_boundERKS4_.eh
	.weak_definition __ZNSt8_Rb_treeIPN2sf11ResourcePtrINS0_4FontEEES4_St9_IdentityIS4_ESt4lessIS4_ESaIS4_EE11upper_boundERKS4_.eh
__ZNSt8_Rb_treeIPN2sf11ResourcePtrINS0_4FontEEES4_St9_IdentityIS4_ESt4lessIS4_ESaIS4_EE11upper_boundERKS4_.eh:
LSFDE217:
	.set L$set$1644,LEFDE217-LASFDE217
	.long L$set$1644
LASFDE217:
	.long	LASFDE217-EH_frame1
	.long	LFB2695-.
	.set L$set$1645,LFE2695-LFB2695
	.long L$set$1645
	.byte	0x4
	.long	0x0
	.byte	0x4
	.set L$set$1646,LCFI334-LFB2695
	.long L$set$1646
	.byte	0xe
	.byte	0x8
	.byte	0x84
	.byte	0x2
	.byte	0x4
	.set L$set$1647,LCFI335-LCFI334
	.long L$set$1647
	.byte	0xd
	.byte	0x4
	.align 2
LEFDE217:
.globl __ZNSt8_Rb_treeIPN2sf11ResourcePtrINS0_4FontEEES4_St9_IdentityIS4_ESt4lessIS4_ESaIS4_EE11lower_boundERKS4_.eh
	.weak_definition __ZNSt8_Rb_treeIPN2sf11ResourcePtrINS0_4FontEEES4_St9_IdentityIS4_ESt4lessIS4_ESaIS4_EE11lower_boundERKS4_.eh
__ZNSt8_Rb_treeIPN2sf11ResourcePtrINS0_4FontEEES4_St9_IdentityIS4_ESt4lessIS4_ESaIS4_EE11lower_boundERKS4_.eh:
LSFDE219:
	.set L$set$1648,LEFDE219-LASFDE219
	.long L$set$1648
LASFDE219:
	.long	LASFDE219-EH_frame1
	.long	LFB2694-.
	.set L$set$1649,LFE2694-LFB2694
	.long L$set$1649
	.byte	0x4
	.long	0x0
	.byte	0x4
	.set L$set$1650,LCFI337-LFB2694
	.long L$set$1650
	.byte	0xe
	.byte	0x8
	.byte	0x84
	.byte	0x2
	.byte	0x4
	.set L$set$1651,LCFI338-LCFI337
	.long L$set$1651
	.byte	0xd
	.byte	0x4
	.align 2
LEFDE219:
.globl __ZNSt8_Rb_treeIPN2sf11ResourcePtrINS0_4FontEEES4_St9_IdentityIS4_ESt4lessIS4_ESaIS4_EE11equal_rangeERKS4_.eh
	.private_extern __ZNSt8_Rb_treeIPN2sf11ResourcePtrINS0_4FontEEES4_St9_IdentityIS4_ESt4lessIS4_ESaIS4_EE11equal_rangeERKS4_.eh
	.weak_definition __ZNSt8_Rb_treeIPN2sf11ResourcePtrINS0_4FontEEES4_St9_IdentityIS4_ESt4lessIS4_ESaIS4_EE11equal_rangeERKS4_.eh
__ZNSt8_Rb_treeIPN2sf11ResourcePtrINS0_4FontEEES4_St9_IdentityIS4_ESt4lessIS4_ESaIS4_EE11equal_rangeERKS4_.eh:
LSFDE221:
	.set L$set$1652,LEFDE221-LASFDE221
	.long L$set$1652
LASFDE221:
	.long	LASFDE221-EH_frame1
	.long	LFB2661-.
	.set L$set$1653,LFE2661-LFB2661
	.long L$set$1653
	.byte	0x4
	.long	0x0
	.byte	0x4
	.set L$set$1654,LCFI340-LFB2661
	.long L$set$1654
	.byte	0xe
	.byte	0x8
	.byte	0x84
	.byte	0x2
	.byte	0x4
	.set L$set$1655,LCFI341-LCFI340
	.long L$set$1655
	.byte	0xd
	.byte	0x4
	.align 2
LEFDE221:
.globl __ZNKSt8_Rb_treeIPN2sf11ResourcePtrINS0_5ImageEEES4_St9_IdentityIS4_ESt4lessIS4_ESaIS4_EE21_M_get_Node_allocatorEv.eh
	.private_extern __ZNKSt8_Rb_treeIPN2sf11ResourcePtrINS0_5ImageEEES4_St9_IdentityIS4_ESt4lessIS4_ESaIS4_EE21_M_get_Node_allocatorEv.eh
	.weak_definition __ZNKSt8_Rb_treeIPN2sf11ResourcePtrINS0_5ImageEEES4_St9_IdentityIS4_ESt4lessIS4_ESaIS4_EE21_M_get_Node_allocatorEv.eh
__ZNKSt8_Rb_treeIPN2sf11ResourcePtrINS0_5ImageEEES4_St9_IdentityIS4_ESt4lessIS4_ESaIS4_EE21_M_get_Node_allocatorEv.eh:
LSFDE223:
	.set L$set$1656,LEFDE223-LASFDE223
	.long L$set$1656
LASFDE223:
	.long	LASFDE223-EH_frame1
	.long	LFB2766-.
	.set L$set$1657,LFE2766-LFB2766
	.long L$set$1657
	.byte	0x4
	.long	0x0
	.byte	0x4
	.set L$set$1658,LCFI343-LFB2766
	.long L$set$1658
	.byte	0xe
	.byte	0x8
	.byte	0x84
	.byte	0x2
	.byte	0x4
	.set L$set$1659,LCFI344-LCFI343
	.long L$set$1659
	.byte	0xd
	.byte	0x4
	.align 2
LEFDE223:
.globl __ZN9__gnu_cxx13new_allocatorIPN2sf11ResourcePtrINS1_5ImageEEEED2Ev.eh
	.private_extern __ZN9__gnu_cxx13new_allocatorIPN2sf11ResourcePtrINS1_5ImageEEEED2Ev.eh
	.weak_definition __ZN9__gnu_cxx13new_allocatorIPN2sf11ResourcePtrINS1_5ImageEEEED2Ev.eh
__ZN9__gnu_cxx13new_allocatorIPN2sf11ResourcePtrINS1_5ImageEEEED2Ev.eh:
LSFDE225:
	.set L$set$1660,LEFDE225-LASFDE225
	.long L$set$1660
LASFDE225:
	.long	LASFDE225-EH_frame1
	.long	LFB2774-.
	.set L$set$1661,LFE2774-LFB2774
	.long L$set$1661
	.byte	0x4
	.long	0x0
	.byte	0x4
	.set L$set$1662,LCFI346-LFB2774
	.long L$set$1662
	.byte	0xe
	.byte	0x8
	.byte	0x84
	.byte	0x2
	.byte	0x4
	.set L$set$1663,LCFI347-LCFI346
	.long L$set$1663
	.byte	0xd
	.byte	0x4
	.align 2
LEFDE225:
.globl __ZNSaIPN2sf11ResourcePtrINS_5ImageEEEED1Ev.eh
	.private_extern __ZNSaIPN2sf11ResourcePtrINS_5ImageEEEED1Ev.eh
	.weak_definition __ZNSaIPN2sf11ResourcePtrINS_5ImageEEEED1Ev.eh
__ZNSaIPN2sf11ResourcePtrINS_5ImageEEEED1Ev.eh:
LSFDE227:
	.set L$set$1664,LEFDE227-LASFDE227
	.long L$set$1664
LASFDE227:
	.long	LASFDE227-EH_frame1
	.long	LFB2761-.
	.set L$set$1665,LFE2761-LFB2761
	.long L$set$1665
	.byte	0x4
	.long	0x0
	.byte	0x4
	.set L$set$1666,LCFI349-LFB2761
	.long L$set$1666
	.byte	0xe
	.byte	0x8
	.byte	0x84
	.byte	0x2
	.byte	0x4
	.set L$set$1667,LCFI350-LCFI349
	.long L$set$1667
	.byte	0xd
	.byte	0x4
	.align 2
LEFDE227:
.globl __ZN9__gnu_cxx13new_allocatorIPN2sf11ResourcePtrINS1_5ImageEEEEC2Ev.eh
	.private_extern __ZN9__gnu_cxx13new_allocatorIPN2sf11ResourcePtrINS1_5ImageEEEEC2Ev.eh
	.weak_definition __ZN9__gnu_cxx13new_allocatorIPN2sf11ResourcePtrINS1_5ImageEEEEC2Ev.eh
__ZN9__gnu_cxx13new_allocatorIPN2sf11ResourcePtrINS1_5ImageEEEEC2Ev.eh:
LSFDE229:
	.set L$set$1668,LEFDE229-LASFDE229
	.long L$set$1668
LASFDE229:
	.long	LASFDE229-EH_frame1
	.long	LFB2778-.
	.set L$set$1669,LFE2778-LFB2778
	.long L$set$1669
	.byte	0x4
	.long	0x0
	.byte	0x4
	.set L$set$1670,LCFI352-LFB2778
	.long L$set$1670
	.byte	0xe
	.byte	0x8
	.byte	0x84
	.byte	0x2
	.byte	0x4
	.set L$set$1671,LCFI353-LCFI352
	.long L$set$1671
	.byte	0xd
	.byte	0x4
	.align 2
LEFDE229:
.globl __ZNSaIPN2sf11ResourcePtrINS_5ImageEEEEC1ISt13_Rb_tree_nodeIS3_EEERKSaIT_E.eh
	.private_extern __ZNSaIPN2sf11ResourcePtrINS_5ImageEEEEC1ISt13_Rb_tree_nodeIS3_EEERKSaIT_E.eh
	.weak_definition __ZNSaIPN2sf11ResourcePtrINS_5ImageEEEEC1ISt13_Rb_tree_nodeIS3_EEERKSaIT_E.eh
__ZNSaIPN2sf11ResourcePtrINS_5ImageEEEEC1ISt13_Rb_tree_nodeIS3_EEERKSaIT_E.eh:
LSFDE231:
	.set L$set$1672,LEFDE231-LASFDE231
	.long L$set$1672
LASFDE231:
	.long	LASFDE231-EH_frame1
	.long	LFB2769-.
	.set L$set$1673,LFE2769-LFB2769
	.long L$set$1673
	.byte	0x4
	.long	0x0
	.byte	0x4
	.set L$set$1674,LCFI355-LFB2769
	.long L$set$1674
	.byte	0xe
	.byte	0x8
	.byte	0x84
	.byte	0x2
	.byte	0x4
	.set L$set$1675,LCFI356-LCFI355
	.long L$set$1675
	.byte	0xd
	.byte	0x4
	.align 2
LEFDE231:
.globl __ZNKSt8_Rb_treeIPN2sf11ResourcePtrINS0_5ImageEEES4_St9_IdentityIS4_ESt4lessIS4_ESaIS4_EE13get_allocatorEv.eh
	.private_extern __ZNKSt8_Rb_treeIPN2sf11ResourcePtrINS0_5ImageEEES4_St9_IdentityIS4_ESt4lessIS4_ESaIS4_EE13get_allocatorEv.eh
	.weak_definition __ZNKSt8_Rb_treeIPN2sf11ResourcePtrINS0_5ImageEEES4_St9_IdentityIS4_ESt4lessIS4_ESaIS4_EE13get_allocatorEv.eh
__ZNKSt8_Rb_treeIPN2sf11ResourcePtrINS0_5ImageEEES4_St9_IdentityIS4_ESt4lessIS4_ESaIS4_EE13get_allocatorEv.eh:
LSFDE233:
	.set L$set$1676,LEFDE233-LASFDE233
	.long L$set$1676
LASFDE233:
	.long	LASFDE233-EH_frame1
	.long	LFB2758-.
	.set L$set$1677,LFE2758-LFB2758
	.long L$set$1677
	.byte	0x4
	.long	0x0
	.byte	0x4
	.set L$set$1678,LCFI358-LFB2758
	.long L$set$1678
	.byte	0xe
	.byte	0x8
	.byte	0x84
	.byte	0x2
	.byte	0x4
	.set L$set$1679,LCFI359-LCFI358
	.long L$set$1679
	.byte	0xd
	.byte	0x4
	.byte	0x4
	.set L$set$1680,LCFI362-LCFI359
	.long L$set$1680
	.byte	0x86
	.byte	0x4
	.byte	0x87
	.byte	0x3
	.align 2
LEFDE233:
___tcf_1.eh:
LSFDE235:
	.set L$set$1681,LEFDE235-LASFDE235
	.long L$set$1681
LASFDE235:
	.long	LASFDE235-EH_frame1
	.long	LFB2785-.
	.set L$set$1682,LFE2785-LFB2785
	.long L$set$1682
	.byte	0x4
	.long	0x0
	.byte	0x4
	.set L$set$1683,LCFI363-LFB2785
	.long L$set$1683
	.byte	0xe
	.byte	0x8
	.byte	0x84
	.byte	0x2
	.byte	0x4
	.set L$set$1684,LCFI364-LCFI363
	.long L$set$1684
	.byte	0xd
	.byte	0x4
	.byte	0x4
	.set L$set$1685,LCFI366-LCFI364
	.long L$set$1685
	.byte	0x83
	.byte	0x3
	.align 2
LEFDE235:
___tcf_2.eh:
LSFDE237:
	.set L$set$1686,LEFDE237-LASFDE237
	.long L$set$1686
LASFDE237:
	.long	LASFDE237-EH_frame1
	.long	LFB2786-.
	.set L$set$1687,LFE2786-LFB2786
	.long L$set$1687
	.byte	0x4
	.long	0x0
	.byte	0x4
	.set L$set$1688,LCFI367-LFB2786
	.long L$set$1688
	.byte	0xe
	.byte	0x8
	.byte	0x84
	.byte	0x2
	.byte	0x4
	.set L$set$1689,LCFI368-LCFI367
	.long L$set$1689
	.byte	0xd
	.byte	0x4
	.byte	0x4
	.set L$set$1690,LCFI370-LCFI368
	.long L$set$1690
	.byte	0x83
	.byte	0x3
	.align 2
LEFDE237:
___tcf_3.eh:
LSFDE239:
	.set L$set$1691,LEFDE239-LASFDE239
	.long L$set$1691
LASFDE239:
	.long	LASFDE239-EH_frame1
	.long	LFB2787-.
	.set L$set$1692,LFE2787-LFB2787
	.long L$set$1692
	.byte	0x4
	.long	0x0
	.byte	0x4
	.set L$set$1693,LCFI371-LFB2787
	.long L$set$1693
	.byte	0xe
	.byte	0x8
	.byte	0x84
	.byte	0x2
	.byte	0x4
	.set L$set$1694,LCFI372-LCFI371
	.long L$set$1694
	.byte	0xd
	.byte	0x4
	.byte	0x4
	.set L$set$1695,LCFI374-LCFI372
	.long L$set$1695
	.byte	0x83
	.byte	0x3
	.align 2
LEFDE239:
___tcf_4.eh:
LSFDE241:
	.set L$set$1696,LEFDE241-LASFDE241
	.long L$set$1696
LASFDE241:
	.long	LASFDE241-EH_frame1
	.long	LFB2788-.
	.set L$set$1697,LFE2788-LFB2788
	.long L$set$1697
	.byte	0x4
	.long	0x0
	.byte	0x4
	.set L$set$1698,LCFI375-LFB2788
	.long L$set$1698
	.byte	0xe
	.byte	0x8
	.byte	0x84
	.byte	0x2
	.byte	0x4
	.set L$set$1699,LCFI376-LCFI375
	.long L$set$1699
	.byte	0xd
	.byte	0x4
	.byte	0x4
	.set L$set$1700,LCFI378-LCFI376
	.long L$set$1700
	.byte	0x83
	.byte	0x3
	.align 2
LEFDE241:
__Z41__static_initialization_and_destruction_0ii.eh:
LSFDE243:
	.set L$set$1701,LEFDE243-LASFDE243
	.long L$set$1701
LASFDE243:
	.long	LASFDE243-EH_frame1
	.long	LFB2783-.
	.set L$set$1702,LFE2783-LFB2783
	.long L$set$1702
	.byte	0x4
	.long	LLSDA2783-.
	.byte	0x4
	.set L$set$1703,LCFI379-LFB2783
	.long L$set$1703
	.byte	0xe
	.byte	0x8
	.byte	0x84
	.byte	0x2
	.byte	0x4
	.set L$set$1704,LCFI380-LCFI379
	.long L$set$1704
	.byte	0xd
	.byte	0x4
	.byte	0x4
	.set L$set$1705,LCFI383-LCFI380
	.long L$set$1705
	.byte	0x83
	.byte	0x4
	.byte	0x86
	.byte	0x3
	.align 2
LEFDE243:
__GLOBAL__I_fout.eh:
LSFDE245:
	.set L$set$1706,LEFDE245-LASFDE245
	.long L$set$1706
LASFDE245:
	.long	LASFDE245-EH_frame1
	.long	LFB2793-.
	.set L$set$1707,LFE2793-LFB2793
	.long L$set$1707
	.byte	0x4
	.long	0x0
	.byte	0x4
	.set L$set$1708,LCFI384-LFB2793
	.long L$set$1708
	.byte	0xe
	.byte	0x8
	.byte	0x84
	.byte	0x2
	.byte	0x4
	.set L$set$1709,LCFI385-LCFI384
	.long L$set$1709
	.byte	0xd
	.byte	0x4
	.align 2
LEFDE245:
.globl __ZN9__gnu_cxx13new_allocatorISt13_Rb_tree_nodeIPN2sf11ResourcePtrINS2_5ImageEEEEE10deallocateEPS7_m.eh
	.private_extern __ZN9__gnu_cxx13new_allocatorISt13_Rb_tree_nodeIPN2sf11ResourcePtrINS2_5ImageEEEEE10deallocateEPS7_m.eh
	.weak_definition __ZN9__gnu_cxx13new_allocatorISt13_Rb_tree_nodeIPN2sf11ResourcePtrINS2_5ImageEEEEE10deallocateEPS7_m.eh
__ZN9__gnu_cxx13new_allocatorISt13_Rb_tree_nodeIPN2sf11ResourcePtrINS2_5ImageEEEEE10deallocateEPS7_m.eh:
LSFDE247:
	.set L$set$1710,LEFDE247-LASFDE247
	.long L$set$1710
LASFDE247:
	.long	LASFDE247-EH_frame1
	.long	LFB2776-.
	.set L$set$1711,LFE2776-LFB2776
	.long L$set$1711
	.byte	0x4
	.long	0x0
	.byte	0x4
	.set L$set$1712,LCFI387-LFB2776
	.long L$set$1712
	.byte	0xe
	.byte	0x8
	.byte	0x84
	.byte	0x2
	.byte	0x4
	.set L$set$1713,LCFI388-LCFI387
	.long L$set$1713
	.byte	0xd
	.byte	0x4
	.align 2
LEFDE247:
.globl __ZNSt8_Rb_treeIPN2sf11ResourcePtrINS0_5ImageEEES4_St9_IdentityIS4_ESt4lessIS4_ESaIS4_EE11_M_put_nodeEPSt13_Rb_tree_nodeIS4_E.eh
	.private_extern __ZNSt8_Rb_treeIPN2sf11ResourcePtrINS0_5ImageEEES4_St9_IdentityIS4_ESt4lessIS4_ESaIS4_EE11_M_put_nodeEPSt13_Rb_tree_nodeIS4_E.eh
	.weak_definition __ZNSt8_Rb_treeIPN2sf11ResourcePtrINS0_5ImageEEES4_St9_IdentityIS4_ESt4lessIS4_ESaIS4_EE11_M_put_nodeEPSt13_Rb_tree_nodeIS4_E.eh
__ZNSt8_Rb_treeIPN2sf11ResourcePtrINS0_5ImageEEES4_St9_IdentityIS4_ESt4lessIS4_ESaIS4_EE11_M_put_nodeEPSt13_Rb_tree_nodeIS4_E.eh:
LSFDE249:
	.set L$set$1714,LEFDE249-LASFDE249
	.long L$set$1714
LASFDE249:
	.long	LASFDE249-EH_frame1
	.long	LFB2763-.
	.set L$set$1715,LFE2763-LFB2763
	.long L$set$1715
	.byte	0x4
	.long	0x0
	.byte	0x4
	.set L$set$1716,LCFI390-LFB2763
	.long L$set$1716
	.byte	0xe
	.byte	0x8
	.byte	0x84
	.byte	0x2
	.byte	0x4
	.set L$set$1717,LCFI391-LCFI390
	.long L$set$1717
	.byte	0xd
	.byte	0x4
	.align 2
LEFDE249:
.globl __ZNSt8_Rb_treeIPN2sf11ResourcePtrINS0_5ImageEEES4_St9_IdentityIS4_ESt4lessIS4_ESaIS4_EE15_M_destroy_nodeEPSt13_Rb_tree_nodeIS4_E.eh
	.private_extern __ZNSt8_Rb_treeIPN2sf11ResourcePtrINS0_5ImageEEES4_St9_IdentityIS4_ESt4lessIS4_ESaIS4_EE15_M_destroy_nodeEPSt13_Rb_tree_nodeIS4_E.eh
	.weak_definition __ZNSt8_Rb_treeIPN2sf11ResourcePtrINS0_5ImageEEES4_St9_IdentityIS4_ESt4lessIS4_ESaIS4_EE15_M_destroy_nodeEPSt13_Rb_tree_nodeIS4_E.eh
__ZNSt8_Rb_treeIPN2sf11ResourcePtrINS0_5ImageEEES4_St9_IdentityIS4_ESt4lessIS4_ESaIS4_EE15_M_destroy_nodeEPSt13_Rb_tree_nodeIS4_E.eh:
LSFDE251:
	.set L$set$1718,LEFDE251-LASFDE251
	.long L$set$1718
LASFDE251:
	.long	LASFDE251-EH_frame1
	.long	LFB2730-.
	.set L$set$1719,LFE2730-LFB2730
	.long L$set$1719
	.byte	0x4
	.long	0x0
	.byte	0x4
	.set L$set$1720,LCFI393-LFB2730
	.long L$set$1720
	.byte	0xe
	.byte	0x8
	.byte	0x84
	.byte	0x2
	.byte	0x4
	.set L$set$1721,LCFI394-LCFI393
	.long L$set$1721
	.byte	0xd
	.byte	0x4
	.byte	0x4
	.set L$set$1722,LCFI396-LCFI394
	.long L$set$1722
	.byte	0x86
	.byte	0x3
	.align 2
LEFDE251:
.globl __ZNSt8_Rb_treeIPN2sf11ResourcePtrINS0_5ImageEEES4_St9_IdentityIS4_ESt4lessIS4_ESaIS4_EE8_M_eraseEPSt13_Rb_tree_nodeIS4_E.eh
	.weak_definition __ZNSt8_Rb_treeIPN2sf11ResourcePtrINS0_5ImageEEES4_St9_IdentityIS4_ESt4lessIS4_ESaIS4_EE8_M_eraseEPSt13_Rb_tree_nodeIS4_E.eh
__ZNSt8_Rb_treeIPN2sf11ResourcePtrINS0_5ImageEEES4_St9_IdentityIS4_ESt4lessIS4_ESaIS4_EE8_M_eraseEPSt13_Rb_tree_nodeIS4_E.eh:
LSFDE253:
	.set L$set$1723,LEFDE253-LASFDE253
	.long L$set$1723
LASFDE253:
	.long	LASFDE253-EH_frame1
	.long	LFB2726-.
	.set L$set$1724,LFE2726-LFB2726
	.long L$set$1724
	.byte	0x4
	.long	0x0
	.byte	0x4
	.set L$set$1725,LCFI397-LFB2726
	.long L$set$1725
	.byte	0xe
	.byte	0x8
	.byte	0x84
	.byte	0x2
	.byte	0x4
	.set L$set$1726,LCFI398-LCFI397
	.long L$set$1726
	.byte	0xd
	.byte	0x4
	.align 2
LEFDE253:
.globl __ZNSt8_Rb_treeIPN2sf11ResourcePtrINS0_5ImageEEES4_St9_IdentityIS4_ESt4lessIS4_ESaIS4_EE5clearEv.eh
	.private_extern __ZNSt8_Rb_treeIPN2sf11ResourcePtrINS0_5ImageEEES4_St9_IdentityIS4_ESt4lessIS4_ESaIS4_EE5clearEv.eh
	.weak_definition __ZNSt8_Rb_treeIPN2sf11ResourcePtrINS0_5ImageEEES4_St9_IdentityIS4_ESt4lessIS4_ESaIS4_EE5clearEv.eh
__ZNSt8_Rb_treeIPN2sf11ResourcePtrINS0_5ImageEEES4_St9_IdentityIS4_ESt4lessIS4_ESaIS4_EE5clearEv.eh:
LSFDE255:
	.set L$set$1727,LEFDE255-LASFDE255
	.long L$set$1727
LASFDE255:
	.long	LASFDE255-EH_frame1
	.long	LFB2673-.
	.set L$set$1728,LFE2673-LFB2673
	.long L$set$1728
	.byte	0x4
	.long	0x0
	.byte	0x4
	.set L$set$1729,LCFI400-LFB2673
	.long L$set$1729
	.byte	0xe
	.byte	0x8
	.byte	0x84
	.byte	0x2
	.byte	0x4
	.set L$set$1730,LCFI401-LCFI400
	.long L$set$1730
	.byte	0xd
	.byte	0x4
	.byte	0x4
	.set L$set$1731,LCFI403-LCFI401
	.long L$set$1731
	.byte	0x86
	.byte	0x3
	.align 2
LEFDE255:
.globl __ZN9__gnu_cxx13new_allocatorIcE10deallocateEPcm.eh
	.private_extern __ZN9__gnu_cxx13new_allocatorIcE10deallocateEPcm.eh
	.weak_definition __ZN9__gnu_cxx13new_allocatorIcE10deallocateEPcm.eh
__ZN9__gnu_cxx13new_allocatorIcE10deallocateEPcm.eh:
LSFDE257:
	.set L$set$1732,LEFDE257-LASFDE257
	.long L$set$1732
LASFDE257:
	.long	LASFDE257-EH_frame1
	.long	LFB2626-.
	.set L$set$1733,LFE2626-LFB2626
	.long L$set$1733
	.byte	0x4
	.long	0x0
	.byte	0x4
	.set L$set$1734,LCFI404-LFB2626
	.long L$set$1734
	.byte	0xe
	.byte	0x8
	.byte	0x84
	.byte	0x2
	.byte	0x4
	.set L$set$1735,LCFI405-LCFI404
	.long L$set$1735
	.byte	0xd
	.byte	0x4
	.align 2
LEFDE257:
.globl __ZNSbIjSt11char_traitsIjESaIjEE4_Rep10_M_destroyERKS1_.eh
	.weak_definition __ZNSbIjSt11char_traitsIjESaIjEE4_Rep10_M_destroyERKS1_.eh
__ZNSbIjSt11char_traitsIjESaIjEE4_Rep10_M_destroyERKS1_.eh:
LSFDE259:
	.set L$set$1736,LEFDE259-LASFDE259
	.long L$set$1736
LASFDE259:
	.long	LASFDE259-EH_frame1
	.long	LFB2595-.
	.set L$set$1737,LFE2595-LFB2595
	.long L$set$1737
	.byte	0x4
	.long	0x0
	.byte	0x4
	.set L$set$1738,LCFI407-LFB2595
	.long L$set$1738
	.byte	0xe
	.byte	0x8
	.byte	0x84
	.byte	0x2
	.byte	0x4
	.set L$set$1739,LCFI408-LCFI407
	.long L$set$1739
	.byte	0xd
	.byte	0x4
	.byte	0x4
	.set L$set$1740,LCFI410-LCFI408
	.long L$set$1740
	.byte	0x86
	.byte	0x3
	.align 2
LEFDE259:
.globl __ZN9__gnu_cxx13new_allocatorISt13_Rb_tree_nodeIPN2sf11ResourcePtrINS2_4FontEEEEE10deallocateEPS7_m.eh
	.private_extern __ZN9__gnu_cxx13new_allocatorISt13_Rb_tree_nodeIPN2sf11ResourcePtrINS2_4FontEEEEE10deallocateEPS7_m.eh
	.weak_definition __ZN9__gnu_cxx13new_allocatorISt13_Rb_tree_nodeIPN2sf11ResourcePtrINS2_4FontEEEEE10deallocateEPS7_m.eh
__ZN9__gnu_cxx13new_allocatorISt13_Rb_tree_nodeIPN2sf11ResourcePtrINS2_4FontEEEEE10deallocateEPS7_m.eh:
LSFDE261:
	.set L$set$1741,LEFDE261-LASFDE261
	.long L$set$1741
LASFDE261:
	.long	LASFDE261-EH_frame1
	.long	LFB2687-.
	.set L$set$1742,LFE2687-LFB2687
	.long L$set$1742
	.byte	0x4
	.long	0x0
	.byte	0x4
	.set L$set$1743,LCFI411-LFB2687
	.long L$set$1743
	.byte	0xe
	.byte	0x8
	.byte	0x84
	.byte	0x2
	.byte	0x4
	.set L$set$1744,LCFI412-LCFI411
	.long L$set$1744
	.byte	0xd
	.byte	0x4
	.align 2
LEFDE261:
.globl __ZNSt8_Rb_treeIPN2sf11ResourcePtrINS0_4FontEEES4_St9_IdentityIS4_ESt4lessIS4_ESaIS4_EE11_M_put_nodeEPSt13_Rb_tree_nodeIS4_E.eh
	.private_extern __ZNSt8_Rb_treeIPN2sf11ResourcePtrINS0_4FontEEES4_St9_IdentityIS4_ESt4lessIS4_ESaIS4_EE11_M_put_nodeEPSt13_Rb_tree_nodeIS4_E.eh
	.weak_definition __ZNSt8_Rb_treeIPN2sf11ResourcePtrINS0_4FontEEES4_St9_IdentityIS4_ESt4lessIS4_ESaIS4_EE11_M_put_nodeEPSt13_Rb_tree_nodeIS4_E.eh
__ZNSt8_Rb_treeIPN2sf11ResourcePtrINS0_4FontEEES4_St9_IdentityIS4_ESt4lessIS4_ESaIS4_EE11_M_put_nodeEPSt13_Rb_tree_nodeIS4_E.eh:
LSFDE263:
	.set L$set$1745,LEFDE263-LASFDE263
	.long L$set$1745
LASFDE263:
	.long	LASFDE263-EH_frame1
	.long	LFB2649-.
	.set L$set$1746,LFE2649-LFB2649
	.long L$set$1746
	.byte	0x4
	.long	0x0
	.byte	0x4
	.set L$set$1747,LCFI414-LFB2649
	.long L$set$1747
	.byte	0xe
	.byte	0x8
	.byte	0x84
	.byte	0x2
	.byte	0x4
	.set L$set$1748,LCFI415-LCFI414
	.long L$set$1748
	.byte	0xd
	.byte	0x4
	.align 2
LEFDE263:
.globl __ZNSt8_Rb_treeIPN2sf11ResourcePtrINS0_4FontEEES4_St9_IdentityIS4_ESt4lessIS4_ESaIS4_EE15_M_destroy_nodeEPSt13_Rb_tree_nodeIS4_E.eh
	.private_extern __ZNSt8_Rb_treeIPN2sf11ResourcePtrINS0_4FontEEES4_St9_IdentityIS4_ESt4lessIS4_ESaIS4_EE15_M_destroy_nodeEPSt13_Rb_tree_nodeIS4_E.eh
	.weak_definition __ZNSt8_Rb_treeIPN2sf11ResourcePtrINS0_4FontEEES4_St9_IdentityIS4_ESt4lessIS4_ESaIS4_EE15_M_destroy_nodeEPSt13_Rb_tree_nodeIS4_E.eh
__ZNSt8_Rb_treeIPN2sf11ResourcePtrINS0_4FontEEES4_St9_IdentityIS4_ESt4lessIS4_ESaIS4_EE15_M_destroy_nodeEPSt13_Rb_tree_nodeIS4_E.eh:
LSFDE265:
	.set L$set$1749,LEFDE265-LASFDE265
	.long L$set$1749
LASFDE265:
	.long	LASFDE265-EH_frame1
	.long	LFB2610-.
	.set L$set$1750,LFE2610-LFB2610
	.long L$set$1750
	.byte	0x4
	.long	0x0
	.byte	0x4
	.set L$set$1751,LCFI417-LFB2610
	.long L$set$1751
	.byte	0xe
	.byte	0x8
	.byte	0x84
	.byte	0x2
	.byte	0x4
	.set L$set$1752,LCFI418-LCFI417
	.long L$set$1752
	.byte	0xd
	.byte	0x4
	.byte	0x4
	.set L$set$1753,LCFI420-LCFI418
	.long L$set$1753
	.byte	0x86
	.byte	0x3
	.align 2
LEFDE265:
.globl __ZNSt8_Rb_treeIPN2sf11ResourcePtrINS0_4FontEEES4_St9_IdentityIS4_ESt4lessIS4_ESaIS4_EE8_M_eraseEPSt13_Rb_tree_nodeIS4_E.eh
	.weak_definition __ZNSt8_Rb_treeIPN2sf11ResourcePtrINS0_4FontEEES4_St9_IdentityIS4_ESt4lessIS4_ESaIS4_EE8_M_eraseEPSt13_Rb_tree_nodeIS4_E.eh
__ZNSt8_Rb_treeIPN2sf11ResourcePtrINS0_4FontEEES4_St9_IdentityIS4_ESt4lessIS4_ESaIS4_EE8_M_eraseEPSt13_Rb_tree_nodeIS4_E.eh:
LSFDE267:
	.set L$set$1754,LEFDE267-LASFDE267
	.long L$set$1754
LASFDE267:
	.long	LASFDE267-EH_frame1
	.long	LFB2577-.
	.set L$set$1755,LFE2577-LFB2577
	.long L$set$1755
	.byte	0x4
	.long	0x0
	.byte	0x4
	.set L$set$1756,LCFI421-LFB2577
	.long L$set$1756
	.byte	0xe
	.byte	0x8
	.byte	0x84
	.byte	0x2
	.byte	0x4
	.set L$set$1757,LCFI422-LCFI421
	.long L$set$1757
	.byte	0xd
	.byte	0x4
	.align 2
LEFDE267:
.globl __ZNSt8_Rb_treeIPN2sf11ResourcePtrINS0_4FontEEES4_St9_IdentityIS4_ESt4lessIS4_ESaIS4_EE5clearEv.eh
	.private_extern __ZNSt8_Rb_treeIPN2sf11ResourcePtrINS0_4FontEEES4_St9_IdentityIS4_ESt4lessIS4_ESaIS4_EE5clearEv.eh
	.weak_definition __ZNSt8_Rb_treeIPN2sf11ResourcePtrINS0_4FontEEES4_St9_IdentityIS4_ESt4lessIS4_ESaIS4_EE5clearEv.eh
__ZNSt8_Rb_treeIPN2sf11ResourcePtrINS0_4FontEEES4_St9_IdentityIS4_ESt4lessIS4_ESaIS4_EE5clearEv.eh:
LSFDE269:
	.set L$set$1758,LEFDE269-LASFDE269
	.long L$set$1758
LASFDE269:
	.long	LASFDE269-EH_frame1
	.long	LFB2702-.
	.set L$set$1759,LFE2702-LFB2702
	.long L$set$1759
	.byte	0x4
	.long	0x0
	.byte	0x4
	.set L$set$1760,LCFI424-LFB2702
	.long L$set$1760
	.byte	0xe
	.byte	0x8
	.byte	0x84
	.byte	0x2
	.byte	0x4
	.set L$set$1761,LCFI425-LCFI424
	.long L$set$1761
	.byte	0xd
	.byte	0x4
	.byte	0x4
	.set L$set$1762,LCFI427-LCFI425
	.long L$set$1762
	.byte	0x86
	.byte	0x3
	.align 2
LEFDE269:
.globl __ZNSt8_Rb_treeIPN2sf11ResourcePtrINS0_4FontEEES4_St9_IdentityIS4_ESt4lessIS4_ESaIS4_EED1Ev.eh
	.private_extern __ZNSt8_Rb_treeIPN2sf11ResourcePtrINS0_4FontEEES4_St9_IdentityIS4_ESt4lessIS4_ESaIS4_EED1Ev.eh
	.weak_definition __ZNSt8_Rb_treeIPN2sf11ResourcePtrINS0_4FontEEES4_St9_IdentityIS4_ESt4lessIS4_ESaIS4_EED1Ev.eh
__ZNSt8_Rb_treeIPN2sf11ResourcePtrINS0_4FontEEES4_St9_IdentityIS4_ESt4lessIS4_ESaIS4_EED1Ev.eh:
LSFDE271:
	.set L$set$1763,LEFDE271-LASFDE271
	.long L$set$1763
LASFDE271:
	.long	LASFDE271-EH_frame1
	.long	LFB2535-.
	.set L$set$1764,LFE2535-LFB2535
	.long L$set$1764
	.byte	0x4
	.long	LLSDA2535-.
	.byte	0x4
	.set L$set$1765,LCFI428-LFB2535
	.long L$set$1765
	.byte	0xe
	.byte	0x8
	.byte	0x84
	.byte	0x2
	.byte	0x4
	.set L$set$1766,LCFI429-LCFI428
	.long L$set$1766
	.byte	0xd
	.byte	0x4
	.byte	0x4
	.set L$set$1767,LCFI431-LCFI429
	.long L$set$1767
	.byte	0x86
	.byte	0x3
	.align 2
LEFDE271:
.globl __ZNSt3setIPN2sf11ResourcePtrINS0_4FontEEESt4lessIS4_ESaIS4_EED1Ev.eh
	.private_extern __ZNSt3setIPN2sf11ResourcePtrINS0_4FontEEESt4lessIS4_ESaIS4_EED1Ev.eh
	.weak_definition __ZNSt3setIPN2sf11ResourcePtrINS0_4FontEEESt4lessIS4_ESaIS4_EED1Ev.eh
__ZNSt3setIPN2sf11ResourcePtrINS0_4FontEEESt4lessIS4_ESaIS4_EED1Ev.eh:
LSFDE273:
	.set L$set$1768,LEFDE273-LASFDE273
	.long L$set$1768
LASFDE273:
	.long	LASFDE273-EH_frame1
	.long	LFB2466-.
	.set L$set$1769,LFE2466-LFB2466
	.long L$set$1769
	.byte	0x4
	.long	0x0
	.byte	0x4
	.set L$set$1770,LCFI432-LFB2466
	.long L$set$1770
	.byte	0xe
	.byte	0x8
	.byte	0x84
	.byte	0x2
	.byte	0x4
	.set L$set$1771,LCFI433-LCFI432
	.long L$set$1771
	.byte	0xd
	.byte	0x4
	.align 2
LEFDE273:
.globl __ZN9__gnu_cxx13new_allocatorISt13_Rb_tree_nodeISt4pairIKjN2sf5GlyphEEEE10deallocateEPS7_m.eh
	.private_extern __ZN9__gnu_cxx13new_allocatorISt13_Rb_tree_nodeISt4pairIKjN2sf5GlyphEEEE10deallocateEPS7_m.eh
	.weak_definition __ZN9__gnu_cxx13new_allocatorISt13_Rb_tree_nodeISt4pairIKjN2sf5GlyphEEEE10deallocateEPS7_m.eh
__ZN9__gnu_cxx13new_allocatorISt13_Rb_tree_nodeISt4pairIKjN2sf5GlyphEEEE10deallocateEPS7_m.eh:
LSFDE275:
	.set L$set$1772,LEFDE275-LASFDE275
	.long L$set$1772
LASFDE275:
	.long	LASFDE275-EH_frame1
	.long	LFB2660-.
	.set L$set$1773,LFE2660-LFB2660
	.long L$set$1773
	.byte	0x4
	.long	0x0
	.byte	0x4
	.set L$set$1774,LCFI435-LFB2660
	.long L$set$1774
	.byte	0xe
	.byte	0x8
	.byte	0x84
	.byte	0x2
	.byte	0x4
	.set L$set$1775,LCFI436-LCFI435
	.long L$set$1775
	.byte	0xd
	.byte	0x4
	.align 2
LEFDE275:
.globl __ZNSt8_Rb_treeIjSt4pairIKjN2sf5GlyphEESt10_Select1stIS4_ESt4lessIjESaIS4_EE11_M_put_nodeEPSt13_Rb_tree_nodeIS4_E.eh
	.private_extern __ZNSt8_Rb_treeIjSt4pairIKjN2sf5GlyphEESt10_Select1stIS4_ESt4lessIjESaIS4_EE11_M_put_nodeEPSt13_Rb_tree_nodeIS4_E.eh
	.weak_definition __ZNSt8_Rb_treeIjSt4pairIKjN2sf5GlyphEESt10_Select1stIS4_ESt4lessIjESaIS4_EE11_M_put_nodeEPSt13_Rb_tree_nodeIS4_E.eh
__ZNSt8_Rb_treeIjSt4pairIKjN2sf5GlyphEESt10_Select1stIS4_ESt4lessIjESaIS4_EE11_M_put_nodeEPSt13_Rb_tree_nodeIS4_E.eh:
LSFDE277:
	.set L$set$1776,LEFDE277-LASFDE277
	.long L$set$1776
LASFDE277:
	.long	LASFDE277-EH_frame1
	.long	LFB2622-.
	.set L$set$1777,LFE2622-LFB2622
	.long L$set$1777
	.byte	0x4
	.long	0x0
	.byte	0x4
	.set L$set$1778,LCFI438-LFB2622
	.long L$set$1778
	.byte	0xe
	.byte	0x8
	.byte	0x84
	.byte	0x2
	.byte	0x4
	.set L$set$1779,LCFI439-LCFI438
	.long L$set$1779
	.byte	0xd
	.byte	0x4
	.align 2
LEFDE277:
.globl __ZNSt8_Rb_treeIjSt4pairIKjN2sf5GlyphEESt10_Select1stIS4_ESt4lessIjESaIS4_EE15_M_destroy_nodeEPSt13_Rb_tree_nodeIS4_E.eh
	.private_extern __ZNSt8_Rb_treeIjSt4pairIKjN2sf5GlyphEESt10_Select1stIS4_ESt4lessIjESaIS4_EE15_M_destroy_nodeEPSt13_Rb_tree_nodeIS4_E.eh
	.weak_definition __ZNSt8_Rb_treeIjSt4pairIKjN2sf5GlyphEESt10_Select1stIS4_ESt4lessIjESaIS4_EE15_M_destroy_nodeEPSt13_Rb_tree_nodeIS4_E.eh
__ZNSt8_Rb_treeIjSt4pairIKjN2sf5GlyphEESt10_Select1stIS4_ESt4lessIjESaIS4_EE15_M_destroy_nodeEPSt13_Rb_tree_nodeIS4_E.eh:
LSFDE279:
	.set L$set$1780,LEFDE279-LASFDE279
	.long L$set$1780
LASFDE279:
	.long	LASFDE279-EH_frame1
	.long	LFB2586-.
	.set L$set$1781,LFE2586-LFB2586
	.long L$set$1781
	.byte	0x4
	.long	0x0
	.byte	0x4
	.set L$set$1782,LCFI441-LFB2586
	.long L$set$1782
	.byte	0xe
	.byte	0x8
	.byte	0x84
	.byte	0x2
	.byte	0x4
	.set L$set$1783,LCFI442-LCFI441
	.long L$set$1783
	.byte	0xd
	.byte	0x4
	.byte	0x4
	.set L$set$1784,LCFI444-LCFI442
	.long L$set$1784
	.byte	0x86
	.byte	0x3
	.align 2
LEFDE279:
.globl __ZNSt8_Rb_treeIjSt4pairIKjN2sf5GlyphEESt10_Select1stIS4_ESt4lessIjESaIS4_EE8_M_eraseEPSt13_Rb_tree_nodeIS4_E.eh
	.weak_definition __ZNSt8_Rb_treeIjSt4pairIKjN2sf5GlyphEESt10_Select1stIS4_ESt4lessIjESaIS4_EE8_M_eraseEPSt13_Rb_tree_nodeIS4_E.eh
__ZNSt8_Rb_treeIjSt4pairIKjN2sf5GlyphEESt10_Select1stIS4_ESt4lessIjESaIS4_EE8_M_eraseEPSt13_Rb_tree_nodeIS4_E.eh:
LSFDE281:
	.set L$set$1785,LEFDE281-LASFDE281
	.long L$set$1785
LASFDE281:
	.long	LASFDE281-EH_frame1
	.long	LFB2545-.
	.set L$set$1786,LFE2545-LFB2545
	.long L$set$1786
	.byte	0x4
	.long	0x0
	.byte	0x4
	.set L$set$1787,LCFI445-LFB2545
	.long L$set$1787
	.byte	0xe
	.byte	0x8
	.byte	0x84
	.byte	0x2
	.byte	0x4
	.set L$set$1788,LCFI446-LCFI445
	.long L$set$1788
	.byte	0xd
	.byte	0x4
	.align 2
LEFDE281:
.globl __ZNSt8_Rb_treeIjSt4pairIKjN2sf5GlyphEESt10_Select1stIS4_ESt4lessIjESaIS4_EED1Ev.eh
	.private_extern __ZNSt8_Rb_treeIjSt4pairIKjN2sf5GlyphEESt10_Select1stIS4_ESt4lessIjESaIS4_EED1Ev.eh
	.weak_definition __ZNSt8_Rb_treeIjSt4pairIKjN2sf5GlyphEESt10_Select1stIS4_ESt4lessIjESaIS4_EED1Ev.eh
__ZNSt8_Rb_treeIjSt4pairIKjN2sf5GlyphEESt10_Select1stIS4_ESt4lessIjESaIS4_EED1Ev.eh:
LSFDE283:
	.set L$set$1789,LEFDE283-LASFDE283
	.long L$set$1789
LASFDE283:
	.long	LASFDE283-EH_frame1
	.long	LFB2474-.
	.set L$set$1790,LFE2474-LFB2474
	.long L$set$1790
	.byte	0x4
	.long	LLSDA2474-.
	.byte	0x4
	.set L$set$1791,LCFI448-LFB2474
	.long L$set$1791
	.byte	0xe
	.byte	0x8
	.byte	0x84
	.byte	0x2
	.byte	0x4
	.set L$set$1792,LCFI449-LCFI448
	.long L$set$1792
	.byte	0xd
	.byte	0x4
	.byte	0x4
	.set L$set$1793,LCFI451-LCFI449
	.long L$set$1793
	.byte	0x86
	.byte	0x3
	.align 2
LEFDE283:
.globl __ZNSt3mapIjN2sf5GlyphESt4lessIjESaISt4pairIKjS1_EEED1Ev.eh
	.private_extern __ZNSt3mapIjN2sf5GlyphESt4lessIjESaISt4pairIKjS1_EEED1Ev.eh
	.weak_definition __ZNSt3mapIjN2sf5GlyphESt4lessIjESaISt4pairIKjS1_EEED1Ev.eh
__ZNSt3mapIjN2sf5GlyphESt4lessIjESaISt4pairIKjS1_EEED1Ev.eh:
LSFDE285:
	.set L$set$1794,LEFDE285-LASFDE285
	.long L$set$1794
LASFDE285:
	.long	LASFDE285-EH_frame1
	.long	LFB2393-.
	.set L$set$1795,LFE2393-LFB2393
	.long L$set$1795
	.byte	0x4
	.long	0x0
	.byte	0x4
	.set L$set$1796,LCFI452-LFB2393
	.long L$set$1796
	.byte	0xe
	.byte	0x8
	.byte	0x84
	.byte	0x2
	.byte	0x4
	.set L$set$1797,LCFI453-LCFI452
	.long L$set$1797
	.byte	0xd
	.byte	0x4
	.align 2
LEFDE285:
.globl __ZNSbIjSt11char_traitsIjESaIjEE4_Rep10_M_disposeERKS1_.eh
	.private_extern __ZNSbIjSt11char_traitsIjESaIjEE4_Rep10_M_disposeERKS1_.eh
	.weak_definition __ZNSbIjSt11char_traitsIjESaIjEE4_Rep10_M_disposeERKS1_.eh
__ZNSbIjSt11char_traitsIjESaIjEE4_Rep10_M_disposeERKS1_.eh:
LSFDE291:
	.set L$set$1798,LEFDE291-LASFDE291
	.long L$set$1798
LASFDE291:
	.long	LASFDE291-EH_frame1
	.long	LFB2555-.
	.set L$set$1799,LFE2555-LFB2555
	.long L$set$1799
	.byte	0x4
	.long	0x0
	.byte	0x4
	.set L$set$1800,LCFI461-LFB2555
	.long L$set$1800
	.byte	0xe
	.byte	0x8
	.byte	0x84
	.byte	0x2
	.byte	0x4
	.set L$set$1801,LCFI462-LCFI461
	.long L$set$1801
	.byte	0xd
	.byte	0x4
	.align 2
LEFDE291:
.globl __ZNSbIjSt11char_traitsIjESaIjEED1Ev.eh
	.private_extern __ZNSbIjSt11char_traitsIjESaIjEED1Ev.eh
	.weak_definition __ZNSbIjSt11char_traitsIjESaIjEED1Ev.eh
__ZNSbIjSt11char_traitsIjESaIjEED1Ev.eh:
LSFDE293:
	.set L$set$1802,LEFDE293-LASFDE293
	.long L$set$1802
LASFDE293:
	.long	LASFDE293-EH_frame1
	.long	LFB2480-.
	.set L$set$1803,LFE2480-LFB2480
	.long L$set$1803
	.byte	0x4
	.long	0x0
	.byte	0x4
	.set L$set$1804,LCFI464-LFB2480
	.long L$set$1804
	.byte	0xe
	.byte	0x8
	.byte	0x84
	.byte	0x2
	.byte	0x4
	.set L$set$1805,LCFI465-LCFI464
	.long L$set$1805
	.byte	0xd
	.byte	0x4
	.align 2
LEFDE293:
.globl __ZN2sf7Unicode4TextD1Ev.eh
	.private_extern __ZN2sf7Unicode4TextD1Ev.eh
	.weak_definition __ZN2sf7Unicode4TextD1Ev.eh
__ZN2sf7Unicode4TextD1Ev.eh:
LSFDE295:
	.set L$set$1806,LEFDE295-LASFDE295
	.long L$set$1806
LASFDE295:
	.long	LASFDE295-EH_frame1
	.long	LFB2398-.
	.set L$set$1807,LFE2398-LFB2398
	.long L$set$1807
	.byte	0x4
	.long	0x0
	.byte	0x4
	.set L$set$1808,LCFI467-LFB2398
	.long L$set$1808
	.byte	0xe
	.byte	0x8
	.byte	0x84
	.byte	0x2
	.byte	0x4
	.set L$set$1809,LCFI468-LCFI467
	.long L$set$1809
	.byte	0xd
	.byte	0x4
	.align 2
LEFDE295:
___tcf_0.eh:
LSFDE297:
	.set L$set$1810,LEFDE297-LASFDE297
	.long L$set$1810
LASFDE297:
	.long	LASFDE297-EH_frame1
	.long	LFB2784-.
	.set L$set$1811,LFE2784-LFB2784
	.long L$set$1811
	.byte	0x4
	.long	0x0
	.byte	0x4
	.set L$set$1812,LCFI470-LFB2784
	.long L$set$1812
	.byte	0xe
	.byte	0x8
	.byte	0x84
	.byte	0x2
	.byte	0x4
	.set L$set$1813,LCFI471-LCFI470
	.long L$set$1813
	.byte	0xd
	.byte	0x4
	.byte	0x4
	.set L$set$1814,LCFI473-LCFI471
	.long L$set$1814
	.byte	0x83
	.byte	0x3
	.align 2
LEFDE297:
.globl __ZNSt11char_traitsIcE6lengthEPKc.eh
	.private_extern __ZNSt11char_traitsIcE6lengthEPKc.eh
	.weak_definition __ZNSt11char_traitsIcE6lengthEPKc.eh
__ZNSt11char_traitsIcE6lengthEPKc.eh:
LSFDE299:
	.set L$set$1815,LEFDE299-LASFDE299
	.long L$set$1815
LASFDE299:
	.long	LASFDE299-EH_frame1
	.long	LFB258-.
	.set L$set$1816,LFE258-LFB258
	.long L$set$1816
	.byte	0x4
	.long	0x0
	.byte	0x4
	.set L$set$1817,LCFI474-LFB258
	.long L$set$1817
	.byte	0xe
	.byte	0x8
	.byte	0x84
	.byte	0x2
	.byte	0x4
	.set L$set$1818,LCFI475-LCFI474
	.long L$set$1818
	.byte	0xd
	.byte	0x4
	.align 2
LEFDE299:
.globl __ZN6BPieceC1ERKS_.eh
	.private_extern __ZN6BPieceC1ERKS_.eh
	.weak_definition __ZN6BPieceC1ERKS_.eh
__ZN6BPieceC1ERKS_.eh:
LSFDE301:
	.set L$set$1819,LEFDE301-LASFDE301
	.long L$set$1819
LASFDE301:
	.long	LASFDE301-EH_frame1
	.long	LFB2345-.
	.set L$set$1820,LFE2345-LFB2345
	.long L$set$1820
	.byte	0x4
	.long	0x0
	.byte	0x4
	.set L$set$1821,LCFI477-LFB2345
	.long L$set$1821
	.byte	0xe
	.byte	0x8
	.byte	0x84
	.byte	0x2
	.byte	0x4
	.set L$set$1822,LCFI478-LCFI477
	.long L$set$1822
	.byte	0xd
	.byte	0x4
	.align 2
LEFDE301:
.globl __ZN4Game12getNextPieceEv.eh
	.private_extern __ZN4Game12getNextPieceEv.eh
	.weak_definition __ZN4Game12getNextPieceEv.eh
__ZN4Game12getNextPieceEv.eh:
LSFDE303:
	.set L$set$1823,LEFDE303-LASFDE303
	.long L$set$1823
LASFDE303:
	.long	LASFDE303-EH_frame1
	.long	LFB2363-.
	.set L$set$1824,LFE2363-LFB2363
	.long L$set$1824
	.byte	0x4
	.long	0x0
	.byte	0x4
	.set L$set$1825,LCFI480-LFB2363
	.long L$set$1825
	.byte	0xe
	.byte	0x8
	.byte	0x84
	.byte	0x2
	.byte	0x4
	.set L$set$1826,LCFI481-LCFI480
	.long L$set$1826
	.byte	0xd
	.byte	0x4
	.byte	0x4
	.set L$set$1827,LCFI483-LCFI481
	.long L$set$1827
	.byte	0x86
	.byte	0x3
	.align 2
LEFDE303:
.globl __ZN4Game12getHoldPieceEv.eh
	.private_extern __ZN4Game12getHoldPieceEv.eh
	.weak_definition __ZN4Game12getHoldPieceEv.eh
__ZN4Game12getHoldPieceEv.eh:
LSFDE305:
	.set L$set$1828,LEFDE305-LASFDE305
	.long L$set$1828
LASFDE305:
	.long	LASFDE305-EH_frame1
	.long	LFB2365-.
	.set L$set$1829,LFE2365-LFB2365
	.long L$set$1829
	.byte	0x4
	.long	0x0
	.byte	0x4
	.set L$set$1830,LCFI484-LFB2365
	.long L$set$1830
	.byte	0xe
	.byte	0x8
	.byte	0x84
	.byte	0x2
	.byte	0x4
	.set L$set$1831,LCFI485-LCFI484
	.long L$set$1831
	.byte	0xd
	.byte	0x4
	.byte	0x4
	.set L$set$1832,LCFI487-LCFI485
	.long L$set$1832
	.byte	0x86
	.byte	0x3
	.align 2
LEFDE305:
.globl __ZN4Game19getCurrentGamePieceEv.eh
	.private_extern __ZN4Game19getCurrentGamePieceEv.eh
	.weak_definition __ZN4Game19getCurrentGamePieceEv.eh
__ZN4Game19getCurrentGamePieceEv.eh:
LSFDE307:
	.set L$set$1833,LEFDE307-LASFDE307
	.long L$set$1833
LASFDE307:
	.long	LASFDE307-EH_frame1
	.long	LFB2361-.
	.set L$set$1834,LFE2361-LFB2361
	.long L$set$1834
	.byte	0x4
	.long	0x0
	.byte	0x4
	.set L$set$1835,LCFI488-LFB2361
	.long L$set$1835
	.byte	0xe
	.byte	0x8
	.byte	0x84
	.byte	0x2
	.byte	0x4
	.set L$set$1836,LCFI489-LCFI488
	.long L$set$1836
	.byte	0xd
	.byte	0x4
	.byte	0x4
	.set L$set$1837,LCFI491-LCFI489
	.long L$set$1837
	.byte	0x86
	.byte	0x3
	.align 2
LEFDE307:
.globl __ZNSt17_Rb_tree_iteratorIPN2sf11ResourcePtrINS0_5ImageEEEEppEi.eh
	.private_extern __ZNSt17_Rb_tree_iteratorIPN2sf11ResourcePtrINS0_5ImageEEEEppEi.eh
	.weak_definition __ZNSt17_Rb_tree_iteratorIPN2sf11ResourcePtrINS0_5ImageEEEEppEi.eh
__ZNSt17_Rb_tree_iteratorIPN2sf11ResourcePtrINS0_5ImageEEEEppEi.eh:
LSFDE309:
	.set L$set$1838,LEFDE309-LASFDE309
	.long L$set$1838
LASFDE309:
	.long	LASFDE309-EH_frame1
	.long	LFB2675-.
	.set L$set$1839,LFE2675-LFB2675
	.long L$set$1839
	.byte	0x4
	.long	0x0
	.byte	0x4
	.set L$set$1840,LCFI492-LFB2675
	.long L$set$1840
	.byte	0xe
	.byte	0x8
	.byte	0x84
	.byte	0x2
	.byte	0x4
	.set L$set$1841,LCFI493-LCFI492
	.long L$set$1841
	.byte	0xd
	.byte	0x4
	.align 2
LEFDE309:
.globl __ZNSt17_Rb_tree_iteratorIPN2sf11ResourcePtrINS0_4FontEEEEppEi.eh
	.private_extern __ZNSt17_Rb_tree_iteratorIPN2sf11ResourcePtrINS0_4FontEEEEppEi.eh
	.weak_definition __ZNSt17_Rb_tree_iteratorIPN2sf11ResourcePtrINS0_4FontEEEEppEi.eh
__ZNSt17_Rb_tree_iteratorIPN2sf11ResourcePtrINS0_4FontEEEEppEi.eh:
LSFDE311:
	.set L$set$1842,LEFDE311-LASFDE311
	.long L$set$1842
LASFDE311:
	.long	LASFDE311-EH_frame1
	.long	LFB2704-.
	.set L$set$1843,LFE2704-LFB2704
	.long L$set$1843
	.byte	0x4
	.long	0x0
	.byte	0x4
	.set L$set$1844,LCFI495-LFB2704
	.long L$set$1844
	.byte	0xe
	.byte	0x8
	.byte	0x84
	.byte	0x2
	.byte	0x4
	.set L$set$1845,LCFI496-LCFI495
	.long L$set$1845
	.byte	0xd
	.byte	0x4
	.align 2
LEFDE311:
.globl __ZNSt8_Rb_treeIPN2sf11ResourcePtrINS0_5ImageEEES4_St9_IdentityIS4_ESt4lessIS4_ESaIS4_EE5eraseESt17_Rb_tree_iteratorIS4_E.eh
	.private_extern __ZNSt8_Rb_treeIPN2sf11ResourcePtrINS0_5ImageEEES4_St9_IdentityIS4_ESt4lessIS4_ESaIS4_EE5eraseESt17_Rb_tree_iteratorIS4_E.eh
	.weak_definition __ZNSt8_Rb_treeIPN2sf11ResourcePtrINS0_5ImageEEES4_St9_IdentityIS4_ESt4lessIS4_ESaIS4_EE5eraseESt17_Rb_tree_iteratorIS4_E.eh
__ZNSt8_Rb_treeIPN2sf11ResourcePtrINS0_5ImageEEES4_St9_IdentityIS4_ESt4lessIS4_ESaIS4_EE5eraseESt17_Rb_tree_iteratorIS4_E.eh:
LSFDE313:
	.set L$set$1846,LEFDE313-LASFDE313
	.long L$set$1846
LASFDE313:
	.long	LASFDE313-EH_frame1
	.long	LFB2676-.
	.set L$set$1847,LFE2676-LFB2676
	.long L$set$1847
	.byte	0x4
	.long	0x0
	.byte	0x4
	.set L$set$1848,LCFI498-LFB2676
	.long L$set$1848
	.byte	0xe
	.byte	0x8
	.byte	0x84
	.byte	0x2
	.byte	0x4
	.set L$set$1849,LCFI499-LCFI498
	.long L$set$1849
	.byte	0xd
	.byte	0x4
	.align 2
LEFDE313:
.globl __ZNSt8_Rb_treeIPN2sf11ResourcePtrINS0_5ImageEEES4_St9_IdentityIS4_ESt4lessIS4_ESaIS4_EE5eraseESt17_Rb_tree_iteratorIS4_ESC_.eh
	.weak_definition __ZNSt8_Rb_treeIPN2sf11ResourcePtrINS0_5ImageEEES4_St9_IdentityIS4_ESt4lessIS4_ESaIS4_EE5eraseESt17_Rb_tree_iteratorIS4_ESC_.eh
__ZNSt8_Rb_treeIPN2sf11ResourcePtrINS0_5ImageEEES4_St9_IdentityIS4_ESt4lessIS4_ESaIS4_EE5eraseESt17_Rb_tree_iteratorIS4_ESC_.eh:
LSFDE315:
	.set L$set$1850,LEFDE315-LASFDE315
	.long L$set$1850
LASFDE315:
	.long	LASFDE315-EH_frame1
	.long	LFB2643-.
	.set L$set$1851,LFE2643-LFB2643
	.long L$set$1851
	.byte	0x4
	.long	0x0
	.byte	0x4
	.set L$set$1852,LCFI501-LFB2643
	.long L$set$1852
	.byte	0xe
	.byte	0x8
	.byte	0x84
	.byte	0x2
	.byte	0x4
	.set L$set$1853,LCFI502-LCFI501
	.long L$set$1853
	.byte	0xd
	.byte	0x4
	.align 2
LEFDE315:
.globl __ZNSt8_Rb_treeIPN2sf11ResourcePtrINS0_5ImageEEES4_St9_IdentityIS4_ESt4lessIS4_ESaIS4_EE5eraseERKS4_.eh
	.weak_definition __ZNSt8_Rb_treeIPN2sf11ResourcePtrINS0_5ImageEEES4_St9_IdentityIS4_ESt4lessIS4_ESaIS4_EE5eraseERKS4_.eh
__ZNSt8_Rb_treeIPN2sf11ResourcePtrINS0_5ImageEEES4_St9_IdentityIS4_ESt4lessIS4_ESaIS4_EE5eraseERKS4_.eh:
LSFDE317:
	.set L$set$1854,LEFDE317-LASFDE317
	.long L$set$1854
LASFDE317:
	.long	LASFDE317-EH_frame1
	.long	LFB2604-.
	.set L$set$1855,LFE2604-LFB2604
	.long L$set$1855
	.byte	0x4
	.long	0x0
	.byte	0x4
	.set L$set$1856,LCFI504-LFB2604
	.long L$set$1856
	.byte	0xe
	.byte	0x8
	.byte	0x84
	.byte	0x2
	.byte	0x4
	.set L$set$1857,LCFI505-LCFI504
	.long L$set$1857
	.byte	0xd
	.byte	0x4
	.align 2
LEFDE317:
.globl __ZNSt3setIPN2sf11ResourcePtrINS0_5ImageEEESt4lessIS4_ESaIS4_EE5eraseERKS4_.eh
	.private_extern __ZNSt3setIPN2sf11ResourcePtrINS0_5ImageEEESt4lessIS4_ESaIS4_EE5eraseERKS4_.eh
	.weak_definition __ZNSt3setIPN2sf11ResourcePtrINS0_5ImageEEESt4lessIS4_ESaIS4_EE5eraseERKS4_.eh
__ZNSt3setIPN2sf11ResourcePtrINS0_5ImageEEESt4lessIS4_ESaIS4_EE5eraseERKS4_.eh:
LSFDE319:
	.set L$set$1858,LEFDE319-LASFDE319
	.long L$set$1858
LASFDE319:
	.long	LASFDE319-EH_frame1
	.long	LFB2573-.
	.set L$set$1859,LFE2573-LFB2573
	.long L$set$1859
	.byte	0x4
	.long	0x0
	.byte	0x4
	.set L$set$1860,LCFI507-LFB2573
	.long L$set$1860
	.byte	0xe
	.byte	0x8
	.byte	0x84
	.byte	0x2
	.byte	0x4
	.set L$set$1861,LCFI508-LCFI507
	.long L$set$1861
	.byte	0xd
	.byte	0x4
	.align 2
LEFDE319:
.globl __ZNK2sf8ResourceINS_5ImageEE10DisconnectERNS_11ResourcePtrIS1_EE.eh
	.weak_definition __ZNK2sf8ResourceINS_5ImageEE10DisconnectERNS_11ResourcePtrIS1_EE.eh
__ZNK2sf8ResourceINS_5ImageEE10DisconnectERNS_11ResourcePtrIS1_EE.eh:
LSFDE321:
	.set L$set$1862,LEFDE321-LASFDE321
	.long L$set$1862
LASFDE321:
	.long	LASFDE321-EH_frame1
	.long	LFB2529-.
	.set L$set$1863,LFE2529-LFB2529
	.long L$set$1863
	.byte	0x4
	.long	0x0
	.byte	0x4
	.set L$set$1864,LCFI510-LFB2529
	.long L$set$1864
	.byte	0xe
	.byte	0x8
	.byte	0x84
	.byte	0x2
	.byte	0x4
	.set L$set$1865,LCFI511-LCFI510
	.long L$set$1865
	.byte	0xd
	.byte	0x4
	.align 2
LEFDE321:
.globl __ZN2sf11ResourcePtrINS_5ImageEED1Ev.eh
	.weak_definition __ZN2sf11ResourcePtrINS_5ImageEED1Ev.eh
__ZN2sf11ResourcePtrINS_5ImageEED1Ev.eh:
LSFDE323:
	.set L$set$1866,LEFDE323-LASFDE323
	.long L$set$1866
LASFDE323:
	.long	LASFDE323-EH_frame1
	.long	LFB2462-.
	.set L$set$1867,LFE2462-LFB2462
	.long L$set$1867
	.byte	0x4
	.long	0x0
	.byte	0x4
	.set L$set$1868,LCFI513-LFB2462
	.long L$set$1868
	.byte	0xe
	.byte	0x8
	.byte	0x84
	.byte	0x2
	.byte	0x4
	.set L$set$1869,LCFI514-LCFI513
	.long L$set$1869
	.byte	0xd
	.byte	0x4
	.align 2
LEFDE323:
.globl __ZN2sf6SpriteD1Ev.eh
	.private_extern __ZN2sf6SpriteD1Ev.eh
	.weak_definition __ZN2sf6SpriteD1Ev.eh
__ZN2sf6SpriteD1Ev.eh:
LSFDE325:
	.set L$set$1870,LEFDE325-LASFDE325
	.long L$set$1870
LASFDE325:
	.long	LASFDE325-EH_frame1
	.long	LFB2387-.
	.set L$set$1871,LFE2387-LFB2387
	.long L$set$1871
	.byte	0x4
	.long	LLSDA2387-.
	.byte	0x4
	.set L$set$1872,LCFI516-LFB2387
	.long L$set$1872
	.byte	0xe
	.byte	0x8
	.byte	0x84
	.byte	0x2
	.byte	0x4
	.set L$set$1873,LCFI517-LCFI516
	.long L$set$1873
	.byte	0xd
	.byte	0x4
	.byte	0x4
	.set L$set$1874,LCFI520-LCFI517
	.long L$set$1874
	.byte	0x83
	.byte	0x4
	.byte	0x86
	.byte	0x3
	.align 2
LEFDE325:
.globl __ZN4Game13setBackgroundEv.eh
__ZN4Game13setBackgroundEv.eh:
LSFDE327:
	.set L$set$1875,LEFDE327-LASFDE327
	.long L$set$1875
LASFDE327:
	.long	LASFDE327-EH_frame1
	.long	LFB2384-.
	.set L$set$1876,LFE2384-LFB2384
	.long L$set$1876
	.byte	0x4
	.long	LLSDA2384-.
	.byte	0x4
	.set L$set$1877,LCFI521-LFB2384
	.long L$set$1877
	.byte	0xe
	.byte	0x8
	.byte	0x84
	.byte	0x2
	.byte	0x4
	.set L$set$1878,LCFI522-LCFI521
	.long L$set$1878
	.byte	0xd
	.byte	0x4
	.byte	0x4
	.set L$set$1879,LCFI525-LCFI522
	.long L$set$1879
	.byte	0x83
	.byte	0x4
	.byte	0x86
	.byte	0x3
	.align 2
LEFDE327:
.globl __ZNSt8_Rb_treeIPN2sf11ResourcePtrINS0_4FontEEES4_St9_IdentityIS4_ESt4lessIS4_ESaIS4_EE5eraseESt17_Rb_tree_iteratorIS4_E.eh
	.private_extern __ZNSt8_Rb_treeIPN2sf11ResourcePtrINS0_4FontEEES4_St9_IdentityIS4_ESt4lessIS4_ESaIS4_EE5eraseESt17_Rb_tree_iteratorIS4_E.eh
	.weak_definition __ZNSt8_Rb_treeIPN2sf11ResourcePtrINS0_4FontEEES4_St9_IdentityIS4_ESt4lessIS4_ESaIS4_EE5eraseESt17_Rb_tree_iteratorIS4_E.eh
__ZNSt8_Rb_treeIPN2sf11ResourcePtrINS0_4FontEEES4_St9_IdentityIS4_ESt4lessIS4_ESaIS4_EE5eraseESt17_Rb_tree_iteratorIS4_E.eh:
LSFDE329:
	.set L$set$1880,LEFDE329-LASFDE329
	.long L$set$1880
LASFDE329:
	.long	LASFDE329-EH_frame1
	.long	LFB2705-.
	.set L$set$1881,LFE2705-LFB2705
	.long L$set$1881
	.byte	0x4
	.long	0x0
	.byte	0x4
	.set L$set$1882,LCFI526-LFB2705
	.long L$set$1882
	.byte	0xe
	.byte	0x8
	.byte	0x84
	.byte	0x2
	.byte	0x4
	.set L$set$1883,LCFI527-LCFI526
	.long L$set$1883
	.byte	0xd
	.byte	0x4
	.align 2
LEFDE329:
.globl __ZNSt8_Rb_treeIPN2sf11ResourcePtrINS0_4FontEEES4_St9_IdentityIS4_ESt4lessIS4_ESaIS4_EE5eraseESt17_Rb_tree_iteratorIS4_ESC_.eh
	.weak_definition __ZNSt8_Rb_treeIPN2sf11ResourcePtrINS0_4FontEEES4_St9_IdentityIS4_ESt4lessIS4_ESaIS4_EE5eraseESt17_Rb_tree_iteratorIS4_ESC_.eh
__ZNSt8_Rb_treeIPN2sf11ResourcePtrINS0_4FontEEES4_St9_IdentityIS4_ESt4lessIS4_ESaIS4_EE5eraseESt17_Rb_tree_iteratorIS4_ESC_.eh:
LSFDE331:
	.set L$set$1884,LEFDE331-LASFDE331
	.long L$set$1884
LASFDE331:
	.long	LASFDE331-EH_frame1
	.long	LFB2663-.
	.set L$set$1885,LFE2663-LFB2663
	.long L$set$1885
	.byte	0x4
	.long	0x0
	.byte	0x4
	.set L$set$1886,LCFI529-LFB2663
	.long L$set$1886
	.byte	0xe
	.byte	0x8
	.byte	0x84
	.byte	0x2
	.byte	0x4
	.set L$set$1887,LCFI530-LCFI529
	.long L$set$1887
	.byte	0xd
	.byte	0x4
	.align 2
LEFDE331:
.globl __ZNSt8_Rb_treeIPN2sf11ResourcePtrINS0_4FontEEES4_St9_IdentityIS4_ESt4lessIS4_ESaIS4_EE5eraseERKS4_.eh
	.weak_definition __ZNSt8_Rb_treeIPN2sf11ResourcePtrINS0_4FontEEES4_St9_IdentityIS4_ESt4lessIS4_ESaIS4_EE5eraseERKS4_.eh
__ZNSt8_Rb_treeIPN2sf11ResourcePtrINS0_4FontEEES4_St9_IdentityIS4_ESt4lessIS4_ESaIS4_EE5eraseERKS4_.eh:
LSFDE333:
	.set L$set$1888,LEFDE333-LASFDE333
	.long L$set$1888
LASFDE333:
	.long	LASFDE333-EH_frame1
	.long	LFB2627-.
	.set L$set$1889,LFE2627-LFB2627
	.long L$set$1889
	.byte	0x4
	.long	0x0
	.byte	0x4
	.set L$set$1890,LCFI532-LFB2627
	.long L$set$1890
	.byte	0xe
	.byte	0x8
	.byte	0x84
	.byte	0x2
	.byte	0x4
	.set L$set$1891,LCFI533-LCFI532
	.long L$set$1891
	.byte	0xd
	.byte	0x4
	.align 2
LEFDE333:
.globl __ZNSt3setIPN2sf11ResourcePtrINS0_4FontEEESt4lessIS4_ESaIS4_EE5eraseERKS4_.eh
	.private_extern __ZNSt3setIPN2sf11ResourcePtrINS0_4FontEEESt4lessIS4_ESaIS4_EE5eraseERKS4_.eh
	.weak_definition __ZNSt3setIPN2sf11ResourcePtrINS0_4FontEEESt4lessIS4_ESaIS4_EE5eraseERKS4_.eh
__ZNSt3setIPN2sf11ResourcePtrINS0_4FontEEESt4lessIS4_ESaIS4_EE5eraseERKS4_.eh:
LSFDE335:
	.set L$set$1892,LEFDE335-LASFDE335
	.long L$set$1892
LASFDE335:
	.long	LASFDE335-EH_frame1
	.long	LFB2596-.
	.set L$set$1893,LFE2596-LFB2596
	.long L$set$1893
	.byte	0x4
	.long	0x0
	.byte	0x4
	.set L$set$1894,LCFI535-LFB2596
	.long L$set$1894
	.byte	0xe
	.byte	0x8
	.byte	0x84
	.byte	0x2
	.byte	0x4
	.set L$set$1895,LCFI536-LCFI535
	.long L$set$1895
	.byte	0xd
	.byte	0x4
	.align 2
LEFDE335:
.globl __ZNK2sf8ResourceINS_4FontEE10DisconnectERNS_11ResourcePtrIS1_EE.eh
	.weak_definition __ZNK2sf8ResourceINS_4FontEE10DisconnectERNS_11ResourcePtrIS1_EE.eh
__ZNK2sf8ResourceINS_4FontEE10DisconnectERNS_11ResourcePtrIS1_EE.eh:
LSFDE337:
	.set L$set$1896,LEFDE337-LASFDE337
	.long L$set$1896
LASFDE337:
	.long	LASFDE337-EH_frame1
	.long	LFB2556-.
	.set L$set$1897,LFE2556-LFB2556
	.long L$set$1897
	.byte	0x4
	.long	0x0
	.byte	0x4
	.set L$set$1898,LCFI538-LFB2556
	.long L$set$1898
	.byte	0xe
	.byte	0x8
	.byte	0x84
	.byte	0x2
	.byte	0x4
	.set L$set$1899,LCFI539-LCFI538
	.long L$set$1899
	.byte	0xd
	.byte	0x4
	.align 2
LEFDE337:
.globl __ZN2sf11ResourcePtrINS_4FontEED1Ev.eh
	.weak_definition __ZN2sf11ResourcePtrINS_4FontEED1Ev.eh
__ZN2sf11ResourcePtrINS_4FontEED1Ev.eh:
LSFDE339:
	.set L$set$1900,LEFDE339-LASFDE339
	.long L$set$1900
LASFDE339:
	.long	LASFDE339-EH_frame1
	.long	LFB2483-.
	.set L$set$1901,LFE2483-LFB2483
	.long L$set$1901
	.byte	0x4
	.long	0x0
	.byte	0x4
	.set L$set$1902,LCFI541-LFB2483
	.long L$set$1902
	.byte	0xe
	.byte	0x8
	.byte	0x84
	.byte	0x2
	.byte	0x4
	.set L$set$1903,LCFI542-LCFI541
	.long L$set$1903
	.byte	0xd
	.byte	0x4
	.align 2
LEFDE339:
.globl __ZN2sf6StringD1Ev.eh
	.private_extern __ZN2sf6StringD1Ev.eh
	.weak_definition __ZN2sf6StringD1Ev.eh
__ZN2sf6StringD1Ev.eh:
LSFDE341:
	.set L$set$1904,LEFDE341-LASFDE341
	.long L$set$1904
LASFDE341:
	.long	LASFDE341-EH_frame1
	.long	LFB2401-.
	.set L$set$1905,LFE2401-LFB2401
	.long L$set$1905
	.byte	0x4
	.long	LLSDA2401-.
	.byte	0x4
	.set L$set$1906,LCFI544-LFB2401
	.long L$set$1906
	.byte	0xe
	.byte	0x8
	.byte	0x84
	.byte	0x2
	.byte	0x4
	.set L$set$1907,LCFI545-LCFI544
	.long L$set$1907
	.byte	0xd
	.byte	0x4
	.byte	0x4
	.set L$set$1908,LCFI548-LCFI545
	.long L$set$1908
	.byte	0x83
	.byte	0x4
	.byte	0x86
	.byte	0x3
	.align 2
LEFDE341:
.globl __ZN4Game9showPieceE6BPieceii.eh
__ZN4Game9showPieceE6BPieceii.eh:
LSFDE343:
	.set L$set$1909,LEFDE343-LASFDE343
	.long L$set$1909
LASFDE343:
	.long	LASFDE343-EH_frame1
	.long	LFB2405-.
	.set L$set$1910,LFE2405-LFB2405
	.long L$set$1910
	.byte	0x4
	.long	LLSDA2405-.
	.byte	0x4
	.set L$set$1911,LCFI549-LFB2405
	.long L$set$1911
	.byte	0xe
	.byte	0x8
	.byte	0x84
	.byte	0x2
	.byte	0x4
	.set L$set$1912,LCFI550-LCFI549
	.long L$set$1912
	.byte	0xd
	.byte	0x4
	.byte	0x4
	.set L$set$1913,LCFI554-LCFI550
	.long L$set$1913
	.byte	0x83
	.byte	0x5
	.byte	0x86
	.byte	0x4
	.byte	0x87
	.byte	0x3
	.align 2
LEFDE343:
.globl __ZN4Game13showHoldPieceEv.eh
__ZN4Game13showHoldPieceEv.eh:
LSFDE345:
	.set L$set$1914,LEFDE345-LASFDE345
	.long L$set$1914
LASFDE345:
	.long	LASFDE345-EH_frame1
	.long	LFB2407-.
	.set L$set$1915,LFE2407-LFB2407
	.long L$set$1915
	.byte	0x4
	.long	0x0
	.byte	0x4
	.set L$set$1916,LCFI555-LFB2407
	.long L$set$1916
	.byte	0xe
	.byte	0x8
	.byte	0x84
	.byte	0x2
	.byte	0x4
	.set L$set$1917,LCFI556-LCFI555
	.long L$set$1917
	.byte	0xd
	.byte	0x4
	.align 2
LEFDE345:
.globl __ZN4Game13showNextPieceEv.eh
__ZN4Game13showNextPieceEv.eh:
LSFDE347:
	.set L$set$1918,LEFDE347-LASFDE347
	.long L$set$1918
LASFDE347:
	.long	LASFDE347-EH_frame1
	.long	LFB2406-.
	.set L$set$1919,LFE2406-LFB2406
	.long L$set$1919
	.byte	0x4
	.long	0x0
	.byte	0x4
	.set L$set$1920,LCFI558-LFB2406
	.long L$set$1920
	.byte	0xe
	.byte	0x8
	.byte	0x84
	.byte	0x2
	.byte	0x4
	.set L$set$1921,LCFI559-LCFI558
	.long L$set$1921
	.byte	0xd
	.byte	0x4
	.align 2
LEFDE347:
.globl __ZN4Game8toStringEi.eh
	.private_extern __ZN4Game8toStringEi.eh
	.weak_definition __ZN4Game8toStringEi.eh
__ZN4Game8toStringEi.eh:
LSFDE349:
	.set L$set$1922,LEFDE349-LASFDE349
	.long L$set$1922
LASFDE349:
	.long	LASFDE349-EH_frame1
	.long	LFB2350-.
	.set L$set$1923,LFE2350-LFB2350
	.long L$set$1923
	.byte	0x4
	.long	LLSDA2350-.
	.byte	0x4
	.set L$set$1924,LCFI561-LFB2350
	.long L$set$1924
	.byte	0xe
	.byte	0x8
	.byte	0x84
	.byte	0x2
	.byte	0x4
	.set L$set$1925,LCFI562-LCFI561
	.long L$set$1925
	.byte	0xd
	.byte	0x4
	.byte	0x4
	.set L$set$1926,LCFI564-LCFI562
	.long L$set$1926
	.byte	0x86
	.byte	0x3
	.align 2
LEFDE349:
.globl __ZStplIcSt11char_traitsIcESaIcEESbIT_T0_T1_EPKS3_RKS6_.eh
	.weak_definition __ZStplIcSt11char_traitsIcESaIcEESbIT_T0_T1_EPKS3_RKS6_.eh
__ZStplIcSt11char_traitsIcESaIcEESbIT_T0_T1_EPKS3_RKS6_.eh:
LSFDE351:
	.set L$set$1927,LEFDE351-LASFDE351
	.long L$set$1927
LASFDE351:
	.long	LASFDE351-EH_frame1
	.long	LFB2484-.
	.set L$set$1928,LFE2484-LFB2484
	.long L$set$1928
	.byte	0x4
	.long	LLSDA2484-.
	.byte	0x4
	.set L$set$1929,LCFI565-LFB2484
	.long L$set$1929
	.byte	0xe
	.byte	0x8
	.byte	0x84
	.byte	0x2
	.byte	0x4
	.set L$set$1930,LCFI566-LCFI565
	.long L$set$1930
	.byte	0xd
	.byte	0x4
	.byte	0x4
	.set L$set$1931,LCFI568-LCFI566
	.long L$set$1931
	.byte	0x86
	.byte	0x3
	.align 2
LEFDE351:
.globl __ZNSt23_Rb_tree_const_iteratorIPN2sf11ResourcePtrINS0_4FontEEEEppEv.eh
	.private_extern __ZNSt23_Rb_tree_const_iteratorIPN2sf11ResourcePtrINS0_4FontEEEEppEv.eh
	.weak_definition __ZNSt23_Rb_tree_const_iteratorIPN2sf11ResourcePtrINS0_4FontEEEEppEv.eh
__ZNSt23_Rb_tree_const_iteratorIPN2sf11ResourcePtrINS0_4FontEEEEppEv.eh:
LSFDE353:
	.set L$set$1932,LEFDE353-LASFDE353
	.long L$set$1932
LASFDE353:
	.long	LASFDE353-EH_frame1
	.long	LFB2539-.
	.set L$set$1933,LFE2539-LFB2539
	.long L$set$1933
	.byte	0x4
	.long	0x0
	.byte	0x4
	.set L$set$1934,LCFI569-LFB2539
	.long L$set$1934
	.byte	0xe
	.byte	0x8
	.byte	0x84
	.byte	0x2
	.byte	0x4
	.set L$set$1935,LCFI570-LCFI569
	.long L$set$1935
	.byte	0xd
	.byte	0x4
	.align 2
LEFDE353:
.globl __ZN2sf8ResourceINS_4FontEED2Ev.eh
	.weak_definition __ZN2sf8ResourceINS_4FontEED2Ev.eh
__ZN2sf8ResourceINS_4FontEED2Ev.eh:
LSFDE355:
	.set L$set$1936,LEFDE355-LASFDE355
	.long L$set$1936
LASFDE355:
	.long	LASFDE355-EH_frame1
	.long	LFB2467-.
	.set L$set$1937,LFE2467-LFB2467
	.long L$set$1937
	.byte	0x4
	.long	LLSDA2467-.
	.byte	0x4
	.set L$set$1938,LCFI572-LFB2467
	.long L$set$1938
	.byte	0xe
	.byte	0x8
	.byte	0x84
	.byte	0x2
	.byte	0x4
	.set L$set$1939,LCFI573-LCFI572
	.long L$set$1939
	.byte	0xd
	.byte	0x4
	.byte	0x4
	.set L$set$1940,LCFI575-LCFI573
	.long L$set$1940
	.byte	0x86
	.byte	0x3
	.align 2
LEFDE355:
.globl __ZN2sf4FontD1Ev.eh
	.private_extern __ZN2sf4FontD1Ev.eh
	.weak_definition __ZN2sf4FontD1Ev.eh
__ZN2sf4FontD1Ev.eh:
LSFDE357:
	.set L$set$1941,LEFDE357-LASFDE357
	.long L$set$1941
LASFDE357:
	.long	LASFDE357-EH_frame1
	.long	LFB2395-.
	.set L$set$1942,LFE2395-LFB2395
	.long L$set$1942
	.byte	0x4
	.long	LLSDA2395-.
	.byte	0x4
	.set L$set$1943,LCFI576-LFB2395
	.long L$set$1943
	.byte	0xe
	.byte	0x8
	.byte	0x84
	.byte	0x2
	.byte	0x4
	.set L$set$1944,LCFI577-LCFI576
	.long L$set$1944
	.byte	0xd
	.byte	0x4
	.byte	0x4
	.set L$set$1945,LCFI579-LCFI577
	.long L$set$1945
	.byte	0x86
	.byte	0x3
	.align 2
LEFDE357:
.globl __ZN4Game18showLinesCompletedEv.eh
__ZN4Game18showLinesCompletedEv.eh:
LSFDE359:
	.set L$set$1946,LEFDE359-LASFDE359
	.long L$set$1946
LASFDE359:
	.long	LASFDE359-EH_frame1
	.long	LFB2404-.
	.set L$set$1947,LFE2404-LFB2404
	.long L$set$1947
	.byte	0x4
	.long	LLSDA2404-.
	.byte	0x4
	.set L$set$1948,LCFI580-LFB2404
	.long L$set$1948
	.byte	0xe
	.byte	0x8
	.byte	0x84
	.byte	0x2
	.byte	0x4
	.set L$set$1949,LCFI581-LCFI580
	.long L$set$1949
	.byte	0xd
	.byte	0x4
	.byte	0x4
	.set L$set$1950,LCFI584-LCFI581
	.long L$set$1950
	.byte	0x83
	.byte	0x4
	.byte	0x86
	.byte	0x3
	.align 2
LEFDE359:
.globl __ZN4Game9showLevelEv.eh
__ZN4Game9showLevelEv.eh:
LSFDE361:
	.set L$set$1951,LEFDE361-LASFDE361
	.long L$set$1951
LASFDE361:
	.long	LASFDE361-EH_frame1
	.long	LFB2403-.
	.set L$set$1952,LFE2403-LFB2403
	.long L$set$1952
	.byte	0x4
	.long	LLSDA2403-.
	.byte	0x4
	.set L$set$1953,LCFI585-LFB2403
	.long L$set$1953
	.byte	0xe
	.byte	0x8
	.byte	0x84
	.byte	0x2
	.byte	0x4
	.set L$set$1954,LCFI586-LCFI585
	.long L$set$1954
	.byte	0xd
	.byte	0x4
	.byte	0x4
	.set L$set$1955,LCFI589-LCFI586
	.long L$set$1955
	.byte	0x83
	.byte	0x4
	.byte	0x86
	.byte	0x3
	.align 2
LEFDE361:
.globl __ZN4Game9showScoreEv.eh
__ZN4Game9showScoreEv.eh:
LSFDE363:
	.set L$set$1956,LEFDE363-LASFDE363
	.long L$set$1956
LASFDE363:
	.long	LASFDE363-EH_frame1
	.long	LFB2389-.
	.set L$set$1957,LFE2389-LFB2389
	.long L$set$1957
	.byte	0x4
	.long	LLSDA2389-.
	.byte	0x4
	.set L$set$1958,LCFI590-LFB2389
	.long L$set$1958
	.byte	0xe
	.byte	0x8
	.byte	0x84
	.byte	0x2
	.byte	0x4
	.set L$set$1959,LCFI591-LCFI590
	.long L$set$1959
	.byte	0xd
	.byte	0x4
	.byte	0x4
	.set L$set$1960,LCFI594-LCFI591
	.long L$set$1960
	.byte	0x83
	.byte	0x4
	.byte	0x86
	.byte	0x3
	.align 2
LEFDE363:
.globl __ZN4Game6renderEv.eh
__ZN4Game6renderEv.eh:
LSFDE365:
	.set L$set$1961,LEFDE365-LASFDE365
	.long L$set$1961
LASFDE365:
	.long	LASFDE365-EH_frame1
	.long	LFB2408-.
	.set L$set$1962,LFE2408-LFB2408
	.long L$set$1962
	.byte	0x4
	.long	LLSDA2408-.
	.byte	0x4
	.set L$set$1963,LCFI595-LFB2408
	.long L$set$1963
	.byte	0xe
	.byte	0x8
	.byte	0x84
	.byte	0x2
	.byte	0x4
	.set L$set$1964,LCFI596-LCFI595
	.long L$set$1964
	.byte	0xd
	.byte	0x4
	.byte	0x4
	.set L$set$1965,LCFI599-LCFI596
	.long L$set$1965
	.byte	0x83
	.byte	0x4
	.byte	0x86
	.byte	0x3
	.align 2
LEFDE365:
.globl __ZN4Game18enableCurrentPieceEv.eh
__ZN4Game18enableCurrentPieceEv.eh:
LSFDE367:
	.set L$set$1966,LEFDE367-LASFDE367
	.long L$set$1966
LASFDE367:
	.long	LASFDE367-EH_frame1
	.long	LFB2380-.
	.set L$set$1967,LFE2380-LFB2380
	.long L$set$1967
	.byte	0x4
	.long	0x0
	.byte	0x4
	.set L$set$1968,LCFI600-LFB2380
	.long L$set$1968
	.byte	0xe
	.byte	0x8
	.byte	0x84
	.byte	0x2
	.byte	0x4
	.set L$set$1969,LCFI601-LCFI600
	.long L$set$1969
	.byte	0xd
	.byte	0x4
	.align 2
LEFDE367:
.globl __ZN4Game16restoreHoldPieceEv.eh
__ZN4Game16restoreHoldPieceEv.eh:
LSFDE369:
	.set L$set$1970,LEFDE369-LASFDE369
	.long L$set$1970
LASFDE369:
	.long	LASFDE369-EH_frame1
	.long	LFB2382-.
	.set L$set$1971,LFE2382-LFB2382
	.long L$set$1971
	.byte	0x4
	.long	0x0
	.byte	0x4
	.set L$set$1972,LCFI603-LFB2382
	.long L$set$1972
	.byte	0xe
	.byte	0x8
	.byte	0x84
	.byte	0x2
	.byte	0x4
	.set L$set$1973,LCFI604-LCFI603
	.long L$set$1973
	.byte	0xd
	.byte	0x4
	.align 2
LEFDE369:
.globl __ZN4Game16holdCurrentPieceEv.eh
__ZN4Game16holdCurrentPieceEv.eh:
LSFDE371:
	.set L$set$1974,LEFDE371-LASFDE371
	.long L$set$1974
LASFDE371:
	.long	LASFDE371-EH_frame1
	.long	LFB2383-.
	.set L$set$1975,LFE2383-LFB2383
	.long L$set$1975
	.byte	0x4
	.long	0x0
	.byte	0x4
	.set L$set$1976,LCFI606-LFB2383
	.long L$set$1976
	.byte	0xe
	.byte	0x8
	.byte	0x84
	.byte	0x2
	.byte	0x4
	.set L$set$1977,LCFI607-LCFI606
	.long L$set$1977
	.byte	0xd
	.byte	0x4
	.align 2
LEFDE371:
.globl __ZN6BPieceC1E5Piece.eh
	.private_extern __ZN6BPieceC1E5Piece.eh
	.weak_definition __ZN6BPieceC1E5Piece.eh
__ZN6BPieceC1E5Piece.eh:
LSFDE373:
	.set L$set$1978,LEFDE373-LASFDE373
	.long L$set$1978
LASFDE373:
	.long	LASFDE373-EH_frame1
	.long	LFB2342-.
	.set L$set$1979,LFE2342-LFB2342
	.long L$set$1979
	.byte	0x4
	.long	0x0
	.byte	0x4
	.set L$set$1980,LCFI609-LFB2342
	.long L$set$1980
	.byte	0xe
	.byte	0x8
	.byte	0x84
	.byte	0x2
	.byte	0x4
	.set L$set$1981,LCFI610-LCFI609
	.long L$set$1981
	.byte	0xd
	.byte	0x4
	.align 2
LEFDE373:
.globl __ZN4Game14createNewPieceEv.eh
__ZN4Game14createNewPieceEv.eh:
LSFDE375:
	.set L$set$1982,LEFDE375-LASFDE375
	.long L$set$1982
LASFDE375:
	.long	LASFDE375-EH_frame1
	.long	LFB2379-.
	.set L$set$1983,LFE2379-LFB2379
	.long L$set$1983
	.byte	0x4
	.long	0x0
	.byte	0x4
	.set L$set$1984,LCFI612-LFB2379
	.long L$set$1984
	.byte	0xe
	.byte	0x8
	.byte	0x84
	.byte	0x2
	.byte	0x4
	.set L$set$1985,LCFI613-LCFI612
	.long L$set$1985
	.byte	0xd
	.byte	0x4
	.byte	0x4
	.set L$set$1986,LCFI615-LCFI613
	.long L$set$1986
	.byte	0x86
	.byte	0x3
	.align 2
LEFDE375:
.globl __ZN4Game4playEv.eh
__ZN4Game4playEv.eh:
LSFDE377:
	.set L$set$1987,LEFDE377-LASFDE377
	.long L$set$1987
LASFDE377:
	.long	LASFDE377-EH_frame1
	.long	LFB2409-.
	.set L$set$1988,LFE2409-LFB2409
	.long L$set$1988
	.byte	0x4
	.long	0x0
	.byte	0x4
	.set L$set$1989,LCFI616-LFB2409
	.long L$set$1989
	.byte	0xe
	.byte	0x8
	.byte	0x84
	.byte	0x2
	.byte	0x4
	.set L$set$1990,LCFI617-LCFI616
	.long L$set$1990
	.byte	0xd
	.byte	0x4
	.byte	0x4
	.set L$set$1991,LCFI619-LCFI617
	.long L$set$1991
	.byte	0x83
	.byte	0x3
	.align 2
LEFDE377:
	.text
Letext0:
	.section __DWARF,__debug_loc,regular,debug
Ldebug_loc0:
LLST0:
	.long	LFB10
	.long	LCFI0
	.word	0x2
	.byte	0x74
	.byte	0x4
	.long	LCFI0
	.long	LCFI1
	.word	0x2
	.byte	0x74
	.byte	0x8
	.long	LCFI1
	.long	LFE10
	.word	0x2
	.byte	0x75
	.byte	0x8
	.long	0x0
	.long	0x0
LLST1:
	.long	LFB285
	.long	LCFI3
	.word	0x2
	.byte	0x74
	.byte	0x4
	.long	LCFI3
	.long	LCFI4
	.word	0x2
	.byte	0x74
	.byte	0x8
	.long	LCFI4
	.long	LFE285
	.word	0x2
	.byte	0x75
	.byte	0x8
	.long	0x0
	.long	0x0
LLST2:
	.long	LFB952
	.long	LCFI6
	.word	0x2
	.byte	0x74
	.byte	0x4
	.long	LCFI6
	.long	LCFI7
	.word	0x2
	.byte	0x74
	.byte	0x8
	.long	LCFI7
	.long	LFE952
	.word	0x2
	.byte	0x75
	.byte	0x8
	.long	0x0
	.long	0x0
LLST3:
	.long	LFB2360
	.long	LCFI9
	.word	0x2
	.byte	0x74
	.byte	0x4
	.long	LCFI9
	.long	LCFI10
	.word	0x2
	.byte	0x74
	.byte	0x8
	.long	LCFI10
	.long	LFE2360
	.word	0x2
	.byte	0x75
	.byte	0x8
	.long	0x0
	.long	0x0
LLST4:
	.long	LFB2362
	.long	LCFI12
	.word	0x2
	.byte	0x74
	.byte	0x4
	.long	LCFI12
	.long	LCFI13
	.word	0x2
	.byte	0x74
	.byte	0x8
	.long	LCFI13
	.long	LFE2362
	.word	0x2
	.byte	0x75
	.byte	0x8
	.long	0x0
	.long	0x0
LLST5:
	.long	LFB2364
	.long	LCFI15
	.word	0x2
	.byte	0x74
	.byte	0x4
	.long	LCFI15
	.long	LCFI16
	.word	0x2
	.byte	0x74
	.byte	0x8
	.long	LCFI16
	.long	LFE2364
	.word	0x2
	.byte	0x75
	.byte	0x8
	.long	0x0
	.long	0x0
LLST6:
	.long	LFB2368
	.long	LCFI18
	.word	0x2
	.byte	0x74
	.byte	0x4
	.long	LCFI18
	.long	LCFI19
	.word	0x2
	.byte	0x74
	.byte	0x8
	.long	LCFI19
	.long	LFE2368
	.word	0x2
	.byte	0x75
	.byte	0x8
	.long	0x0
	.long	0x0
LLST7:
	.long	LFB2369
	.long	LCFI21
	.word	0x2
	.byte	0x74
	.byte	0x4
	.long	LCFI21
	.long	LCFI22
	.word	0x2
	.byte	0x74
	.byte	0x8
	.long	LCFI22
	.long	LFE2369
	.word	0x2
	.byte	0x75
	.byte	0x8
	.long	0x0
	.long	0x0
LLST8:
	.long	LFB2370
	.long	LCFI24
	.word	0x2
	.byte	0x74
	.byte	0x4
	.long	LCFI24
	.long	LCFI25
	.word	0x2
	.byte	0x74
	.byte	0x8
	.long	LCFI25
	.long	LFE2370
	.word	0x2
	.byte	0x75
	.byte	0x8
	.long	0x0
	.long	0x0
LLST9:
	.long	LFB2371
	.long	LCFI27
	.word	0x2
	.byte	0x74
	.byte	0x4
	.long	LCFI27
	.long	LCFI28
	.word	0x2
	.byte	0x74
	.byte	0x8
	.long	LCFI28
	.long	LFE2371
	.word	0x2
	.byte	0x75
	.byte	0x8
	.long	0x0
	.long	0x0
LLST10:
	.long	LFB2372
	.long	LCFI30
	.word	0x2
	.byte	0x74
	.byte	0x4
	.long	LCFI30
	.long	LCFI31
	.word	0x2
	.byte	0x74
	.byte	0x8
	.long	LCFI31
	.long	LFE2372
	.word	0x2
	.byte	0x75
	.byte	0x8
	.long	0x0
	.long	0x0
LLST11:
	.long	LFB2373
	.long	LCFI33
	.word	0x2
	.byte	0x74
	.byte	0x4
	.long	LCFI33
	.long	LCFI34
	.word	0x2
	.byte	0x74
	.byte	0x8
	.long	LCFI34
	.long	LFE2373
	.word	0x2
	.byte	0x75
	.byte	0x8
	.long	0x0
	.long	0x0
LLST12:
	.long	LFB2374
	.long	LCFI36
	.word	0x2
	.byte	0x74
	.byte	0x4
	.long	LCFI36
	.long	LCFI37
	.word	0x2
	.byte	0x74
	.byte	0x8
	.long	LCFI37
	.long	LFE2374
	.word	0x2
	.byte	0x75
	.byte	0x8
	.long	0x0
	.long	0x0
LLST13:
	.long	LFB2375
	.long	LCFI39
	.word	0x2
	.byte	0x74
	.byte	0x4
	.long	LCFI39
	.long	LCFI40
	.word	0x2
	.byte	0x74
	.byte	0x8
	.long	LCFI40
	.long	LFE2375
	.word	0x2
	.byte	0x75
	.byte	0x8
	.long	0x0
	.long	0x0
LLST14:
	.long	LFB2376
	.long	LCFI42
	.word	0x2
	.byte	0x74
	.byte	0x4
	.long	LCFI42
	.long	LCFI43
	.word	0x2
	.byte	0x74
	.byte	0x8
	.long	LCFI43
	.long	LFE2376
	.word	0x2
	.byte	0x75
	.byte	0x8
	.long	0x0
	.long	0x0
LLST15:
	.long	LFB2377
	.long	LCFI45
	.word	0x2
	.byte	0x74
	.byte	0x4
	.long	LCFI45
	.long	LCFI46
	.word	0x2
	.byte	0x74
	.byte	0x8
	.long	LCFI46
	.long	LFE2377
	.word	0x2
	.byte	0x75
	.byte	0x8
	.long	0x0
	.long	0x0
LLST16:
	.long	LFB2378
	.long	LCFI49
	.word	0x2
	.byte	0x74
	.byte	0x4
	.long	LCFI49
	.long	LCFI50
	.word	0x2
	.byte	0x74
	.byte	0x8
	.long	LCFI50
	.long	LFE2378
	.word	0x2
	.byte	0x75
	.byte	0x8
	.long	0x0
	.long	0x0
LLST17:
	.long	LFB2381
	.long	LCFI52
	.word	0x2
	.byte	0x74
	.byte	0x4
	.long	LCFI52
	.long	LCFI53
	.word	0x2
	.byte	0x74
	.byte	0x8
	.long	LCFI53
	.long	LFE2381
	.word	0x2
	.byte	0x75
	.byte	0x8
	.long	0x0
	.long	0x0
LLST18:
	.long	LFB2410
	.long	LCFI56
	.word	0x2
	.byte	0x74
	.byte	0x4
	.long	LCFI56
	.long	LCFI57
	.word	0x2
	.byte	0x74
	.byte	0x8
	.long	LCFI57
	.long	LFE2410
	.word	0x2
	.byte	0x75
	.byte	0x8
	.long	0x0
	.long	0x0
LLST19:
	.long	LFB1407
	.long	LCFI59
	.word	0x2
	.byte	0x74
	.byte	0x4
	.long	LCFI59
	.long	LCFI60
	.word	0x2
	.byte	0x74
	.byte	0x8
	.long	LCFI60
	.long	LFE1407
	.word	0x2
	.byte	0x75
	.byte	0x8
	.long	0x0
	.long	0x0
LLST20:
	.long	LFB2492
	.long	LCFI63
	.word	0x2
	.byte	0x74
	.byte	0x4
	.long	LCFI63
	.long	LCFI64
	.word	0x2
	.byte	0x74
	.byte	0x8
	.long	LCFI64
	.long	LFE2492
	.word	0x2
	.byte	0x75
	.byte	0x8
	.long	0x0
	.long	0x0
LLST21:
	.long	LFB2538
	.long	LCFI66
	.word	0x2
	.byte	0x74
	.byte	0x4
	.long	LCFI66
	.long	LCFI67
	.word	0x2
	.byte	0x74
	.byte	0x8
	.long	LCFI67
	.long	LFE2538
	.word	0x2
	.byte	0x75
	.byte	0x8
	.long	0x0
	.long	0x0
LLST22:
	.long	LFB2540
	.long	LCFI69
	.word	0x2
	.byte	0x74
	.byte	0x4
	.long	LCFI69
	.long	LCFI70
	.word	0x2
	.byte	0x74
	.byte	0x8
	.long	LCFI70
	.long	LFE2540
	.word	0x2
	.byte	0x75
	.byte	0x8
	.long	0x0
	.long	0x0
LLST23:
	.long	LFB2541
	.long	LCFI72
	.word	0x2
	.byte	0x74
	.byte	0x4
	.long	LCFI72
	.long	LCFI73
	.word	0x2
	.byte	0x74
	.byte	0x8
	.long	LCFI73
	.long	LFE2541
	.word	0x2
	.byte	0x75
	.byte	0x8
	.long	0x0
	.long	0x0
LLST24:
	.long	LFB2546
	.long	LCFI75
	.word	0x2
	.byte	0x74
	.byte	0x4
	.long	LCFI75
	.long	LCFI76
	.word	0x2
	.byte	0x74
	.byte	0x8
	.long	LCFI76
	.long	LFE2546
	.word	0x2
	.byte	0x75
	.byte	0x8
	.long	0x0
	.long	0x0
LLST25:
	.long	LFB2578
	.long	LCFI78
	.word	0x2
	.byte	0x74
	.byte	0x4
	.long	LCFI78
	.long	LCFI79
	.word	0x2
	.byte	0x74
	.byte	0x8
	.long	LCFI79
	.long	LFE2578
	.word	0x2
	.byte	0x75
	.byte	0x8
	.long	0x0
	.long	0x0
LLST26:
	.long	LFB2582
	.long	LCFI81
	.word	0x2
	.byte	0x74
	.byte	0x4
	.long	LCFI81
	.long	LCFI82
	.word	0x2
	.byte	0x74
	.byte	0x8
	.long	LCFI82
	.long	LFE2582
	.word	0x2
	.byte	0x75
	.byte	0x8
	.long	0x0
	.long	0x0
LLST27:
	.long	LFB2543
	.long	LCFI84
	.word	0x2
	.byte	0x74
	.byte	0x4
	.long	LCFI84
	.long	LCFI85
	.word	0x2
	.byte	0x74
	.byte	0x8
	.long	LCFI85
	.long	LFE2543
	.word	0x2
	.byte	0x75
	.byte	0x8
	.long	0x0
	.long	0x0
LLST28:
	.long	LFB2472
	.long	LCFI87
	.word	0x2
	.byte	0x74
	.byte	0x4
	.long	LCFI87
	.long	LCFI88
	.word	0x2
	.byte	0x74
	.byte	0x8
	.long	LCFI88
	.long	LFE2472
	.word	0x2
	.byte	0x75
	.byte	0x8
	.long	0x0
	.long	0x0
LLST29:
	.long	LFB2584
	.long	LCFI90
	.word	0x2
	.byte	0x74
	.byte	0x4
	.long	LCFI90
	.long	LCFI91
	.word	0x2
	.byte	0x74
	.byte	0x8
	.long	LCFI91
	.long	LFE2584
	.word	0x2
	.byte	0x75
	.byte	0x8
	.long	0x0
	.long	0x0
LLST30:
	.long	LFB2585
	.long	LCFI93
	.word	0x2
	.byte	0x74
	.byte	0x4
	.long	LCFI93
	.long	LCFI94
	.word	0x2
	.byte	0x74
	.byte	0x8
	.long	LCFI94
	.long	LFE2585
	.word	0x2
	.byte	0x75
	.byte	0x8
	.long	0x0
	.long	0x0
LLST31:
	.long	LFB2588
	.long	LCFI96
	.word	0x2
	.byte	0x74
	.byte	0x4
	.long	LCFI96
	.long	LCFI97
	.word	0x2
	.byte	0x74
	.byte	0x8
	.long	LCFI97
	.long	LFE2588
	.word	0x2
	.byte	0x75
	.byte	0x8
	.long	0x0
	.long	0x0
LLST32:
	.long	LFB2549
	.long	LCFI99
	.word	0x2
	.byte	0x74
	.byte	0x4
	.long	LCFI99
	.long	LCFI100
	.word	0x2
	.byte	0x74
	.byte	0x8
	.long	LCFI100
	.long	LFE2549
	.word	0x2
	.byte	0x75
	.byte	0x8
	.long	0x0
	.long	0x0
LLST33:
	.long	LFB2548
	.long	LCFI102
	.word	0x2
	.byte	0x74
	.byte	0x4
	.long	LCFI102
	.long	LCFI103
	.word	0x2
	.byte	0x74
	.byte	0x8
	.long	LCFI103
	.long	LFE2548
	.word	0x2
	.byte	0x75
	.byte	0x8
	.long	0x0
	.long	0x0
LLST34:
	.long	LFB2478
	.long	LCFI105
	.word	0x2
	.byte	0x74
	.byte	0x4
	.long	LCFI105
	.long	LCFI106
	.word	0x2
	.byte	0x74
	.byte	0x8
	.long	LCFI106
	.long	LFE2478
	.word	0x2
	.byte	0x75
	.byte	0x8
	.long	0x0
	.long	0x0
LLST35:
	.long	LFB2590
	.long	LCFI108
	.word	0x2
	.byte	0x74
	.byte	0x4
	.long	LCFI108
	.long	LCFI109
	.word	0x2
	.byte	0x74
	.byte	0x8
	.long	LCFI109
	.long	LFE2590
	.word	0x2
	.byte	0x75
	.byte	0x8
	.long	0x0
	.long	0x0
LLST36:
	.long	LFB2550
	.long	LCFI111
	.word	0x2
	.byte	0x74
	.byte	0x4
	.long	LCFI111
	.long	LCFI112
	.word	0x2
	.byte	0x74
	.byte	0x8
	.long	LCFI112
	.long	LFE2550
	.word	0x2
	.byte	0x75
	.byte	0x8
	.long	0x0
	.long	0x0
LLST37:
	.long	LFB2592
	.long	LCFI114
	.word	0x2
	.byte	0x74
	.byte	0x4
	.long	LCFI114
	.long	LCFI115
	.word	0x2
	.byte	0x74
	.byte	0x8
	.long	LCFI115
	.long	LFE2592
	.word	0x2
	.byte	0x75
	.byte	0x8
	.long	0x0
	.long	0x0
LLST38:
	.long	LFB2554
	.long	LCFI117
	.word	0x2
	.byte	0x74
	.byte	0x4
	.long	LCFI117
	.long	LCFI118
	.word	0x2
	.byte	0x74
	.byte	0x8
	.long	LCFI118
	.long	LFE2554
	.word	0x2
	.byte	0x75
	.byte	0x8
	.long	0x0
	.long	0x0
LLST39:
	.long	LFB2551
	.long	LCFI120
	.word	0x2
	.byte	0x74
	.byte	0x4
	.long	LCFI120
	.long	LCFI121
	.word	0x2
	.byte	0x74
	.byte	0x8
	.long	LCFI121
	.long	LFE2551
	.word	0x2
	.byte	0x75
	.byte	0x8
	.long	0x0
	.long	0x0
LLST40:
	.long	LFB2594
	.long	LCFI124
	.word	0x2
	.byte	0x74
	.byte	0x4
	.long	LCFI124
	.long	LCFI125
	.word	0x2
	.byte	0x74
	.byte	0x8
	.long	LCFI125
	.long	LFE2594
	.word	0x2
	.byte	0x75
	.byte	0x8
	.long	0x0
	.long	0x0
LLST41:
	.long	LFB2606
	.long	LCFI127
	.word	0x2
	.byte	0x74
	.byte	0x4
	.long	LCFI127
	.long	LCFI128
	.word	0x2
	.byte	0x74
	.byte	0x8
	.long	LCFI128
	.long	LFE2606
	.word	0x2
	.byte	0x75
	.byte	0x8
	.long	0x0
	.long	0x0
LLST42:
	.long	LFB2575
	.long	LCFI130
	.word	0x2
	.byte	0x74
	.byte	0x4
	.long	LCFI130
	.long	LCFI131
	.word	0x2
	.byte	0x74
	.byte	0x8
	.long	LCFI131
	.long	LFE2575
	.word	0x2
	.byte	0x75
	.byte	0x8
	.long	0x0
	.long	0x0
LLST43:
	.long	LFB2533
	.long	LCFI133
	.word	0x2
	.byte	0x74
	.byte	0x4
	.long	LCFI133
	.long	LCFI134
	.word	0x2
	.byte	0x74
	.byte	0x8
	.long	LCFI134
	.long	LFE2533
	.word	0x2
	.byte	0x75
	.byte	0x8
	.long	0x0
	.long	0x0
LLST44:
	.long	LFB2608
	.long	LCFI136
	.word	0x2
	.byte	0x74
	.byte	0x4
	.long	LCFI136
	.long	LCFI137
	.word	0x2
	.byte	0x74
	.byte	0x8
	.long	LCFI137
	.long	LFE2608
	.word	0x2
	.byte	0x75
	.byte	0x8
	.long	0x0
	.long	0x0
LLST45:
	.long	LFB2609
	.long	LCFI139
	.word	0x2
	.byte	0x74
	.byte	0x4
	.long	LCFI139
	.long	LCFI140
	.word	0x2
	.byte	0x74
	.byte	0x8
	.long	LCFI140
	.long	LFE2609
	.word	0x2
	.byte	0x75
	.byte	0x8
	.long	0x0
	.long	0x0
LLST46:
	.long	LFB2613
	.long	LCFI142
	.word	0x2
	.byte	0x74
	.byte	0x4
	.long	LCFI142
	.long	LCFI143
	.word	0x2
	.byte	0x74
	.byte	0x8
	.long	LCFI143
	.long	LFE2613
	.word	0x2
	.byte	0x75
	.byte	0x8
	.long	0x0
	.long	0x0
LLST47:
	.long	LFB2579
	.long	LCFI145
	.word	0x2
	.byte	0x74
	.byte	0x4
	.long	LCFI145
	.long	LCFI146
	.word	0x2
	.byte	0x74
	.byte	0x8
	.long	LCFI146
	.long	LFE2579
	.word	0x2
	.byte	0x75
	.byte	0x8
	.long	0x0
	.long	0x0
LLST48:
	.long	LFB2536
	.long	LCFI148
	.word	0x2
	.byte	0x74
	.byte	0x4
	.long	LCFI148
	.long	LCFI149
	.word	0x2
	.byte	0x74
	.byte	0x8
	.long	LCFI149
	.long	LFE2536
	.word	0x2
	.byte	0x75
	.byte	0x8
	.long	0x0
	.long	0x0
LLST49:
	.long	LFB2580
	.long	LCFI151
	.word	0x2
	.byte	0x74
	.byte	0x4
	.long	LCFI151
	.long	LCFI152
	.word	0x2
	.byte	0x74
	.byte	0x8
	.long	LCFI152
	.long	LFE2580
	.word	0x2
	.byte	0x75
	.byte	0x8
	.long	0x0
	.long	0x0
LLST50:
	.long	LFB2537
	.long	LCFI154
	.word	0x2
	.byte	0x74
	.byte	0x4
	.long	LCFI154
	.long	LCFI155
	.word	0x2
	.byte	0x74
	.byte	0x8
	.long	LCFI155
	.long	LFE2537
	.word	0x2
	.byte	0x75
	.byte	0x8
	.long	0x0
	.long	0x0
LLST51:
	.long	LFB2621
	.long	LCFI157
	.word	0x2
	.byte	0x74
	.byte	0x4
	.long	LCFI157
	.long	LCFI158
	.word	0x2
	.byte	0x74
	.byte	0x8
	.long	LCFI158
	.long	LFE2621
	.word	0x2
	.byte	0x75
	.byte	0x8
	.long	0x0
	.long	0x0
LLST52:
	.long	LFB2618
	.long	LCFI160
	.word	0x2
	.byte	0x74
	.byte	0x4
	.long	LCFI160
	.long	LCFI161
	.word	0x2
	.byte	0x74
	.byte	0x8
	.long	LCFI161
	.long	LFE2618
	.word	0x2
	.byte	0x75
	.byte	0x8
	.long	0x0
	.long	0x0
LLST53:
	.long	LFB2625
	.long	LCFI163
	.word	0x2
	.byte	0x74
	.byte	0x4
	.long	LCFI163
	.long	LCFI164
	.word	0x2
	.byte	0x74
	.byte	0x8
	.long	LCFI164
	.long	LFE2625
	.word	0x2
	.byte	0x75
	.byte	0x8
	.long	0x0
	.long	0x0
LLST54:
	.long	LFB2642
	.long	LCFI166
	.word	0x2
	.byte	0x74
	.byte	0x4
	.long	LCFI166
	.long	LCFI167
	.word	0x2
	.byte	0x74
	.byte	0x8
	.long	LCFI167
	.long	LFE2642
	.word	0x2
	.byte	0x75
	.byte	0x8
	.long	0x0
	.long	0x0
LLST55:
	.long	LFB2648
	.long	LCFI169
	.word	0x2
	.byte	0x74
	.byte	0x4
	.long	LCFI169
	.long	LCFI170
	.word	0x2
	.byte	0x74
	.byte	0x8
	.long	LCFI170
	.long	LFE2648
	.word	0x2
	.byte	0x75
	.byte	0x8
	.long	0x0
	.long	0x0
LLST56:
	.long	LFB2650
	.long	LCFI172
	.word	0x2
	.byte	0x74
	.byte	0x4
	.long	LCFI172
	.long	LCFI173
	.word	0x2
	.byte	0x74
	.byte	0x8
	.long	LCFI173
	.long	LFE2650
	.word	0x2
	.byte	0x75
	.byte	0x8
	.long	0x0
	.long	0x0
LLST57:
	.long	LFB2658
	.long	LCFI175
	.word	0x2
	.byte	0x74
	.byte	0x4
	.long	LCFI175
	.long	LCFI176
	.word	0x2
	.byte	0x74
	.byte	0x8
	.long	LCFI176
	.long	LFE2658
	.word	0x2
	.byte	0x75
	.byte	0x8
	.long	0x0
	.long	0x0
LLST58:
	.long	LFB2617
	.long	LCFI178
	.word	0x2
	.byte	0x74
	.byte	0x4
	.long	LCFI178
	.long	LCFI179
	.word	0x2
	.byte	0x74
	.byte	0x8
	.long	LCFI179
	.long	LFE2617
	.word	0x2
	.byte	0x75
	.byte	0x8
	.long	0x0
	.long	0x0
LLST59:
	.long	LFB2662
	.long	LCFI181
	.word	0x2
	.byte	0x74
	.byte	0x4
	.long	LCFI181
	.long	LCFI182
	.word	0x2
	.byte	0x74
	.byte	0x8
	.long	LCFI182
	.long	LFE2662
	.word	0x2
	.byte	0x75
	.byte	0x8
	.long	0x0
	.long	0x0
LLST60:
	.long	LFB2669
	.long	LCFI184
	.word	0x2
	.byte	0x74
	.byte	0x4
	.long	LCFI184
	.long	LCFI185
	.word	0x2
	.byte	0x74
	.byte	0x8
	.long	LCFI185
	.long	LFE2669
	.word	0x2
	.byte	0x75
	.byte	0x8
	.long	0x0
	.long	0x0
LLST61:
	.long	LFB2671
	.long	LCFI187
	.word	0x2
	.byte	0x74
	.byte	0x4
	.long	LCFI187
	.long	LCFI188
	.word	0x2
	.byte	0x74
	.byte	0x8
	.long	LCFI188
	.long	LFE2671
	.word	0x2
	.byte	0x75
	.byte	0x8
	.long	0x0
	.long	0x0
LLST62:
	.long	LFB2674
	.long	LCFI190
	.word	0x2
	.byte	0x74
	.byte	0x4
	.long	LCFI190
	.long	LCFI191
	.word	0x2
	.byte	0x74
	.byte	0x8
	.long	LCFI191
	.long	LFE2674
	.word	0x2
	.byte	0x75
	.byte	0x8
	.long	0x0
	.long	0x0
LLST63:
	.long	LFB2677
	.long	LCFI193
	.word	0x2
	.byte	0x74
	.byte	0x4
	.long	LCFI193
	.long	LCFI194
	.word	0x2
	.byte	0x74
	.byte	0x8
	.long	LCFI194
	.long	LFE2677
	.word	0x2
	.byte	0x75
	.byte	0x8
	.long	0x0
	.long	0x0
LLST64:
	.long	LFB2685
	.long	LCFI196
	.word	0x2
	.byte	0x74
	.byte	0x4
	.long	LCFI196
	.long	LCFI197
	.word	0x2
	.byte	0x74
	.byte	0x8
	.long	LCFI197
	.long	LFE2685
	.word	0x2
	.byte	0x75
	.byte	0x8
	.long	0x0
	.long	0x0
LLST65:
	.long	LFB2647
	.long	LCFI199
	.word	0x2
	.byte	0x74
	.byte	0x4
	.long	LCFI199
	.long	LCFI200
	.word	0x2
	.byte	0x74
	.byte	0x8
	.long	LCFI200
	.long	LFE2647
	.word	0x2
	.byte	0x75
	.byte	0x8
	.long	0x0
	.long	0x0
LLST66:
	.long	LFB2689
	.long	LCFI202
	.word	0x2
	.byte	0x74
	.byte	0x4
	.long	LCFI202
	.long	LCFI203
	.word	0x2
	.byte	0x74
	.byte	0x8
	.long	LCFI203
	.long	LFE2689
	.word	0x2
	.byte	0x75
	.byte	0x8
	.long	0x0
	.long	0x0
LLST67:
	.long	LFB2653
	.long	LCFI205
	.word	0x2
	.byte	0x74
	.byte	0x4
	.long	LCFI205
	.long	LCFI206
	.word	0x2
	.byte	0x74
	.byte	0x8
	.long	LCFI206
	.long	LFE2653
	.word	0x2
	.byte	0x75
	.byte	0x8
	.long	0x0
	.long	0x0
LLST68:
	.long	LFB2614
	.long	LCFI208
	.word	0x2
	.byte	0x74
	.byte	0x4
	.long	LCFI208
	.long	LCFI209
	.word	0x2
	.byte	0x74
	.byte	0x8
	.long	LCFI209
	.long	LFE2614
	.word	0x2
	.byte	0x75
	.byte	0x8
	.long	0x0
	.long	0x0
LLST69:
	.long	LFB2698
	.long	LCFI213
	.word	0x2
	.byte	0x74
	.byte	0x4
	.long	LCFI213
	.long	LCFI214
	.word	0x2
	.byte	0x74
	.byte	0x8
	.long	LCFI214
	.long	LFE2698
	.word	0x2
	.byte	0x75
	.byte	0x8
	.long	0x0
	.long	0x0
LLST70:
	.long	LFB2700
	.long	LCFI216
	.word	0x2
	.byte	0x74
	.byte	0x4
	.long	LCFI216
	.long	LCFI217
	.word	0x2
	.byte	0x74
	.byte	0x8
	.long	LCFI217
	.long	LFE2700
	.word	0x2
	.byte	0x75
	.byte	0x8
	.long	0x0
	.long	0x0
LLST71:
	.long	LFB2703
	.long	LCFI219
	.word	0x2
	.byte	0x74
	.byte	0x4
	.long	LCFI219
	.long	LCFI220
	.word	0x2
	.byte	0x74
	.byte	0x8
	.long	LCFI220
	.long	LFE2703
	.word	0x2
	.byte	0x75
	.byte	0x8
	.long	0x0
	.long	0x0
LLST72:
	.long	LFB2711
	.long	LCFI222
	.word	0x2
	.byte	0x74
	.byte	0x4
	.long	LCFI222
	.long	LCFI223
	.word	0x2
	.byte	0x74
	.byte	0x8
	.long	LCFI223
	.long	LFE2711
	.word	0x2
	.byte	0x75
	.byte	0x8
	.long	0x0
	.long	0x0
LLST73:
	.long	LFB2712
	.long	LCFI225
	.word	0x2
	.byte	0x74
	.byte	0x4
	.long	LCFI225
	.long	LCFI226
	.word	0x2
	.byte	0x74
	.byte	0x8
	.long	LCFI226
	.long	LFE2712
	.word	0x2
	.byte	0x75
	.byte	0x8
	.long	0x0
	.long	0x0
LLST74:
	.long	LFB2716
	.long	LCFI228
	.word	0x2
	.byte	0x74
	.byte	0x4
	.long	LCFI228
	.long	LCFI229
	.word	0x2
	.byte	0x74
	.byte	0x8
	.long	LCFI229
	.long	LFE2716
	.word	0x2
	.byte	0x75
	.byte	0x8
	.long	0x0
	.long	0x0
LLST75:
	.long	LFB2719
	.long	LCFI231
	.word	0x2
	.byte	0x74
	.byte	0x4
	.long	LCFI231
	.long	LCFI232
	.word	0x2
	.byte	0x74
	.byte	0x8
	.long	LCFI232
	.long	LFE2719
	.word	0x2
	.byte	0x75
	.byte	0x8
	.long	0x0
	.long	0x0
LLST76:
	.long	LFB2720
	.long	LCFI234
	.word	0x2
	.byte	0x74
	.byte	0x4
	.long	LCFI234
	.long	LCFI235
	.word	0x2
	.byte	0x74
	.byte	0x8
	.long	LCFI235
	.long	LFE2720
	.word	0x2
	.byte	0x75
	.byte	0x8
	.long	0x0
	.long	0x0
LLST77:
	.long	LFB2721
	.long	LCFI237
	.word	0x2
	.byte	0x74
	.byte	0x4
	.long	LCFI237
	.long	LCFI238
	.word	0x2
	.byte	0x74
	.byte	0x8
	.long	LCFI238
	.long	LFE2721
	.word	0x2
	.byte	0x75
	.byte	0x8
	.long	0x0
	.long	0x0
LLST78:
	.long	LFB2722
	.long	LCFI240
	.word	0x2
	.byte	0x74
	.byte	0x4
	.long	LCFI240
	.long	LCFI241
	.word	0x2
	.byte	0x74
	.byte	0x8
	.long	LCFI241
	.long	LFE2722
	.word	0x2
	.byte	0x75
	.byte	0x8
	.long	0x0
	.long	0x0
LLST79:
	.long	LFB2725
	.long	LCFI243
	.word	0x2
	.byte	0x74
	.byte	0x4
	.long	LCFI243
	.long	LCFI244
	.word	0x2
	.byte	0x74
	.byte	0x8
	.long	LCFI244
	.long	LFE2725
	.word	0x2
	.byte	0x75
	.byte	0x8
	.long	0x0
	.long	0x0
LLST80:
	.long	LFB2672
	.long	LCFI246
	.word	0x2
	.byte	0x74
	.byte	0x4
	.long	LCFI246
	.long	LCFI247
	.word	0x2
	.byte	0x74
	.byte	0x8
	.long	LCFI247
	.long	LFE2672
	.word	0x2
	.byte	0x75
	.byte	0x8
	.long	0x0
	.long	0x0
LLST81:
	.long	LFB2670
	.long	LCFI249
	.word	0x2
	.byte	0x74
	.byte	0x4
	.long	LCFI249
	.long	LCFI250
	.word	0x2
	.byte	0x74
	.byte	0x8
	.long	LCFI250
	.long	LFE2670
	.word	0x2
	.byte	0x75
	.byte	0x8
	.long	0x0
	.long	0x0
LLST82:
	.long	LFB2727
	.long	LCFI252
	.word	0x2
	.byte	0x74
	.byte	0x4
	.long	LCFI252
	.long	LCFI253
	.word	0x2
	.byte	0x74
	.byte	0x8
	.long	LCFI253
	.long	LFE2727
	.word	0x2
	.byte	0x75
	.byte	0x8
	.long	0x0
	.long	0x0
LLST83:
	.long	LFB2728
	.long	LCFI255
	.word	0x2
	.byte	0x74
	.byte	0x4
	.long	LCFI255
	.long	LCFI256
	.word	0x2
	.byte	0x74
	.byte	0x8
	.long	LCFI256
	.long	LFE2728
	.word	0x2
	.byte	0x75
	.byte	0x8
	.long	0x0
	.long	0x0
LLST84:
	.long	LFB2729
	.long	LCFI258
	.word	0x2
	.byte	0x74
	.byte	0x4
	.long	LCFI258
	.long	LCFI259
	.word	0x2
	.byte	0x74
	.byte	0x8
	.long	LCFI259
	.long	LFE2729
	.word	0x2
	.byte	0x75
	.byte	0x8
	.long	0x0
	.long	0x0
LLST85:
	.long	LFB2732
	.long	LCFI261
	.word	0x2
	.byte	0x74
	.byte	0x4
	.long	LCFI261
	.long	LCFI262
	.word	0x2
	.byte	0x74
	.byte	0x8
	.long	LCFI262
	.long	LFE2732
	.word	0x2
	.byte	0x75
	.byte	0x8
	.long	0x0
	.long	0x0
LLST86:
	.long	LFB2680
	.long	LCFI264
	.word	0x2
	.byte	0x74
	.byte	0x4
	.long	LCFI264
	.long	LCFI265
	.word	0x2
	.byte	0x74
	.byte	0x8
	.long	LCFI265
	.long	LFE2680
	.word	0x2
	.byte	0x75
	.byte	0x8
	.long	0x0
	.long	0x0
LLST87:
	.long	LFB2644
	.long	LCFI267
	.word	0x2
	.byte	0x74
	.byte	0x4
	.long	LCFI267
	.long	LCFI268
	.word	0x2
	.byte	0x74
	.byte	0x8
	.long	LCFI268
	.long	LFE2644
	.word	0x2
	.byte	0x75
	.byte	0x8
	.long	0x0
	.long	0x0
LLST88:
	.long	LFB2737
	.long	LCFI272
	.word	0x2
	.byte	0x74
	.byte	0x4
	.long	LCFI272
	.long	LCFI273
	.word	0x2
	.byte	0x74
	.byte	0x8
	.long	LCFI273
	.long	LFE2737
	.word	0x2
	.byte	0x75
	.byte	0x8
	.long	0x0
	.long	0x0
LLST89:
	.long	LFB2741
	.long	LCFI275
	.word	0x2
	.byte	0x74
	.byte	0x4
	.long	LCFI275
	.long	LCFI276
	.word	0x2
	.byte	0x74
	.byte	0x8
	.long	LCFI276
	.long	LFE2741
	.word	0x2
	.byte	0x75
	.byte	0x8
	.long	0x0
	.long	0x0
LLST90:
	.long	LFB2744
	.long	LCFI278
	.word	0x2
	.byte	0x74
	.byte	0x4
	.long	LCFI278
	.long	LCFI279
	.word	0x2
	.byte	0x74
	.byte	0x8
	.long	LCFI279
	.long	LFE2744
	.word	0x2
	.byte	0x75
	.byte	0x8
	.long	0x0
	.long	0x0
LLST91:
	.long	LFB2745
	.long	LCFI281
	.word	0x2
	.byte	0x74
	.byte	0x4
	.long	LCFI281
	.long	LCFI282
	.word	0x2
	.byte	0x74
	.byte	0x8
	.long	LCFI282
	.long	LFE2745
	.word	0x2
	.byte	0x75
	.byte	0x8
	.long	0x0
	.long	0x0
LLST92:
	.long	LFB2748
	.long	LCFI284
	.word	0x2
	.byte	0x74
	.byte	0x4
	.long	LCFI284
	.long	LCFI285
	.word	0x2
	.byte	0x74
	.byte	0x8
	.long	LCFI285
	.long	LFE2748
	.word	0x2
	.byte	0x75
	.byte	0x8
	.long	0x0
	.long	0x0
LLST93:
	.long	LFB2701
	.long	LCFI287
	.word	0x2
	.byte	0x74
	.byte	0x4
	.long	LCFI287
	.long	LCFI288
	.word	0x2
	.byte	0x74
	.byte	0x8
	.long	LCFI288
	.long	LFE2701
	.word	0x2
	.byte	0x75
	.byte	0x8
	.long	0x0
	.long	0x0
LLST94:
	.long	LFB2699
	.long	LCFI290
	.word	0x2
	.byte	0x74
	.byte	0x4
	.long	LCFI290
	.long	LCFI291
	.word	0x2
	.byte	0x74
	.byte	0x8
	.long	LCFI291
	.long	LFE2699
	.word	0x2
	.byte	0x75
	.byte	0x8
	.long	0x0
	.long	0x0
LLST95:
	.long	LFB2749
	.long	LCFI293
	.word	0x2
	.byte	0x74
	.byte	0x4
	.long	LCFI293
	.long	LCFI294
	.word	0x2
	.byte	0x74
	.byte	0x8
	.long	LCFI294
	.long	LFE2749
	.word	0x2
	.byte	0x75
	.byte	0x8
	.long	0x0
	.long	0x0
LLST96:
	.long	LFB2750
	.long	LCFI296
	.word	0x2
	.byte	0x74
	.byte	0x4
	.long	LCFI296
	.long	LCFI297
	.word	0x2
	.byte	0x74
	.byte	0x8
	.long	LCFI297
	.long	LFE2750
	.word	0x2
	.byte	0x75
	.byte	0x8
	.long	0x0
	.long	0x0
LLST97:
	.long	LFB2751
	.long	LCFI299
	.word	0x2
	.byte	0x74
	.byte	0x4
	.long	LCFI299
	.long	LCFI300
	.word	0x2
	.byte	0x74
	.byte	0x8
	.long	LCFI300
	.long	LFE2751
	.word	0x2
	.byte	0x75
	.byte	0x8
	.long	0x0
	.long	0x0
LLST98:
	.long	LFB2756
	.long	LCFI302
	.word	0x2
	.byte	0x74
	.byte	0x4
	.long	LCFI302
	.long	LCFI303
	.word	0x2
	.byte	0x74
	.byte	0x8
	.long	LCFI303
	.long	LFE2756
	.word	0x2
	.byte	0x75
	.byte	0x8
	.long	0x0
	.long	0x0
LLST99:
	.long	LFB2757
	.long	LCFI305
	.word	0x2
	.byte	0x74
	.byte	0x4
	.long	LCFI305
	.long	LCFI306
	.word	0x2
	.byte	0x74
	.byte	0x8
	.long	LCFI306
	.long	LFE2757
	.word	0x2
	.byte	0x75
	.byte	0x8
	.long	0x0
	.long	0x0
LLST100:
	.long	LFB2713
	.long	LCFI308
	.word	0x2
	.byte	0x74
	.byte	0x4
	.long	LCFI308
	.long	LCFI309
	.word	0x2
	.byte	0x74
	.byte	0x8
	.long	LCFI309
	.long	LFE2713
	.word	0x2
	.byte	0x75
	.byte	0x8
	.long	0x0
	.long	0x0
LLST101:
	.long	LFB2666
	.long	LCFI312
	.word	0x2
	.byte	0x74
	.byte	0x4
	.long	LCFI312
	.long	LCFI313
	.word	0x2
	.byte	0x74
	.byte	0x8
	.long	LCFI313
	.long	LFE2666
	.word	0x2
	.byte	0x75
	.byte	0x8
	.long	0x0
	.long	0x0
LLST102:
	.long	LFB2665
	.long	LCFI315
	.word	0x2
	.byte	0x74
	.byte	0x4
	.long	LCFI315
	.long	LCFI316
	.word	0x2
	.byte	0x74
	.byte	0x8
	.long	LCFI316
	.long	LFE2665
	.word	0x2
	.byte	0x75
	.byte	0x8
	.long	0x0
	.long	0x0
LLST103:
	.long	LFB2641
	.long	LCFI318
	.word	0x2
	.byte	0x74
	.byte	0x4
	.long	LCFI318
	.long	LCFI319
	.word	0x2
	.byte	0x74
	.byte	0x8
	.long	LCFI319
	.long	LFE2641
	.word	0x2
	.byte	0x75
	.byte	0x8
	.long	0x0
	.long	0x0
LLST104:
	.long	LFB2762
	.long	LCFI321
	.word	0x2
	.byte	0x74
	.byte	0x4
	.long	LCFI321
	.long	LCFI322
	.word	0x2
	.byte	0x74
	.byte	0x8
	.long	LCFI322
	.long	LFE2762
	.word	0x2
	.byte	0x75
	.byte	0x8
	.long	0x0
	.long	0x0
LLST105:
	.long	LFB2764
	.long	LCFI324
	.word	0x2
	.byte	0x74
	.byte	0x4
	.long	LCFI324
	.long	LCFI325
	.word	0x2
	.byte	0x74
	.byte	0x8
	.long	LCFI325
	.long	LFE2764
	.word	0x2
	.byte	0x75
	.byte	0x8
	.long	0x0
	.long	0x0
LLST106:
	.long	LFB2765
	.long	LCFI327
	.word	0x2
	.byte	0x74
	.byte	0x4
	.long	LCFI327
	.long	LCFI328
	.word	0x2
	.byte	0x74
	.byte	0x8
	.long	LCFI328
	.long	LFE2765
	.word	0x2
	.byte	0x75
	.byte	0x8
	.long	0x0
	.long	0x0
LLST107:
	.long	LFB2738
	.long	LCFI330
	.word	0x2
	.byte	0x74
	.byte	0x4
	.long	LCFI330
	.long	LCFI331
	.word	0x2
	.byte	0x74
	.byte	0x8
	.long	LCFI331
	.long	LFE2738
	.word	0x2
	.byte	0x75
	.byte	0x8
	.long	0x0
	.long	0x0
LLST108:
	.long	LFB2695
	.long	LCFI334
	.word	0x2
	.byte	0x74
	.byte	0x4
	.long	LCFI334
	.long	LCFI335
	.word	0x2
	.byte	0x74
	.byte	0x8
	.long	LCFI335
	.long	LFE2695
	.word	0x2
	.byte	0x75
	.byte	0x8
	.long	0x0
	.long	0x0
LLST109:
	.long	LFB2694
	.long	LCFI337
	.word	0x2
	.byte	0x74
	.byte	0x4
	.long	LCFI337
	.long	LCFI338
	.word	0x2
	.byte	0x74
	.byte	0x8
	.long	LCFI338
	.long	LFE2694
	.word	0x2
	.byte	0x75
	.byte	0x8
	.long	0x0
	.long	0x0
LLST110:
	.long	LFB2661
	.long	LCFI340
	.word	0x2
	.byte	0x74
	.byte	0x4
	.long	LCFI340
	.long	LCFI341
	.word	0x2
	.byte	0x74
	.byte	0x8
	.long	LCFI341
	.long	LFE2661
	.word	0x2
	.byte	0x75
	.byte	0x8
	.long	0x0
	.long	0x0
LLST111:
	.long	LFB2766
	.long	LCFI343
	.word	0x2
	.byte	0x74
	.byte	0x4
	.long	LCFI343
	.long	LCFI344
	.word	0x2
	.byte	0x74
	.byte	0x8
	.long	LCFI344
	.long	LFE2766
	.word	0x2
	.byte	0x75
	.byte	0x8
	.long	0x0
	.long	0x0
LLST112:
	.long	LFB2774
	.long	LCFI346
	.word	0x2
	.byte	0x74
	.byte	0x4
	.long	LCFI346
	.long	LCFI347
	.word	0x2
	.byte	0x74
	.byte	0x8
	.long	LCFI347
	.long	LFE2774
	.word	0x2
	.byte	0x75
	.byte	0x8
	.long	0x0
	.long	0x0
LLST113:
	.long	LFB2761
	.long	LCFI349
	.word	0x2
	.byte	0x74
	.byte	0x4
	.long	LCFI349
	.long	LCFI350
	.word	0x2
	.byte	0x74
	.byte	0x8
	.long	LCFI350
	.long	LFE2761
	.word	0x2
	.byte	0x75
	.byte	0x8
	.long	0x0
	.long	0x0
LLST114:
	.long	LFB2778
	.long	LCFI352
	.word	0x2
	.byte	0x74
	.byte	0x4
	.long	LCFI352
	.long	LCFI353
	.word	0x2
	.byte	0x74
	.byte	0x8
	.long	LCFI353
	.long	LFE2778
	.word	0x2
	.byte	0x75
	.byte	0x8
	.long	0x0
	.long	0x0
LLST115:
	.long	LFB2769
	.long	LCFI355
	.word	0x2
	.byte	0x74
	.byte	0x4
	.long	LCFI355
	.long	LCFI356
	.word	0x2
	.byte	0x74
	.byte	0x8
	.long	LCFI356
	.long	LFE2769
	.word	0x2
	.byte	0x75
	.byte	0x8
	.long	0x0
	.long	0x0
LLST116:
	.long	LFB2758
	.long	LCFI358
	.word	0x2
	.byte	0x74
	.byte	0x4
	.long	LCFI358
	.long	LCFI359
	.word	0x2
	.byte	0x74
	.byte	0x8
	.long	LCFI359
	.long	LFE2758
	.word	0x2
	.byte	0x75
	.byte	0x8
	.long	0x0
	.long	0x0
LLST117:
	.long	LFB2785
	.long	LCFI363
	.word	0x2
	.byte	0x74
	.byte	0x4
	.long	LCFI363
	.long	LCFI364
	.word	0x2
	.byte	0x74
	.byte	0x8
	.long	LCFI364
	.long	LFE2785
	.word	0x2
	.byte	0x75
	.byte	0x8
	.long	0x0
	.long	0x0
LLST118:
	.long	LFB2786
	.long	LCFI367
	.word	0x2
	.byte	0x74
	.byte	0x4
	.long	LCFI367
	.long	LCFI368
	.word	0x2
	.byte	0x74
	.byte	0x8
	.long	LCFI368
	.long	LFE2786
	.word	0x2
	.byte	0x75
	.byte	0x8
	.long	0x0
	.long	0x0
LLST119:
	.long	LFB2787
	.long	LCFI371
	.word	0x2
	.byte	0x74
	.byte	0x4
	.long	LCFI371
	.long	LCFI372
	.word	0x2
	.byte	0x74
	.byte	0x8
	.long	LCFI372
	.long	LFE2787
	.word	0x2
	.byte	0x75
	.byte	0x8
	.long	0x0
	.long	0x0
LLST120:
	.long	LFB2788
	.long	LCFI375
	.word	0x2
	.byte	0x74
	.byte	0x4
	.long	LCFI375
	.long	LCFI376
	.word	0x2
	.byte	0x74
	.byte	0x8
	.long	LCFI376
	.long	LFE2788
	.word	0x2
	.byte	0x75
	.byte	0x8
	.long	0x0
	.long	0x0
LLST121:
	.long	LFB2783
	.long	LCFI379
	.word	0x2
	.byte	0x74
	.byte	0x4
	.long	LCFI379
	.long	LCFI380
	.word	0x2
	.byte	0x74
	.byte	0x8
	.long	LCFI380
	.long	LFE2783
	.word	0x2
	.byte	0x75
	.byte	0x8
	.long	0x0
	.long	0x0
LLST122:
	.long	LFB2793
	.long	LCFI384
	.word	0x2
	.byte	0x74
	.byte	0x4
	.long	LCFI384
	.long	LCFI385
	.word	0x2
	.byte	0x74
	.byte	0x8
	.long	LCFI385
	.long	LFE2793
	.word	0x2
	.byte	0x75
	.byte	0x8
	.long	0x0
	.long	0x0
LLST123:
	.long	LFB2776
	.long	LCFI387
	.word	0x2
	.byte	0x74
	.byte	0x4
	.long	LCFI387
	.long	LCFI388
	.word	0x2
	.byte	0x74
	.byte	0x8
	.long	LCFI388
	.long	LFE2776
	.word	0x2
	.byte	0x75
	.byte	0x8
	.long	0x0
	.long	0x0
LLST124:
	.long	LFB2763
	.long	LCFI390
	.word	0x2
	.byte	0x74
	.byte	0x4
	.long	LCFI390
	.long	LCFI391
	.word	0x2
	.byte	0x74
	.byte	0x8
	.long	LCFI391
	.long	LFE2763
	.word	0x2
	.byte	0x75
	.byte	0x8
	.long	0x0
	.long	0x0
LLST125:
	.long	LFB2730
	.long	LCFI393
	.word	0x2
	.byte	0x74
	.byte	0x4
	.long	LCFI393
	.long	LCFI394
	.word	0x2
	.byte	0x74
	.byte	0x8
	.long	LCFI394
	.long	LFE2730
	.word	0x2
	.byte	0x75
	.byte	0x8
	.long	0x0
	.long	0x0
LLST126:
	.long	LFB2726
	.long	LCFI397
	.word	0x2
	.byte	0x74
	.byte	0x4
	.long	LCFI397
	.long	LCFI398
	.word	0x2
	.byte	0x74
	.byte	0x8
	.long	LCFI398
	.long	LFE2726
	.word	0x2
	.byte	0x75
	.byte	0x8
	.long	0x0
	.long	0x0
LLST127:
	.long	LFB2673
	.long	LCFI400
	.word	0x2
	.byte	0x74
	.byte	0x4
	.long	LCFI400
	.long	LCFI401
	.word	0x2
	.byte	0x74
	.byte	0x8
	.long	LCFI401
	.long	LFE2673
	.word	0x2
	.byte	0x75
	.byte	0x8
	.long	0x0
	.long	0x0
LLST128:
	.long	LFB2626
	.long	LCFI404
	.word	0x2
	.byte	0x74
	.byte	0x4
	.long	LCFI404
	.long	LCFI405
	.word	0x2
	.byte	0x74
	.byte	0x8
	.long	LCFI405
	.long	LFE2626
	.word	0x2
	.byte	0x75
	.byte	0x8
	.long	0x0
	.long	0x0
LLST129:
	.long	LFB2595
	.long	LCFI407
	.word	0x2
	.byte	0x74
	.byte	0x4
	.long	LCFI407
	.long	LCFI408
	.word	0x2
	.byte	0x74
	.byte	0x8
	.long	LCFI408
	.long	LFE2595
	.word	0x2
	.byte	0x75
	.byte	0x8
	.long	0x0
	.long	0x0
LLST130:
	.long	LFB2687
	.long	LCFI411
	.word	0x2
	.byte	0x74
	.byte	0x4
	.long	LCFI411
	.long	LCFI412
	.word	0x2
	.byte	0x74
	.byte	0x8
	.long	LCFI412
	.long	LFE2687
	.word	0x2
	.byte	0x75
	.byte	0x8
	.long	0x0
	.long	0x0
LLST131:
	.long	LFB2649
	.long	LCFI414
	.word	0x2
	.byte	0x74
	.byte	0x4
	.long	LCFI414
	.long	LCFI415
	.word	0x2
	.byte	0x74
	.byte	0x8
	.long	LCFI415
	.long	LFE2649
	.word	0x2
	.byte	0x75
	.byte	0x8
	.long	0x0
	.long	0x0
LLST132:
	.long	LFB2610
	.long	LCFI417
	.word	0x2
	.byte	0x74
	.byte	0x4
	.long	LCFI417
	.long	LCFI418
	.word	0x2
	.byte	0x74
	.byte	0x8
	.long	LCFI418
	.long	LFE2610
	.word	0x2
	.byte	0x75
	.byte	0x8
	.long	0x0
	.long	0x0
LLST133:
	.long	LFB2577
	.long	LCFI421
	.word	0x2
	.byte	0x74
	.byte	0x4
	.long	LCFI421
	.long	LCFI422
	.word	0x2
	.byte	0x74
	.byte	0x8
	.long	LCFI422
	.long	LFE2577
	.word	0x2
	.byte	0x75
	.byte	0x8
	.long	0x0
	.long	0x0
LLST134:
	.long	LFB2702
	.long	LCFI424
	.word	0x2
	.byte	0x74
	.byte	0x4
	.long	LCFI424
	.long	LCFI425
	.word	0x2
	.byte	0x74
	.byte	0x8
	.long	LCFI425
	.long	LFE2702
	.word	0x2
	.byte	0x75
	.byte	0x8
	.long	0x0
	.long	0x0
LLST135:
	.long	LFB2535
	.long	LCFI428
	.word	0x2
	.byte	0x74
	.byte	0x4
	.long	LCFI428
	.long	LCFI429
	.word	0x2
	.byte	0x74
	.byte	0x8
	.long	LCFI429
	.long	LFE2535
	.word	0x2
	.byte	0x75
	.byte	0x8
	.long	0x0
	.long	0x0
LLST136:
	.long	LFB2466
	.long	LCFI432
	.word	0x2
	.byte	0x74
	.byte	0x4
	.long	LCFI432
	.long	LCFI433
	.word	0x2
	.byte	0x74
	.byte	0x8
	.long	LCFI433
	.long	LFE2466
	.word	0x2
	.byte	0x75
	.byte	0x8
	.long	0x0
	.long	0x0
LLST137:
	.long	LFB2660
	.long	LCFI435
	.word	0x2
	.byte	0x74
	.byte	0x4
	.long	LCFI435
	.long	LCFI436
	.word	0x2
	.byte	0x74
	.byte	0x8
	.long	LCFI436
	.long	LFE2660
	.word	0x2
	.byte	0x75
	.byte	0x8
	.long	0x0
	.long	0x0
LLST138:
	.long	LFB2622
	.long	LCFI438
	.word	0x2
	.byte	0x74
	.byte	0x4
	.long	LCFI438
	.long	LCFI439
	.word	0x2
	.byte	0x74
	.byte	0x8
	.long	LCFI439
	.long	LFE2622
	.word	0x2
	.byte	0x75
	.byte	0x8
	.long	0x0
	.long	0x0
LLST139:
	.long	LFB2586
	.long	LCFI441
	.word	0x2
	.byte	0x74
	.byte	0x4
	.long	LCFI441
	.long	LCFI442
	.word	0x2
	.byte	0x74
	.byte	0x8
	.long	LCFI442
	.long	LFE2586
	.word	0x2
	.byte	0x75
	.byte	0x8
	.long	0x0
	.long	0x0
LLST140:
	.long	LFB2545
	.long	LCFI445
	.word	0x2
	.byte	0x74
	.byte	0x4
	.long	LCFI445
	.long	LCFI446
	.word	0x2
	.byte	0x74
	.byte	0x8
	.long	LCFI446
	.long	LFE2545
	.word	0x2
	.byte	0x75
	.byte	0x8
	.long	0x0
	.long	0x0
LLST141:
	.long	LFB2474
	.long	LCFI448
	.word	0x2
	.byte	0x74
	.byte	0x4
	.long	LCFI448
	.long	LCFI449
	.word	0x2
	.byte	0x74
	.byte	0x8
	.long	LCFI449
	.long	LFE2474
	.word	0x2
	.byte	0x75
	.byte	0x8
	.long	0x0
	.long	0x0
LLST142:
	.long	LFB2393
	.long	LCFI452
	.word	0x2
	.byte	0x74
	.byte	0x4
	.long	LCFI452
	.long	LCFI453
	.word	0x2
	.byte	0x74
	.byte	0x8
	.long	LCFI453
	.long	LFE2393
	.word	0x2
	.byte	0x75
	.byte	0x8
	.long	0x0
	.long	0x0
LLST143:
	.long	LFB283
	.long	LCFI455
	.word	0x2
	.byte	0x74
	.byte	0x4
	.long	LCFI455
	.long	LCFI456
	.word	0x2
	.byte	0x74
	.byte	0x8
	.long	LCFI456
	.long	LFE283
	.word	0x2
	.byte	0x75
	.byte	0x8
	.long	0x0
	.long	0x0
LLST144:
	.long	LFB287
	.long	LCFI458
	.word	0x2
	.byte	0x74
	.byte	0x4
	.long	LCFI458
	.long	LCFI459
	.word	0x2
	.byte	0x74
	.byte	0x8
	.long	LCFI459
	.long	LFE287
	.word	0x2
	.byte	0x75
	.byte	0x8
	.long	0x0
	.long	0x0
LLST145:
	.long	LFB2555
	.long	LCFI461
	.word	0x2
	.byte	0x74
	.byte	0x4
	.long	LCFI461
	.long	LCFI462
	.word	0x2
	.byte	0x74
	.byte	0x8
	.long	LCFI462
	.long	LFE2555
	.word	0x2
	.byte	0x75
	.byte	0x8
	.long	0x0
	.long	0x0
LLST146:
	.long	LFB2480
	.long	LCFI464
	.word	0x2
	.byte	0x74
	.byte	0x4
	.long	LCFI464
	.long	LCFI465
	.word	0x2
	.byte	0x74
	.byte	0x8
	.long	LCFI465
	.long	LFE2480
	.word	0x2
	.byte	0x75
	.byte	0x8
	.long	0x0
	.long	0x0
LLST147:
	.long	LFB2398
	.long	LCFI467
	.word	0x2
	.byte	0x74
	.byte	0x4
	.long	LCFI467
	.long	LCFI468
	.word	0x2
	.byte	0x74
	.byte	0x8
	.long	LCFI468
	.long	LFE2398
	.word	0x2
	.byte	0x75
	.byte	0x8
	.long	0x0
	.long	0x0
LLST148:
	.long	LFB2784
	.long	LCFI470
	.word	0x2
	.byte	0x74
	.byte	0x4
	.long	LCFI470
	.long	LCFI471
	.word	0x2
	.byte	0x74
	.byte	0x8
	.long	LCFI471
	.long	LFE2784
	.word	0x2
	.byte	0x75
	.byte	0x8
	.long	0x0
	.long	0x0
LLST149:
	.long	LFB258
	.long	LCFI474
	.word	0x2
	.byte	0x74
	.byte	0x4
	.long	LCFI474
	.long	LCFI475
	.word	0x2
	.byte	0x74
	.byte	0x8
	.long	LCFI475
	.long	LFE258
	.word	0x2
	.byte	0x75
	.byte	0x8
	.long	0x0
	.long	0x0
LLST150:
	.long	LFB2345
	.long	LCFI477
	.word	0x2
	.byte	0x74
	.byte	0x4
	.long	LCFI477
	.long	LCFI478
	.word	0x2
	.byte	0x74
	.byte	0x8
	.long	LCFI478
	.long	LFE2345
	.word	0x2
	.byte	0x75
	.byte	0x8
	.long	0x0
	.long	0x0
LLST151:
	.long	LFB2363
	.long	LCFI480
	.word	0x2
	.byte	0x74
	.byte	0x4
	.long	LCFI480
	.long	LCFI481
	.word	0x2
	.byte	0x74
	.byte	0x8
	.long	LCFI481
	.long	LFE2363
	.word	0x2
	.byte	0x75
	.byte	0x8
	.long	0x0
	.long	0x0
LLST152:
	.long	LFB2365
	.long	LCFI484
	.word	0x2
	.byte	0x74
	.byte	0x4
	.long	LCFI484
	.long	LCFI485
	.word	0x2
	.byte	0x74
	.byte	0x8
	.long	LCFI485
	.long	LFE2365
	.word	0x2
	.byte	0x75
	.byte	0x8
	.long	0x0
	.long	0x0
LLST153:
	.long	LFB2361
	.long	LCFI488
	.word	0x2
	.byte	0x74
	.byte	0x4
	.long	LCFI488
	.long	LCFI489
	.word	0x2
	.byte	0x74
	.byte	0x8
	.long	LCFI489
	.long	LFE2361
	.word	0x2
	.byte	0x75
	.byte	0x8
	.long	0x0
	.long	0x0
LLST154:
	.long	LFB2675
	.long	LCFI492
	.word	0x2
	.byte	0x74
	.byte	0x4
	.long	LCFI492
	.long	LCFI493
	.word	0x2
	.byte	0x74
	.byte	0x8
	.long	LCFI493
	.long	LFE2675
	.word	0x2
	.byte	0x75
	.byte	0x8
	.long	0x0
	.long	0x0
LLST155:
	.long	LFB2704
	.long	LCFI495
	.word	0x2
	.byte	0x74
	.byte	0x4
	.long	LCFI495
	.long	LCFI496
	.word	0x2
	.byte	0x74
	.byte	0x8
	.long	LCFI496
	.long	LFE2704
	.word	0x2
	.byte	0x75
	.byte	0x8
	.long	0x0
	.long	0x0
LLST156:
	.long	LFB2676
	.long	LCFI498
	.word	0x2
	.byte	0x74
	.byte	0x4
	.long	LCFI498
	.long	LCFI499
	.word	0x2
	.byte	0x74
	.byte	0x8
	.long	LCFI499
	.long	LFE2676
	.word	0x2
	.byte	0x75
	.byte	0x8
	.long	0x0
	.long	0x0
LLST157:
	.long	LFB2643
	.long	LCFI501
	.word	0x2
	.byte	0x74
	.byte	0x4
	.long	LCFI501
	.long	LCFI502
	.word	0x2
	.byte	0x74
	.byte	0x8
	.long	LCFI502
	.long	LFE2643
	.word	0x2
	.byte	0x75
	.byte	0x8
	.long	0x0
	.long	0x0
LLST158:
	.long	LFB2604
	.long	LCFI504
	.word	0x2
	.byte	0x74
	.byte	0x4
	.long	LCFI504
	.long	LCFI505
	.word	0x2
	.byte	0x74
	.byte	0x8
	.long	LCFI505
	.long	LFE2604
	.word	0x2
	.byte	0x75
	.byte	0x8
	.long	0x0
	.long	0x0
LLST159:
	.long	LFB2573
	.long	LCFI507
	.word	0x2
	.byte	0x74
	.byte	0x4
	.long	LCFI507
	.long	LCFI508
	.word	0x2
	.byte	0x74
	.byte	0x8
	.long	LCFI508
	.long	LFE2573
	.word	0x2
	.byte	0x75
	.byte	0x8
	.long	0x0
	.long	0x0
LLST160:
	.long	LFB2529
	.long	LCFI510
	.word	0x2
	.byte	0x74
	.byte	0x4
	.long	LCFI510
	.long	LCFI511
	.word	0x2
	.byte	0x74
	.byte	0x8
	.long	LCFI511
	.long	LFE2529
	.word	0x2
	.byte	0x75
	.byte	0x8
	.long	0x0
	.long	0x0
LLST161:
	.long	LFB2462
	.long	LCFI513
	.word	0x2
	.byte	0x74
	.byte	0x4
	.long	LCFI513
	.long	LCFI514
	.word	0x2
	.byte	0x74
	.byte	0x8
	.long	LCFI514
	.long	LFE2462
	.word	0x2
	.byte	0x75
	.byte	0x8
	.long	0x0
	.long	0x0
LLST162:
	.long	LFB2387
	.long	LCFI516
	.word	0x2
	.byte	0x74
	.byte	0x4
	.long	LCFI516
	.long	LCFI517
	.word	0x2
	.byte	0x74
	.byte	0x8
	.long	LCFI517
	.long	LFE2387
	.word	0x2
	.byte	0x75
	.byte	0x8
	.long	0x0
	.long	0x0
LLST163:
	.long	LFB2384
	.long	LCFI521
	.word	0x2
	.byte	0x74
	.byte	0x4
	.long	LCFI521
	.long	LCFI522
	.word	0x2
	.byte	0x74
	.byte	0x8
	.long	LCFI522
	.long	LFE2384
	.word	0x2
	.byte	0x75
	.byte	0x8
	.long	0x0
	.long	0x0
LLST164:
	.long	LFB2705
	.long	LCFI526
	.word	0x2
	.byte	0x74
	.byte	0x4
	.long	LCFI526
	.long	LCFI527
	.word	0x2
	.byte	0x74
	.byte	0x8
	.long	LCFI527
	.long	LFE2705
	.word	0x2
	.byte	0x75
	.byte	0x8
	.long	0x0
	.long	0x0
LLST165:
	.long	LFB2663
	.long	LCFI529
	.word	0x2
	.byte	0x74
	.byte	0x4
	.long	LCFI529
	.long	LCFI530
	.word	0x2
	.byte	0x74
	.byte	0x8
	.long	LCFI530
	.long	LFE2663
	.word	0x2
	.byte	0x75
	.byte	0x8
	.long	0x0
	.long	0x0
LLST166:
	.long	LFB2627
	.long	LCFI532
	.word	0x2
	.byte	0x74
	.byte	0x4
	.long	LCFI532
	.long	LCFI533
	.word	0x2
	.byte	0x74
	.byte	0x8
	.long	LCFI533
	.long	LFE2627
	.word	0x2
	.byte	0x75
	.byte	0x8
	.long	0x0
	.long	0x0
LLST167:
	.long	LFB2596
	.long	LCFI535
	.word	0x2
	.byte	0x74
	.byte	0x4
	.long	LCFI535
	.long	LCFI536
	.word	0x2
	.byte	0x74
	.byte	0x8
	.long	LCFI536
	.long	LFE2596
	.word	0x2
	.byte	0x75
	.byte	0x8
	.long	0x0
	.long	0x0
LLST168:
	.long	LFB2556
	.long	LCFI538
	.word	0x2
	.byte	0x74
	.byte	0x4
	.long	LCFI538
	.long	LCFI539
	.word	0x2
	.byte	0x74
	.byte	0x8
	.long	LCFI539
	.long	LFE2556
	.word	0x2
	.byte	0x75
	.byte	0x8
	.long	0x0
	.long	0x0
LLST169:
	.long	LFB2483
	.long	LCFI541
	.word	0x2
	.byte	0x74
	.byte	0x4
	.long	LCFI541
	.long	LCFI542
	.word	0x2
	.byte	0x74
	.byte	0x8
	.long	LCFI542
	.long	LFE2483
	.word	0x2
	.byte	0x75
	.byte	0x8
	.long	0x0
	.long	0x0
LLST170:
	.long	LFB2401
	.long	LCFI544
	.word	0x2
	.byte	0x74
	.byte	0x4
	.long	LCFI544
	.long	LCFI545
	.word	0x2
	.byte	0x74
	.byte	0x8
	.long	LCFI545
	.long	LFE2401
	.word	0x2
	.byte	0x75
	.byte	0x8
	.long	0x0
	.long	0x0
LLST171:
	.long	LFB2405
	.long	LCFI549
	.word	0x2
	.byte	0x74
	.byte	0x4
	.long	LCFI549
	.long	LCFI550
	.word	0x2
	.byte	0x74
	.byte	0x8
	.long	LCFI550
	.long	LFE2405
	.word	0x2
	.byte	0x75
	.byte	0x8
	.long	0x0
	.long	0x0
LLST172:
	.long	LFB2407
	.long	LCFI555
	.word	0x2
	.byte	0x74
	.byte	0x4
	.long	LCFI555
	.long	LCFI556
	.word	0x2
	.byte	0x74
	.byte	0x8
	.long	LCFI556
	.long	LFE2407
	.word	0x2
	.byte	0x75
	.byte	0x8
	.long	0x0
	.long	0x0
LLST173:
	.long	LFB2406
	.long	LCFI558
	.word	0x2
	.byte	0x74
	.byte	0x4
	.long	LCFI558
	.long	LCFI559
	.word	0x2
	.byte	0x74
	.byte	0x8
	.long	LCFI559
	.long	LFE2406
	.word	0x2
	.byte	0x75
	.byte	0x8
	.long	0x0
	.long	0x0
LLST174:
	.long	LFB2350
	.long	LCFI561
	.word	0x2
	.byte	0x74
	.byte	0x4
	.long	LCFI561
	.long	LCFI562
	.word	0x2
	.byte	0x74
	.byte	0x8
	.long	LCFI562
	.long	LFE2350
	.word	0x2
	.byte	0x75
	.byte	0x8
	.long	0x0
	.long	0x0
LLST175:
	.long	LFB2484
	.long	LCFI565
	.word	0x2
	.byte	0x74
	.byte	0x4
	.long	LCFI565
	.long	LCFI566
	.word	0x2
	.byte	0x74
	.byte	0x8
	.long	LCFI566
	.long	LFE2484
	.word	0x2
	.byte	0x75
	.byte	0x8
	.long	0x0
	.long	0x0
LLST176:
	.long	LFB2539
	.long	LCFI569
	.word	0x2
	.byte	0x74
	.byte	0x4
	.long	LCFI569
	.long	LCFI570
	.word	0x2
	.byte	0x74
	.byte	0x8
	.long	LCFI570
	.long	LFE2539
	.word	0x2
	.byte	0x75
	.byte	0x8
	.long	0x0
	.long	0x0
LLST177:
	.long	LFB2467
	.long	LCFI572
	.word	0x2
	.byte	0x74
	.byte	0x4
	.long	LCFI572
	.long	LCFI573
	.word	0x2
	.byte	0x74
	.byte	0x8
	.long	LCFI573
	.long	LFE2467
	.word	0x2
	.byte	0x75
	.byte	0x8
	.long	0x0
	.long	0x0
LLST178:
	.long	LFB2395
	.long	LCFI576
	.word	0x2
	.byte	0x74
	.byte	0x4
	.long	LCFI576
	.long	LCFI577
	.word	0x2
	.byte	0x74
	.byte	0x8
	.long	LCFI577
	.long	LFE2395
	.word	0x2
	.byte	0x75
	.byte	0x8
	.long	0x0
	.long	0x0
LLST179:
	.long	LFB2404
	.long	LCFI580
	.word	0x2
	.byte	0x74
	.byte	0x4
	.long	LCFI580
	.long	LCFI581
	.word	0x2
	.byte	0x74
	.byte	0x8
	.long	LCFI581
	.long	LFE2404
	.word	0x2
	.byte	0x75
	.byte	0x8
	.long	0x0
	.long	0x0
LLST180:
	.long	LFB2403
	.long	LCFI585
	.word	0x2
	.byte	0x74
	.byte	0x4
	.long	LCFI585
	.long	LCFI586
	.word	0x2
	.byte	0x74
	.byte	0x8
	.long	LCFI586
	.long	LFE2403
	.word	0x2
	.byte	0x75
	.byte	0x8
	.long	0x0
	.long	0x0
LLST181:
	.long	LFB2389
	.long	LCFI590
	.word	0x2
	.byte	0x74
	.byte	0x4
	.long	LCFI590
	.long	LCFI591
	.word	0x2
	.byte	0x74
	.byte	0x8
	.long	LCFI591
	.long	LFE2389
	.word	0x2
	.byte	0x75
	.byte	0x8
	.long	0x0
	.long	0x0
LLST182:
	.long	LFB2408
	.long	LCFI595
	.word	0x2
	.byte	0x74
	.byte	0x4
	.long	LCFI595
	.long	LCFI596
	.word	0x2
	.byte	0x74
	.byte	0x8
	.long	LCFI596
	.long	LFE2408
	.word	0x2
	.byte	0x75
	.byte	0x8
	.long	0x0
	.long	0x0
LLST183:
	.long	LFB2380
	.long	LCFI600
	.word	0x2
	.byte	0x74
	.byte	0x4
	.long	LCFI600
	.long	LCFI601
	.word	0x2
	.byte	0x74
	.byte	0x8
	.long	LCFI601
	.long	LFE2380
	.word	0x2
	.byte	0x75
	.byte	0x8
	.long	0x0
	.long	0x0
LLST184:
	.long	LFB2382
	.long	LCFI603
	.word	0x2
	.byte	0x74
	.byte	0x4
	.long	LCFI603
	.long	LCFI604
	.word	0x2
	.byte	0x74
	.byte	0x8
	.long	LCFI604
	.long	LFE2382
	.word	0x2
	.byte	0x75
	.byte	0x8
	.long	0x0
	.long	0x0
LLST185:
	.long	LFB2383
	.long	LCFI606
	.word	0x2
	.byte	0x74
	.byte	0x4
	.long	LCFI606
	.long	LCFI607
	.word	0x2
	.byte	0x74
	.byte	0x8
	.long	LCFI607
	.long	LFE2383
	.word	0x2
	.byte	0x75
	.byte	0x8
	.long	0x0
	.long	0x0
LLST186:
	.long	LFB2342
	.long	LCFI609
	.word	0x2
	.byte	0x74
	.byte	0x4
	.long	LCFI609
	.long	LCFI610
	.word	0x2
	.byte	0x74
	.byte	0x8
	.long	LCFI610
	.long	LFE2342
	.word	0x2
	.byte	0x75
	.byte	0x8
	.long	0x0
	.long	0x0
LLST187:
	.long	LFB2379
	.long	LCFI612
	.word	0x2
	.byte	0x74
	.byte	0x4
	.long	LCFI612
	.long	LCFI613
	.word	0x2
	.byte	0x74
	.byte	0x8
	.long	LCFI613
	.long	LFE2379
	.word	0x2
	.byte	0x75
	.byte	0x8
	.long	0x0
	.long	0x0
LLST188:
	.long	LFB2409
	.long	LCFI616
	.word	0x2
	.byte	0x74
	.byte	0x4
	.long	LCFI616
	.long	LCFI617
	.word	0x2
	.byte	0x74
	.byte	0x8
	.long	LCFI617
	.long	LFE2409
	.word	0x2
	.byte	0x75
	.byte	0x8
	.long	0x0
	.long	0x0
	.file 26 "/usr/include/i386/_types.h"
	.file 27 "/usr/include/sys/_types.h"
	.file 28 "/usr/include/_types.h"
	.file 29 "/usr/include/unistd.h"
	.file 30 "/usr/include/sys/select.h"
	.file 31 "/usr/include/_locale.h"
	.file 32 "/usr/include/c++/4.2.1/clocale"
	.file 33 "/usr/include/c++/4.2.1/cstddef"
	.file 34 "/usr/include/c++/4.2.1/cstring"
	.file 35 "/usr/include/c++/4.2.1/cstdio"
	.file 36 "/usr/include/c++/4.2.1/cstdarg"
	.file 37 "/usr/include/c++/4.2.1/cctype"
	.file 38 "/usr/include/c++/4.2.1/ctime"
	.file 39 "/usr/include/c++/4.2.1/cwchar"
	.file 40 "/usr/include/c++/4.2.1/cstdlib"
	.file 41 "/usr/include/c++/4.2.1/limits"
	.file 42 "/usr/include/c++/4.2.1/cwctype"
	.file 43 "/usr/include/c++/4.2.1/bits/locale_facets.h"
	.file 44 "/usr/include/c++/4.2.1/bits/stl_deque.h"
	.file 45 "/usr/include/c++/4.2.1/bits/stl_vector.h"
	.file 46 "/usr/include/locale.h"
	.file 47 "/Developer/usr/bin/../lib/gcc/i686-apple-darwin10/4.2.1/include/stddef.h"
	.file 48 "/usr/include/string.h"
	.file 49 "/usr/include/stdio.h"
	.file 50 "/usr/include/time.h"
	.file 51 "/usr/include/pthread.h"
	.file 52 "/usr/include/runetype.h"
	.file 53 "/usr/include/ctype.h"
	.file 54 "/usr/include/wchar.h"
	.file 55 "/usr/include/_wctype.h"
	.file 56 "<built-in>"
	.file 57 "/usr/include/c++/4.2.1/debug/debug.h"
	.file 58 "/Developer/usr/bin/../lib/gcc/i686-apple-darwin10/4.2.1/include/stdint.h"
	.file 59 "/usr/include/stdlib.h"
	.file 60 "/usr/include/c++/4.2.1/bits/cpp_type_traits.h"
	.file 61 "/usr/include/c++/4.2.1/bits/postypes.h"
	.file 62 "/usr/include/c++/4.2.1/i686-apple-darwin10/bits/atomic_word.h"
	.file 63 "/usr/include/c++/4.2.1/new"
	.file 64 "/usr/include/c++/4.2.1/bits/stringfwd.h"
	.file 65 "/usr/include/c++/4.2.1/bits/locale_classes.h"
	.file 66 "/usr/include/c++/4.2.1/i686-apple-darwin10/bits/c++locale.h"
	.file 67 "/usr/include/c++/4.2.1/iosfwd"
	.file 68 "/usr/include/c++/4.2.1/streambuf"
	.file 69 "/usr/include/c++/4.2.1/bits/streambuf.tcc"
	.file 70 "/usr/include/wctype.h"
	.file 71 "/usr/include/c++/4.2.1/i686-apple-darwin10/bits/ctype_base.h"
	.file 72 "/usr/include/c++/4.2.1/bits/codecvt.h"
	.file 73 "/usr/include/c++/4.2.1/bits/basic_ios.h"
	.file 74 "/usr/include/c++/4.2.1/bits/basic_ios.tcc"
	.file 75 "/usr/include/c++/4.2.1/bits/stl_iterator.h"
	.file 76 "/usr/include/c++/4.2.1/ostream"
	.file 77 "/usr/include/c++/4.2.1/bits/ostream.tcc"
	.file 78 "/usr/include/c++/4.2.1/i686-apple-darwin10/bits/basic_file.h"
	.file 79 "/usr/include/c++/4.2.1/i686-apple-darwin10/bits/c++io.h"
	.file 80 "/usr/include/c++/4.2.1/fstream"
	.file 81 "/usr/include/c++/4.2.1/bits/fstream.tcc"
	.file 82 "/System/Library/Frameworks/SFML.framework/Headers/Config.hpp"
	.file 83 "/System/Library/Frameworks/SFML.framework/Headers/Window/Context.hpp"
	.file 84 "/System/Library/Frameworks/SFML.framework/Headers/Window/Event.hpp"
	.file 85 "/System/Library/Frameworks/SFML.framework/Headers/Window/WindowStyle.hpp"
	.file 86 "/System/Library/Frameworks/SFML.framework/Headers/Graphics/Drawable.hpp"
	.file 87 "/System/Library/Frameworks/SFML.framework/Headers/System/Clock.hpp"
	.file 88 "/System/Library/Frameworks/SFML.framework/Headers/System/NonCopyable.hpp"
	.file 89 "/System/Library/Frameworks/SFML.framework/Headers/Window/WindowListener.hpp"
	.file 90 "/System/Library/Frameworks/SFML.framework/Headers/Window/Input.hpp"
	.file 91 "/System/Library/Frameworks/SFML.framework/Headers/Window/VideoMode.hpp"
	.file 92 "/System/Library/Frameworks/SFML.framework/Headers/Window/WindowSettings.hpp"
	.file 93 "/usr/include/c++/4.2.1/bits/deque.tcc"
	.file 94 "/usr/include/c++/4.2.1/bits/stl_queue.h"
	.file 95 "/System/Library/Frameworks/SFML.framework/Headers/Window/Window.hpp"
	.file 96 "/System/Library/Frameworks/SFML.framework/Headers/Window/WindowHandle.hpp"
	.file 97 "/System/Library/Frameworks/SFML.framework/Headers/Graphics/Color.hpp"
	.file 98 "/System/Library/Frameworks/SFML.framework/Headers/Graphics/Rect.hpp"
	.file 99 "/System/Library/Frameworks/SFML.framework/Headers/Graphics/Rect.inl"
	.file 100 "/System/Library/Frameworks/SFML.framework/Headers/Graphics/Glyph.hpp"
	.file 101 "/System/Library/Frameworks/SFML.framework/Headers/System/Resource.hpp"
	.file 102 "/usr/include/c++/4.2.1/bits/vector.tcc"
	.file 103 "/System/Library/Frameworks/SFML.framework/Headers/Graphics/Image.hpp"
	.file 104 "/System/Library/Frameworks/SFML.framework/Headers/Graphics/Matrix3.hpp"
	.file 105 "/System/Library/Frameworks/SFML.framework/Headers/System/Vector2.hpp"
	.file 106 "/System/Library/Frameworks/SFML.framework/Headers/System/Vector2.inl"
	.file 107 "/System/Library/Frameworks/SFML.framework/Headers/Graphics/View.hpp"
	.file 108 "/System/Library/Frameworks/SFML.framework/Headers/Graphics/RenderTarget.hpp"
	.file 109 "/System/Library/Frameworks/SFML.framework/Headers/Graphics/RenderWindow.hpp"
	.file 110 "/usr/include/c++/4.2.1/sstream"
	.file 111 "/usr/include/c++/4.2.1/bits/sstream.tcc"
	.file 112 "/Users/Feysal/Flocks/shapes.h"
	.file 113 "/Users/Feysal/Flocks/piece.h"
	.section __DWARF,__debug_info,regular,debug
	.long	0x1e3eb
	.word	0x2
	.set L$set$1992,Ldebug_abbrev0-Lsection__debug_abbrev
	.long L$set$1992
	.byte	0x4
	.byte	0x1
	.ascii "GNU C++ 4.2.1 (Apple Inc. build 5664)\0"
	.byte	0x4
	.ascii "/Users/Feysal/Flocks/game.cpp\0"
	.long	0x0
	.set L$set$1993,Ldebug_line0-Lsection__debug_line
	.long L$set$1993
	.byte	0x2
	.byte	0x1
	.byte	0x6
	.ascii "signed char\0"
	.byte	0x2
	.byte	0x1
	.byte	0x8
	.ascii "unsigned char\0"
	.byte	0x2
	.byte	0x2
	.byte	0x5
	.ascii "short int\0"
	.byte	0x2
	.byte	0x2
	.byte	0x7
	.ascii "short unsigned int\0"
	.byte	0x2
	.byte	0x4
	.byte	0x5
	.ascii "int\0"
	.byte	0x3
	.ascii "__uint32_t\0"
	.byte	0x1a
	.byte	0x2d
	.long	0xb5
	.byte	0x2
	.byte	0x4
	.byte	0x7
	.ascii "unsigned int\0"
	.byte	0x3
	.ascii "__int64_t\0"
	.byte	0x1a
	.byte	0x2e
	.long	0xd6
	.byte	0x2
	.byte	0x8
	.byte	0x5
	.ascii "long long int\0"
	.byte	0x2
	.byte	0x8
	.byte	0x7
	.ascii "long long unsigned int\0"
	.byte	0x2
	.byte	0x4
	.byte	0x5
	.ascii "long int\0"
	.byte	0x4
	.ascii "$_0\0"
	.byte	0x80
	.byte	0x1a
	.byte	0x4c
	.long	0x13d
	.byte	0x5
	.ascii "__mbstate8\0"
	.byte	0x1a
	.byte	0x4d
	.long	0x13d
	.byte	0x5
	.ascii "_mbstateL\0"
	.byte	0x1a
	.byte	0x4e
	.long	0xd6
	.byte	0x0
	.byte	0x6
	.long	0x150
	.long	0x14d
	.byte	0x7
	.long	0x14d
	.byte	0x7f
	.byte	0x0
	.byte	0x8
	.byte	0x4
	.byte	0x7
	.byte	0x2
	.byte	0x1
	.byte	0x6
	.ascii "char\0"
	.byte	0x3
	.ascii "__mbstate_t\0"
	.byte	0x1a
	.byte	0x4f
	.long	0x10d
	.byte	0x3
	.ascii "__darwin_mbstate_t\0"
	.byte	0x1a
	.byte	0x51
	.long	0x158
	.byte	0x3
	.ascii "__darwin_size_t\0"
	.byte	0x1a
	.byte	0x5a
	.long	0x19c
	.byte	0x2
	.byte	0x4
	.byte	0x7
	.ascii "long unsigned int\0"
	.byte	0x3
	.ascii "__darwin_va_list\0"
	.byte	0x1a
	.byte	0x60
	.long	0x1c9
	.byte	0x9
	.byte	0x4
	.ascii "__builtin_va_list\0"
	.long	0x150
	.byte	0x3
	.ascii "__darwin_wchar_t\0"
	.byte	0x1a
	.byte	0x66
	.long	0x9c
	.byte	0x3
	.ascii "__darwin_rune_t\0"
	.byte	0x1a
	.byte	0x6b
	.long	0x1e1
	.byte	0x3
	.ascii "__darwin_wint_t\0"
	.byte	0x1a
	.byte	0x6e
	.long	0x9c
	.byte	0x3
	.ascii "__darwin_clock_t\0"
	.byte	0x1a
	.byte	0x73
	.long	0x19c
	.byte	0x3
	.ascii "__darwin_time_t\0"
	.byte	0x1a
	.byte	0x76
	.long	0x101
	.byte	0xa
	.byte	0x4
	.byte	0x6
	.long	0x150
	.long	0x268
	.byte	0x7
	.long	0x14d
	.byte	0x3
	.byte	0x0
	.byte	0xb
	.ascii "_opaque_pthread_mutex_t\0"
	.byte	0x2c
	.byte	0x1b
	.byte	0x43
	.long	0x2a7
	.byte	0xc
	.ascii "__sig\0"
	.byte	0x1b
	.byte	0x43
	.long	0x101
	.byte	0x2
	.byte	0x23
	.byte	0x0
	.byte	0xd
	.set L$set$1994,LASF0-Lsection__debug_str
	.long L$set$1994
	.byte	0x1b
	.byte	0x43
	.long	0x2a7
	.byte	0x2
	.byte	0x23
	.byte	0x4
	.byte	0x0
	.byte	0x6
	.long	0x150
	.long	0x2b7
	.byte	0x7
	.long	0x14d
	.byte	0x27
	.byte	0x0
	.byte	0x6
	.long	0x150
	.long	0x2c7
	.byte	0x7
	.long	0x14d
	.byte	0x7
	.byte	0x0
	.byte	0xb
	.ascii "_opaque_pthread_once_t\0"
	.byte	0x8
	.byte	0x1b
	.byte	0x45
	.long	0x305
	.byte	0xc
	.ascii "__sig\0"
	.byte	0x1b
	.byte	0x45
	.long	0x101
	.byte	0x2
	.byte	0x23
	.byte	0x0
	.byte	0xd
	.set L$set$1995,LASF0-Lsection__debug_str
	.long L$set$1995
	.byte	0x1b
	.byte	0x45
	.long	0x258
	.byte	0x2
	.byte	0x23
	.byte	0x4
	.byte	0x0
	.byte	0x3
	.ascii "__darwin_off_t\0"
	.byte	0x1b
	.byte	0x6e
	.long	0xc5
	.byte	0x3
	.ascii "__darwin_pthread_mutex_t\0"
	.byte	0x1b
	.byte	0x78
	.long	0x268
	.byte	0x3
	.ascii "__darwin_pthread_once_t\0"
	.byte	0x1b
	.byte	0x7c
	.long	0x2c7
	.byte	0x3
	.ascii "__darwin_wctrans_t\0"
	.byte	0x1c
	.byte	0x28
	.long	0x9c
	.byte	0x3
	.ascii "__darwin_wctype_t\0"
	.byte	0x1c
	.byte	0x2c
	.long	0x19c
	.byte	0x3
	.ascii "size_t\0"
	.byte	0x1d
	.byte	0x70
	.long	0x185
	.byte	0x3
	.ascii "time_t\0"
	.byte	0x1e
	.byte	0x57
	.long	0x23f
	.byte	0xb
	.ascii "lconv\0"
	.byte	0x38
	.byte	0x1f
	.byte	0x2b
	.long	0x5dd
	.byte	0xd
	.set L$set$1996,LASF1-Lsection__debug_str
	.long L$set$1996
	.byte	0x1f
	.byte	0x2c
	.long	0x5dd
	.byte	0x2
	.byte	0x23
	.byte	0x0
	.byte	0xd
	.set L$set$1997,LASF2-Lsection__debug_str
	.long L$set$1997
	.byte	0x1f
	.byte	0x2d
	.long	0x5dd
	.byte	0x2
	.byte	0x23
	.byte	0x4
	.byte	0xd
	.set L$set$1998,LASF3-Lsection__debug_str
	.long L$set$1998
	.byte	0x1f
	.byte	0x2e
	.long	0x5dd
	.byte	0x2
	.byte	0x23
	.byte	0x8
	.byte	0xc
	.ascii "int_curr_symbol\0"
	.byte	0x1f
	.byte	0x2f
	.long	0x5dd
	.byte	0x2
	.byte	0x23
	.byte	0xc
	.byte	0xc
	.ascii "currency_symbol\0"
	.byte	0x1f
	.byte	0x30
	.long	0x5dd
	.byte	0x2
	.byte	0x23
	.byte	0x10
	.byte	0xc
	.ascii "mon_decimal_point\0"
	.byte	0x1f
	.byte	0x31
	.long	0x5dd
	.byte	0x2
	.byte	0x23
	.byte	0x14
	.byte	0xc
	.ascii "mon_thousands_sep\0"
	.byte	0x1f
	.byte	0x32
	.long	0x5dd
	.byte	0x2
	.byte	0x23
	.byte	0x18
	.byte	0xc
	.ascii "mon_grouping\0"
	.byte	0x1f
	.byte	0x33
	.long	0x5dd
	.byte	0x2
	.byte	0x23
	.byte	0x1c
	.byte	0xd
	.set L$set$1999,LASF4-Lsection__debug_str
	.long L$set$1999
	.byte	0x1f
	.byte	0x34
	.long	0x5dd
	.byte	0x2
	.byte	0x23
	.byte	0x20
	.byte	0xd
	.set L$set$2000,LASF5-Lsection__debug_str
	.long L$set$2000
	.byte	0x1f
	.byte	0x35
	.long	0x5dd
	.byte	0x2
	.byte	0x23
	.byte	0x24
	.byte	0xc
	.ascii "int_frac_digits\0"
	.byte	0x1f
	.byte	0x36
	.long	0x150
	.byte	0x2
	.byte	0x23
	.byte	0x28
	.byte	0xd
	.set L$set$2001,LASF6-Lsection__debug_str
	.long L$set$2001
	.byte	0x1f
	.byte	0x37
	.long	0x150
	.byte	0x2
	.byte	0x23
	.byte	0x29
	.byte	0xc
	.ascii "p_cs_precedes\0"
	.byte	0x1f
	.byte	0x38
	.long	0x150
	.byte	0x2
	.byte	0x23
	.byte	0x2a
	.byte	0xc
	.ascii "p_sep_by_space\0"
	.byte	0x1f
	.byte	0x39
	.long	0x150
	.byte	0x2
	.byte	0x23
	.byte	0x2b
	.byte	0xc
	.ascii "n_cs_precedes\0"
	.byte	0x1f
	.byte	0x3a
	.long	0x150
	.byte	0x2
	.byte	0x23
	.byte	0x2c
	.byte	0xc
	.ascii "n_sep_by_space\0"
	.byte	0x1f
	.byte	0x3b
	.long	0x150
	.byte	0x2
	.byte	0x23
	.byte	0x2d
	.byte	0xc
	.ascii "p_sign_posn\0"
	.byte	0x1f
	.byte	0x3c
	.long	0x150
	.byte	0x2
	.byte	0x23
	.byte	0x2e
	.byte	0xc
	.ascii "n_sign_posn\0"
	.byte	0x1f
	.byte	0x3d
	.long	0x150
	.byte	0x2
	.byte	0x23
	.byte	0x2f
	.byte	0xc
	.ascii "int_p_cs_precedes\0"
	.byte	0x1f
	.byte	0x3e
	.long	0x150
	.byte	0x2
	.byte	0x23
	.byte	0x30
	.byte	0xc
	.ascii "int_n_cs_precedes\0"
	.byte	0x1f
	.byte	0x3f
	.long	0x150
	.byte	0x2
	.byte	0x23
	.byte	0x31
	.byte	0xc
	.ascii "int_p_sep_by_space\0"
	.byte	0x1f
	.byte	0x40
	.long	0x150
	.byte	0x2
	.byte	0x23
	.byte	0x32
	.byte	0xc
	.ascii "int_n_sep_by_space\0"
	.byte	0x1f
	.byte	0x41
	.long	0x150
	.byte	0x2
	.byte	0x23
	.byte	0x33
	.byte	0xc
	.ascii "int_p_sign_posn\0"
	.byte	0x1f
	.byte	0x42
	.long	0x150
	.byte	0x2
	.byte	0x23
	.byte	0x34
	.byte	0xc
	.ascii "int_n_sign_posn\0"
	.byte	0x1f
	.byte	0x43
	.long	0x150
	.byte	0x2
	.byte	0x23
	.byte	0x35
	.byte	0x0
	.byte	0xe
	.byte	0x4
	.long	0x150
	.byte	0xf
	.ascii "std\0"
	.byte	0x38
	.byte	0x0
	.long	0x32a6
	.byte	0x10
	.byte	0x20
	.byte	0x3b
	.long	0x3a9
	.byte	0x10
	.byte	0x20
	.byte	0x3c
	.long	0x32a6
	.byte	0x10
	.byte	0x20
	.byte	0x3d
	.long	0x32cd
	.byte	0x10
	.byte	0x21
	.byte	0x37
	.long	0x32f1
	.byte	0x10
	.byte	0x21
	.byte	0x38
	.long	0x32f4
	.byte	0x10
	.byte	0x22
	.byte	0x58
	.long	0x32f7
	.byte	0x10
	.byte	0x22
	.byte	0x5a
	.long	0x3313
	.byte	0x10
	.byte	0x22
	.byte	0x5d
	.long	0x3334
	.byte	0x10
	.byte	0x22
	.byte	0x5f
	.long	0x3350
	.byte	0x10
	.byte	0x22
	.byte	0x62
	.long	0x336b
	.byte	0x10
	.byte	0x23
	.byte	0x64
	.long	0x35d7
	.byte	0x10
	.byte	0x23
	.byte	0x65
	.long	0x35e3
	.byte	0x10
	.byte	0x23
	.byte	0x67
	.long	0x35e6
	.byte	0x10
	.byte	0x23
	.byte	0x68
	.long	0x35ff
	.byte	0x10
	.byte	0x23
	.byte	0x69
	.long	0x3616
	.byte	0x10
	.byte	0x23
	.byte	0x6a
	.long	0x362d
	.byte	0x10
	.byte	0x23
	.byte	0x6b
	.long	0x3644
	.byte	0x10
	.byte	0x23
	.byte	0x6c
	.long	0x365b
	.byte	0x10
	.byte	0x23
	.byte	0x6d
	.long	0x3672
	.byte	0x10
	.byte	0x23
	.byte	0x6e
	.long	0x3694
	.byte	0x10
	.byte	0x23
	.byte	0x6f
	.long	0x36b6
	.byte	0x10
	.byte	0x23
	.byte	0x73
	.long	0x36d7
	.byte	0x10
	.byte	0x23
	.byte	0x74
	.long	0x36fe
	.byte	0x10
	.byte	0x23
	.byte	0x76
	.long	0x3724
	.byte	0x10
	.byte	0x23
	.byte	0x77
	.long	0x3746
	.byte	0x10
	.byte	0x23
	.byte	0x78
	.long	0x376e
	.byte	0x10
	.byte	0x23
	.byte	0x7a
	.long	0x3786
	.byte	0x10
	.byte	0x23
	.byte	0x7b
	.long	0x379e
	.byte	0x10
	.byte	0x23
	.byte	0x7c
	.long	0x37ac
	.byte	0x10
	.byte	0x23
	.byte	0x7d
	.long	0x37c4
	.byte	0x10
	.byte	0x23
	.byte	0x82
	.long	0x37d8
	.byte	0x10
	.byte	0x23
	.byte	0x83
	.long	0x37f0
	.byte	0x10
	.byte	0x23
	.byte	0x84
	.long	0x380d
	.byte	0x10
	.byte	0x23
	.byte	0x86
	.long	0x3821
	.byte	0x10
	.byte	0x23
	.byte	0x87
	.long	0x383a
	.byte	0x10
	.byte	0x23
	.byte	0x8a
	.long	0x3861
	.byte	0x10
	.byte	0x23
	.byte	0x8b
	.long	0x386f
	.byte	0x10
	.byte	0x23
	.byte	0x8c
	.long	0x3887
	.byte	0x10
	.byte	0x23
	.byte	0xb5
	.long	0x38a4
	.byte	0x10
	.byte	0x23
	.byte	0xb6
	.long	0x38c7
	.byte	0x10
	.byte	0x23
	.byte	0xb7
	.long	0x38e9
	.byte	0x10
	.byte	0x23
	.byte	0xb8
	.long	0x3906
	.byte	0x10
	.byte	0x23
	.byte	0xb9
	.long	0x392d
	.byte	0x10
	.byte	0x24
	.byte	0x3c
	.long	0x3393
	.byte	0x10
	.byte	0x25
	.byte	0x46
	.long	0x3da6
	.byte	0x10
	.byte	0x25
	.byte	0x47
	.long	0x3dc0
	.byte	0x10
	.byte	0x25
	.byte	0x48
	.long	0x3dda
	.byte	0x10
	.byte	0x25
	.byte	0x49
	.long	0x3df4
	.byte	0x10
	.byte	0x25
	.byte	0x4a
	.long	0x3e0e
	.byte	0x10
	.byte	0x25
	.byte	0x4b
	.long	0x3e29
	.byte	0x10
	.byte	0x25
	.byte	0x4c
	.long	0x3e44
	.byte	0x10
	.byte	0x25
	.byte	0x4d
	.long	0x3e5f
	.byte	0x10
	.byte	0x25
	.byte	0x4e
	.long	0x3e7a
	.byte	0x10
	.byte	0x25
	.byte	0x4f
	.long	0x3e95
	.byte	0x10
	.byte	0x25
	.byte	0x50
	.long	0x3eb0
	.byte	0x10
	.byte	0x25
	.byte	0x51
	.long	0x3ecb
	.byte	0x10
	.byte	0x25
	.byte	0x52
	.long	0x3ee6
	.byte	0x10
	.byte	0x26
	.byte	0x42
	.long	0x3f01
	.byte	0x10
	.byte	0x26
	.byte	0x43
	.long	0x3f04
	.byte	0x10
	.byte	0x26
	.byte	0x44
	.long	0x395e
	.byte	0x10
	.byte	0x26
	.byte	0x46
	.long	0x3f07
	.byte	0x10
	.byte	0x26
	.byte	0x47
	.long	0x3f18
	.byte	0x10
	.byte	0x26
	.byte	0x48
	.long	0x3f3e
	.byte	0x10
	.byte	0x26
	.byte	0x49
	.long	0x3f5f
	.byte	0x10
	.byte	0x26
	.byte	0x4a
	.long	0x3f7c
	.byte	0x10
	.byte	0x26
	.byte	0x4b
	.long	0x3f9e
	.byte	0x10
	.byte	0x26
	.byte	0x4c
	.long	0x3fc0
	.byte	0x10
	.byte	0x26
	.byte	0x4d
	.long	0x3fd7
	.byte	0x10
	.byte	0x26
	.byte	0x4e
	.long	0x3fee
	.byte	0x10
	.byte	0x27
	.byte	0x48
	.long	0x4018
	.byte	0x10
	.byte	0x27
	.byte	0x92
	.long	0x4039
	.byte	0x10
	.byte	0x27
	.byte	0x94
	.long	0x403c
	.byte	0x10
	.byte	0x27
	.byte	0x95
	.long	0x4053
	.byte	0x10
	.byte	0x27
	.byte	0x96
	.long	0x406a
	.byte	0x10
	.byte	0x27
	.byte	0x97
	.long	0x409c
	.byte	0x10
	.byte	0x27
	.byte	0x98
	.long	0x40b8
	.byte	0x10
	.byte	0x27
	.byte	0x99
	.long	0x40df
	.byte	0x10
	.byte	0x27
	.byte	0x9a
	.long	0x40fb
	.byte	0x10
	.byte	0x27
	.byte	0x9b
	.long	0x4118
	.byte	0x10
	.byte	0x27
	.byte	0x9c
	.long	0x4135
	.byte	0x10
	.byte	0x27
	.byte	0x9d
	.long	0x414c
	.byte	0x10
	.byte	0x27
	.byte	0x9e
	.long	0x4159
	.byte	0x10
	.byte	0x27
	.byte	0x9f
	.long	0x4180
	.byte	0x10
	.byte	0x27
	.byte	0xa0
	.long	0x41a6
	.byte	0x10
	.byte	0x27
	.byte	0xa1
	.long	0x41c8
	.byte	0x10
	.byte	0x27
	.byte	0xa2
	.long	0x41ee
	.byte	0x10
	.byte	0x27
	.byte	0xa3
	.long	0x420a
	.byte	0x10
	.byte	0x27
	.byte	0xa4
	.long	0x4221
	.byte	0x10
	.byte	0x27
	.byte	0xa5
	.long	0x4243
	.byte	0x10
	.byte	0x27
	.byte	0xa6
	.long	0x4260
	.byte	0x10
	.byte	0x27
	.byte	0xa7
	.long	0x427c
	.byte	0x10
	.byte	0x27
	.byte	0xa9
	.long	0x429d
	.byte	0x10
	.byte	0x27
	.byte	0xab
	.long	0x42be
	.byte	0x10
	.byte	0x27
	.byte	0xad
	.long	0x42e4
	.byte	0x10
	.byte	0x27
	.byte	0xaf
	.long	0x4305
	.byte	0x10
	.byte	0x27
	.byte	0xb1
	.long	0x4321
	.byte	0x10
	.byte	0x27
	.byte	0xb3
	.long	0x433d
	.byte	0x10
	.byte	0x27
	.byte	0xb4
	.long	0x435e
	.byte	0x10
	.byte	0x27
	.byte	0xb5
	.long	0x437a
	.byte	0x10
	.byte	0x27
	.byte	0xb6
	.long	0x4396
	.byte	0x10
	.byte	0x27
	.byte	0xb7
	.long	0x43b2
	.byte	0x10
	.byte	0x27
	.byte	0xb8
	.long	0x43ce
	.byte	0x10
	.byte	0x27
	.byte	0xb9
	.long	0x43ea
	.byte	0x10
	.byte	0x27
	.byte	0xba
	.long	0x4414
	.byte	0x10
	.byte	0x27
	.byte	0xbb
	.long	0x442b
	.byte	0x10
	.byte	0x27
	.byte	0xbc
	.long	0x444c
	.byte	0x10
	.byte	0x27
	.byte	0xbd
	.long	0x446d
	.byte	0x10
	.byte	0x27
	.byte	0xbe
	.long	0x448e
	.byte	0x10
	.byte	0x27
	.byte	0xbf
	.long	0x44ba
	.byte	0x10
	.byte	0x27
	.byte	0xc0
	.long	0x44d6
	.byte	0x10
	.byte	0x27
	.byte	0xc2
	.long	0x44f8
	.byte	0x10
	.byte	0x27
	.byte	0xc4
	.long	0x451d
	.byte	0x10
	.byte	0x27
	.byte	0xc5
	.long	0x453e
	.byte	0x10
	.byte	0x27
	.byte	0xc6
	.long	0x455f
	.byte	0x10
	.byte	0x27
	.byte	0xc7
	.long	0x4580
	.byte	0x10
	.byte	0x27
	.byte	0xc8
	.long	0x45a1
	.byte	0x10
	.byte	0x27
	.byte	0xc9
	.long	0x45b8
	.byte	0x10
	.byte	0x27
	.byte	0xca
	.long	0x45d9
	.byte	0x10
	.byte	0x27
	.byte	0xcb
	.long	0x45fa
	.byte	0x10
	.byte	0x27
	.byte	0xcc
	.long	0x461b
	.byte	0x10
	.byte	0x27
	.byte	0xcd
	.long	0x463c
	.byte	0x10
	.byte	0x27
	.byte	0xce
	.long	0x4654
	.byte	0x10
	.byte	0x27
	.byte	0xd0
	.long	0x466c
	.byte	0x10
	.byte	0x27
	.byte	0xd6
	.long	0x4688
	.byte	0x10
	.byte	0x27
	.byte	0xdc
	.long	0x46a4
	.byte	0x10
	.byte	0x27
	.byte	0xe2
	.long	0x46c0
	.byte	0x10
	.byte	0x27
	.byte	0xe8
	.long	0x46dc
	.byte	0x11
	.byte	0x27
	.word	0x10e
	.long	0x4f95
	.byte	0x11
	.byte	0x27
	.word	0x10f
	.long	0x4fc0
	.byte	0x11
	.byte	0x27
	.word	0x110
	.long	0x4fe1
	.byte	0x10
	.byte	0x28
	.byte	0x6a
	.long	0x5062
	.byte	0x10
	.byte	0x28
	.byte	0x6b
	.long	0x5099
	.byte	0x10
	.byte	0x28
	.byte	0x6f
	.long	0x50e1
	.byte	0x10
	.byte	0x28
	.byte	0x70
	.long	0x50ff
	.byte	0x10
	.byte	0x28
	.byte	0x71
	.long	0x5116
	.byte	0x10
	.byte	0x28
	.byte	0x72
	.long	0x512d
	.byte	0x10
	.byte	0x28
	.byte	0x73
	.long	0x5144
	.byte	0x10
	.byte	0x28
	.byte	0x75
	.long	0x5189
	.byte	0x10
	.byte	0x28
	.byte	0x77
	.long	0x51a5
	.byte	0x10
	.byte	0x28
	.byte	0x78
	.long	0x51b8
	.byte	0x10
	.byte	0x28
	.byte	0x7a
	.long	0x51cf
	.byte	0x10
	.byte	0x28
	.byte	0x7d
	.long	0x51eb
	.byte	0x10
	.byte	0x28
	.byte	0x7e
	.long	0x5207
	.byte	0x10
	.byte	0x28
	.byte	0x7f
	.long	0x5228
	.byte	0x10
	.byte	0x28
	.byte	0x81
	.long	0x5249
	.byte	0x10
	.byte	0x28
	.byte	0x82
	.long	0x526b
	.byte	0x10
	.byte	0x28
	.byte	0x83
	.long	0x5278
	.byte	0x10
	.byte	0x28
	.byte	0x84
	.long	0x5294
	.byte	0x10
	.byte	0x28
	.byte	0x85
	.long	0x52a7
	.byte	0x10
	.byte	0x28
	.byte	0x86
	.long	0x52c7
	.byte	0x10
	.byte	0x28
	.byte	0x87
	.long	0x52e8
	.byte	0x10
	.byte	0x28
	.byte	0x88
	.long	0x5309
	.byte	0x10
	.byte	0x28
	.byte	0x8a
	.long	0x5324
	.byte	0x10
	.byte	0x28
	.byte	0x8b
	.long	0x5345
	.byte	0x10
	.byte	0x28
	.byte	0xce
	.long	0x50d2
	.byte	0x10
	.byte	0x28
	.byte	0xd0
	.long	0x5412
	.byte	0x10
	.byte	0x28
	.byte	0xd1
	.long	0x470e
	.byte	0x10
	.byte	0x28
	.byte	0xd3
	.long	0x5425
	.byte	0x10
	.byte	0x28
	.byte	0xd4
	.long	0x4729
	.byte	0x10
	.byte	0x28
	.byte	0xd5
	.long	0x5361
	.byte	0x10
	.byte	0x28
	.byte	0xd7
	.long	0x537d
	.byte	0x10
	.byte	0x28
	.byte	0xd8
	.long	0x53d6
	.byte	0x10
	.byte	0x28
	.byte	0xd9
	.long	0x5394
	.byte	0x10
	.byte	0x28
	.byte	0xda
	.long	0x53b5
	.byte	0x10
	.byte	0x28
	.byte	0xdb
	.long	0x53f6
	.byte	0x12
	.ascii "__true_type\0"
	.byte	0x1
	.byte	0x12
	.ascii "__false_type\0"
	.byte	0x1
	.byte	0x13
	.ascii "__debug\0"
	.byte	0x39
	.byte	0x31
	.byte	0x12
	.ascii "char_traits<char>\0"
	.byte	0x1
	.byte	0x12
	.ascii "fpos<__mbstate_t>\0"
	.byte	0x1
	.byte	0x12
	.ascii "nothrow_t\0"
	.byte	0x1
	.byte	0x12
	.ascii "allocator<char>\0"
	.byte	0x1
	.byte	0x12
	.ascii "allocator<wchar_t>\0"
	.byte	0x1
	.byte	0x14
	.ascii "float_denorm_style\0"
	.byte	0x4
	.byte	0x29
	.byte	0xac
	.long	0xb4b
	.byte	0x15
	.ascii "denorm_indeterminate\0"
	.byte	0x7f
	.byte	0x15
	.ascii "denorm_absent\0"
	.byte	0x0
	.byte	0x15
	.ascii "denorm_present\0"
	.byte	0x1
	.byte	0x0
	.byte	0x16
	.ascii "basic_string<char,std::char_traits<char>,std::allocator<char> >\0"
	.byte	0x1
	.long	0xbd0
	.byte	0x17
	.set L$set$2002,LASF7-Lsection__debug_str
	.long L$set$2002
	.byte	0x4
	.byte	0xc
	.word	0x104
	.byte	0x18
	.long	0x57ee
	.byte	0x2
	.byte	0x23
	.byte	0x0
	.byte	0x1
	.byte	0x19
	.ascii "_M_p\0"
	.byte	0xc
	.word	0x108
	.long	0x5dd
	.byte	0x2
	.byte	0x23
	.byte	0x0
	.byte	0x1a
	.byte	0x1
	.set L$set$2003,LASF7-Lsection__debug_str
	.long L$set$2003
	.byte	0xc
	.word	0x105
	.byte	0x1
	.byte	0x1b
	.long	0x5a31
	.byte	0x1
	.byte	0x1c
	.long	0x5dd
	.byte	0x1c
	.long	0x5866
	.byte	0x0
	.byte	0x0
	.byte	0x0
	.byte	0x12
	.ascii "reverse_iterator<__gnu_cxx::__normal_iterator<const char*, std::basic_string<char, std::char_traits<char>, std::allocator<char> > > >\0"
	.byte	0x1
	.byte	0x12
	.ascii "reverse_iterator<__gnu_cxx::__normal_iterator<char*, std::basic_string<char, std::char_traits<char>, std::allocator<char> > > >\0"
	.byte	0x1
	.byte	0x16
	.ascii "basic_string<wchar_t,std::char_traits<wchar_t>,std::allocator<wchar_t> >\0"
	.byte	0x1
	.long	0xd68
	.byte	0x17
	.set L$set$2004,LASF7-Lsection__debug_str
	.long L$set$2004
	.byte	0x4
	.byte	0xc
	.word	0x104
	.byte	0x18
	.long	0x59bd
	.byte	0x2
	.byte	0x23
	.byte	0x0
	.byte	0x1
	.byte	0x19
	.ascii "_M_p\0"
	.byte	0xc
	.word	0x108
	.long	0x408b
	.byte	0x2
	.byte	0x23
	.byte	0x0
	.byte	0x1a
	.byte	0x1
	.set L$set$2005,LASF7-Lsection__debug_str
	.long L$set$2005
	.byte	0xc
	.word	0x105
	.byte	0x1
	.byte	0x1b
	.long	0x6f7c
	.byte	0x1
	.byte	0x1c
	.long	0x408b
	.byte	0x1c
	.long	0x5a1c
	.byte	0x0
	.byte	0x0
	.byte	0x0
	.byte	0x12
	.ascii "reverse_iterator<__gnu_cxx::__normal_iterator<const wchar_t*, std::basic_string<wchar_t, std::char_traits<wchar_t>, std::allocator<wchar_t> > > >\0"
	.byte	0x1
	.byte	0x12
	.ascii "reverse_iterator<__gnu_cxx::__normal_iterator<wchar_t*, std::basic_string<wchar_t, std::char_traits<wchar_t>, std::allocator<wchar_t> > > >\0"
	.byte	0x1
	.byte	0x1d
	.set L$set$2006,LASF8-Lsection__debug_str
	.long L$set$2006
	.byte	0x1
	.byte	0x14
	.ascii "_Ios_Fmtflags\0"
	.byte	0x4
	.byte	0x3
	.byte	0x37
	.long	0xfae
	.byte	0x15
	.ascii "_S_boolalpha\0"
	.byte	0x1
	.byte	0x15
	.ascii "_S_dec\0"
	.byte	0x2
	.byte	0x15
	.ascii "_S_fixed\0"
	.byte	0x4
	.byte	0x15
	.ascii "_S_hex\0"
	.byte	0x8
	.byte	0x15
	.ascii "_S_internal\0"
	.byte	0x10
	.byte	0x1e
	.set L$set$2007,LASF9-Lsection__debug_str
	.long L$set$2007
	.byte	0x20
	.byte	0x15
	.ascii "_S_oct\0"
	.byte	0xc0,0x0
	.byte	0x1e
	.set L$set$2008,LASF10-Lsection__debug_str
	.long L$set$2008
	.byte	0x80,0x1
	.byte	0x15
	.ascii "_S_scientific\0"
	.byte	0x80,0x2
	.byte	0x15
	.ascii "_S_showbase\0"
	.byte	0x80,0x4
	.byte	0x15
	.ascii "_S_showpoint\0"
	.byte	0x80,0x8
	.byte	0x15
	.ascii "_S_showpos\0"
	.byte	0x80,0x10
	.byte	0x15
	.ascii "_S_skipws\0"
	.byte	0x80,0x20
	.byte	0x15
	.ascii "_S_unitbuf\0"
	.byte	0x80,0xc0,0x0
	.byte	0x15
	.ascii "_S_uppercase\0"
	.byte	0x80,0x80,0x1
	.byte	0x15
	.ascii "_S_adjustfield\0"
	.byte	0xb0,0x1
	.byte	0x15
	.ascii "_S_basefield\0"
	.byte	0xca,0x0
	.byte	0x15
	.ascii "_S_floatfield\0"
	.byte	0x84,0x2
	.byte	0x15
	.ascii "_S_ios_fmtflags_end\0"
	.byte	0x80,0x80,0x4
	.byte	0x0
	.byte	0x14
	.ascii "_Ios_Openmode\0"
	.byte	0x4
	.byte	0x3
	.byte	0x6b
	.long	0x1014
	.byte	0x15
	.ascii "_S_app\0"
	.byte	0x1
	.byte	0x15
	.ascii "_S_ate\0"
	.byte	0x2
	.byte	0x15
	.ascii "_S_bin\0"
	.byte	0x4
	.byte	0x15
	.ascii "_S_in\0"
	.byte	0x8
	.byte	0x15
	.ascii "_S_out\0"
	.byte	0x10
	.byte	0x15
	.ascii "_S_trunc\0"
	.byte	0x20
	.byte	0x15
	.ascii "_S_ios_openmode_end\0"
	.byte	0x80,0x80,0x4
	.byte	0x0
	.byte	0x14
	.ascii "_Ios_Iostate\0"
	.byte	0x4
	.byte	0x3
	.byte	0x93
	.long	0x1073
	.byte	0x15
	.ascii "_S_goodbit\0"
	.byte	0x0
	.byte	0x15
	.ascii "_S_badbit\0"
	.byte	0x1
	.byte	0x15
	.ascii "_S_eofbit\0"
	.byte	0x2
	.byte	0x15
	.ascii "_S_failbit\0"
	.byte	0x4
	.byte	0x15
	.ascii "_S_ios_iostate_end\0"
	.byte	0x80,0x80,0x4
	.byte	0x0
	.byte	0x14
	.ascii "_Ios_Seekdir\0"
	.byte	0x4
	.byte	0x3
	.byte	0xb8
	.long	0x10bb
	.byte	0x15
	.ascii "_S_beg\0"
	.byte	0x0
	.byte	0x15
	.ascii "_S_cur\0"
	.byte	0x1
	.byte	0x15
	.ascii "_S_end\0"
	.byte	0x2
	.byte	0x15
	.ascii "_S_ios_seekdir_end\0"
	.byte	0x80,0x80,0x4
	.byte	0x0
	.byte	0x1f
	.set L$set$2009,LASF11-Lsection__debug_str
	.long L$set$2009
	.byte	0x1
	.long	0x12a1
	.byte	0x20
	.ascii "event\0"
	.byte	0x4
	.byte	0x3
	.word	0x1a2
	.long	0x1101
	.byte	0x15
	.ascii "erase_event\0"
	.byte	0x0
	.byte	0x15
	.ascii "imbue_event\0"
	.byte	0x1
	.byte	0x15
	.ascii "copyfmt_event\0"
	.byte	0x2
	.byte	0x0
	.byte	0x21
	.set L$set$2010,LASF12-Lsection__debug_str
	.long L$set$2010
	.byte	0x10
	.byte	0x3
	.word	0x1d3
	.long	0x11a7
	.byte	0x19
	.ascii "_M_next\0"
	.byte	0x3
	.word	0x1d5
	.long	0x8e65
	.byte	0x2
	.byte	0x23
	.byte	0x0
	.byte	0x19
	.ascii "_M_fn\0"
	.byte	0x3
	.word	0x1d6
	.long	0x8e86
	.byte	0x2
	.byte	0x23
	.byte	0x4
	.byte	0x22
	.set L$set$2011,LASF13-Lsection__debug_str
	.long L$set$2011
	.byte	0x3
	.word	0x1d7
	.long	0x9c
	.byte	0x2
	.byte	0x23
	.byte	0x8
	.byte	0x22
	.set L$set$2012,LASF14-Lsection__debug_str
	.long L$set$2012
	.byte	0x3
	.word	0x1d8
	.long	0x5680
	.byte	0x2
	.byte	0x23
	.byte	0xc
	.byte	0x23
	.byte	0x1
	.set L$set$2013,LASF12-Lsection__debug_str
	.long L$set$2013
	.byte	0x3
	.word	0x1db
	.byte	0x1
	.long	0x1174
	.byte	0x1b
	.long	0x8e65
	.byte	0x1
	.byte	0x1c
	.long	0x8e86
	.byte	0x1c
	.long	0x9c
	.byte	0x1c
	.long	0x8e65
	.byte	0x0
	.byte	0x24
	.byte	0x1
	.set L$set$2014,LASF15-Lsection__debug_str
	.long L$set$2014
	.byte	0x3
	.word	0x1df
	.set L$set$2015,LASF17-Lsection__debug_str
	.long L$set$2015
	.byte	0x1
	.long	0x118d
	.byte	0x1b
	.long	0x8e65
	.byte	0x1
	.byte	0x0
	.byte	0x25
	.byte	0x1
	.set L$set$2016,LASF16-Lsection__debug_str
	.long L$set$2016
	.byte	0x3
	.word	0x1e3
	.set L$set$2017,LASF18-Lsection__debug_str
	.long L$set$2017
	.long	0x9c
	.byte	0x1
	.byte	0x1b
	.long	0x8e65
	.byte	0x1
	.byte	0x0
	.byte	0x0
	.byte	0x21
	.set L$set$2018,LASF19-Lsection__debug_str
	.long L$set$2018
	.byte	0x8
	.byte	0x3
	.word	0x1f1
	.long	0x11ee
	.byte	0x19
	.ascii "_M_pword\0"
	.byte	0x3
	.word	0x1f2
	.long	0x256
	.byte	0x2
	.byte	0x23
	.byte	0x0
	.byte	0x19
	.ascii "_M_iword\0"
	.byte	0x3
	.word	0x1f3
	.long	0x101
	.byte	0x2
	.byte	0x23
	.byte	0x4
	.byte	0x1a
	.byte	0x1
	.set L$set$2019,LASF19-Lsection__debug_str
	.long L$set$2019
	.byte	0x3
	.word	0x1f4
	.byte	0x1
	.byte	0x1b
	.long	0x8e8c
	.byte	0x1
	.byte	0x0
	.byte	0x0
	.byte	0x17
	.set L$set$2020,LASF20-Lsection__debug_str
	.long L$set$2020
	.byte	0x1
	.byte	0x3
	.word	0x213
	.byte	0x26
	.set L$set$2021,LASF21-Lsection__debug_str
	.long L$set$2021
	.byte	0x3
	.word	0x21a
	.ascii "_ZNSt8ios_base4Init11_S_refcountE\0"
	.long	0x5680
	.byte	0x1
	.byte	0x3
	.byte	0x1
	.byte	0x27
	.ascii "_S_synced_with_stdio\0"
	.byte	0x3
	.word	0x21b
	.ascii "_ZNSt8ios_base4Init20_S_synced_with_stdioE\0"
	.long	0x5661
	.byte	0x1
	.byte	0x3
	.byte	0x1
	.byte	0x23
	.byte	0x1
	.set L$set$2022,LASF20-Lsection__debug_str
	.long L$set$2022
	.byte	0x3
	.word	0x216
	.byte	0x1
	.long	0x1288
	.byte	0x1b
	.long	0x8e92
	.byte	0x1
	.byte	0x0
	.byte	0x1a
	.byte	0x1
	.set L$set$2023,LASF22-Lsection__debug_str
	.long L$set$2023
	.byte	0x3
	.word	0x217
	.byte	0x1
	.byte	0x1b
	.long	0x8e92
	.byte	0x1
	.byte	0x1b
	.long	0x9c
	.byte	0x1
	.byte	0x0
	.byte	0x0
	.byte	0x0
	.byte	0x12
	.ascii "basic_streambuf<char,std::char_traits<char> >\0"
	.byte	0x1
	.byte	0x10
	.byte	0x2a
	.byte	0x52
	.long	0x9c5d
	.byte	0x10
	.byte	0x2a
	.byte	0x54
	.long	0x9c60
	.byte	0x10
	.byte	0x2a
	.byte	0x55
	.long	0x9c63
	.byte	0x10
	.byte	0x2a
	.byte	0x57
	.long	0x9c66
	.byte	0x10
	.byte	0x2a
	.byte	0x58
	.long	0x9c80
	.byte	0x10
	.byte	0x2a
	.byte	0x5a
	.long	0x9c9a
	.byte	0x10
	.byte	0x2a
	.byte	0x5c
	.long	0x9cb4
	.byte	0x10
	.byte	0x2a
	.byte	0x5d
	.long	0x9cce
	.byte	0x10
	.byte	0x2a
	.byte	0x5e
	.long	0x9ced
	.byte	0x10
	.byte	0x2a
	.byte	0x5f
	.long	0x9d07
	.byte	0x10
	.byte	0x2a
	.byte	0x60
	.long	0x9d21
	.byte	0x10
	.byte	0x2a
	.byte	0x61
	.long	0x9d3b
	.byte	0x10
	.byte	0x2a
	.byte	0x62
	.long	0x9d55
	.byte	0x10
	.byte	0x2a
	.byte	0x63
	.long	0x9d6f
	.byte	0x10
	.byte	0x2a
	.byte	0x64
	.long	0x9d89
	.byte	0x10
	.byte	0x2a
	.byte	0x65
	.long	0x9da3
	.byte	0x10
	.byte	0x2a
	.byte	0x66
	.long	0x9dbd
	.byte	0x10
	.byte	0x2a
	.byte	0x67
	.long	0x9dd9
	.byte	0x10
	.byte	0x2a
	.byte	0x68
	.long	0x9df3
	.byte	0x10
	.byte	0x2a
	.byte	0x69
	.long	0x9e0d
	.byte	0x10
	.byte	0x2a
	.byte	0x6a
	.long	0x9e24
	.byte	0x12
	.ascii "ctype_base\0"
	.byte	0x1
	.byte	0x12
	.ascii "ctype<char>\0"
	.byte	0x1
	.byte	0x16
	.ascii "codecvt_base\0"
	.byte	0x1
	.long	0x13bf
	.byte	0x28
	.ascii "result\0"
	.byte	0x4
	.byte	0x48
	.byte	0x35
	.byte	0x15
	.ascii "ok\0"
	.byte	0x0
	.byte	0x15
	.ascii "partial\0"
	.byte	0x1
	.byte	0x15
	.ascii "error\0"
	.byte	0x2
	.byte	0x15
	.ascii "noconv\0"
	.byte	0x3
	.byte	0x0
	.byte	0x0
	.byte	0x12
	.ascii "__codecvt_abstract_base<char,char,__mbstate_t>\0"
	.byte	0x1
	.byte	0x12
	.ascii "codecvt<char,char,__mbstate_t>\0"
	.byte	0x1
	.byte	0x16
	.ascii "money_base\0"
	.byte	0x1
	.long	0x1442
	.byte	0x29
	.ascii "pattern\0"
	.byte	0x4
	.byte	0x2b
	.word	0xdc6
	.byte	0x19
	.ascii "field\0"
	.byte	0x2b
	.word	0xdc6
	.long	0x258
	.byte	0x2
	.byte	0x23
	.byte	0x0
	.byte	0x0
	.byte	0x0
	.byte	0x12
	.ascii "basic_ios<char,std::char_traits<char> >\0"
	.byte	0x1
	.byte	0x12
	.ascii "basic_ostream<char,std::char_traits<char> >\0"
	.byte	0x1
	.byte	0x12
	.ascii "num_put<char,std::ostreambuf_iterator<char, std::char_traits<char> > >\0"
	.byte	0x1
	.byte	0x12
	.ascii "num_get<char,std::istreambuf_iterator<char, std::char_traits<char> > >\0"
	.byte	0x1
	.byte	0x12
	.ascii "istreambuf_iterator<char,std::char_traits<char> >\0"
	.byte	0x1
	.byte	0x12
	.ascii "ostreambuf_iterator<char,std::char_traits<char> >\0"
	.byte	0x1
	.byte	0x12
	.ascii "__basic_file<char>\0"
	.byte	0x1
	.byte	0x12
	.ascii "basic_filebuf<char,std::char_traits<char> >\0"
	.byte	0x1
	.byte	0x12
	.ascii "basic_ofstream<char,std::char_traits<char> >\0"
	.byte	0x1
	.byte	0x1d
	.set L$set$2024,LASF23-Lsection__debug_str
	.long L$set$2024
	.byte	0x1
	.byte	0x16
	.ascii "basic_string<unsigned int,std::char_traits<unsigned int>,std::allocator<unsigned int> >\0"
	.byte	0x1
	.long	0x16c2
	.byte	0x17
	.set L$set$2025,LASF7-Lsection__debug_str
	.long L$set$2025
	.byte	0x4
	.byte	0xc
	.word	0x104
	.byte	0x18
	.long	0xd5af
	.byte	0x2
	.byte	0x23
	.byte	0x0
	.byte	0x1
	.byte	0x19
	.ascii "_M_p\0"
	.byte	0xc
	.word	0x108
	.long	0xd581
	.byte	0x2
	.byte	0x23
	.byte	0x0
	.byte	0x23
	.byte	0x1
	.set L$set$2026,LASF7-Lsection__debug_str
	.long L$set$2026
	.byte	0xc
	.word	0x105
	.byte	0x1
	.long	0x16ab
	.byte	0x1b
	.long	0xd619
	.byte	0x1
	.byte	0x1c
	.long	0xd581
	.byte	0x1c
	.long	0xd60e
	.byte	0x0
	.byte	0x2a
	.byte	0x1
	.set L$set$2027,LASF34-Lsection__debug_str
	.long L$set$2027
	.byte	0x1
	.byte	0x1
	.byte	0x1b
	.long	0xd619
	.byte	0x1
	.byte	0x1b
	.long	0x9c
	.byte	0x1
	.byte	0x0
	.byte	0x0
	.byte	0x0
	.byte	0x12
	.ascii "reverse_iterator<__gnu_cxx::__normal_iterator<const unsigned int*, std::basic_string<unsigned int, std::char_traits<unsigned int>, std::allocator<unsigned int> > > >\0"
	.byte	0x1
	.byte	0x12
	.ascii "reverse_iterator<__gnu_cxx::__normal_iterator<unsigned int*, std::basic_string<unsigned int, std::char_traits<unsigned int>, std::allocator<unsigned int> > > >\0"
	.byte	0x1
	.byte	0x16
	.ascii "basic_string<unsigned char,std::char_traits<unsigned char>,std::allocator<unsigned char> >\0"
	.byte	0x1
	.long	0x18ac
	.byte	0x17
	.set L$set$2028,LASF7-Lsection__debug_str
	.long L$set$2028
	.byte	0x4
	.byte	0xc
	.word	0x104
	.byte	0x18
	.long	0x173c0
	.byte	0x2
	.byte	0x23
	.byte	0x0
	.byte	0x1
	.byte	0x19
	.ascii "_M_p\0"
	.byte	0xc
	.word	0x108
	.long	0x33e0
	.byte	0x2
	.byte	0x23
	.byte	0x0
	.byte	0x1a
	.byte	0x1
	.set L$set$2029,LASF7-Lsection__debug_str
	.long L$set$2029
	.byte	0xc
	.word	0x105
	.byte	0x1
	.byte	0x1b
	.long	0x1742a
	.byte	0x1
	.byte	0x1c
	.long	0x33e0
	.byte	0x1c
	.long	0x1741f
	.byte	0x0
	.byte	0x0
	.byte	0x0
	.byte	0x16
	.ascii "basic_string<short unsigned int,std::char_traits<short unsigned int>,std::allocator<short unsigned int> >\0"
	.byte	0x1
	.long	0x195b
	.byte	0x17
	.set L$set$2030,LASF7-Lsection__debug_str
	.long L$set$2030
	.byte	0x4
	.byte	0xc
	.word	0x104
	.byte	0x18
	.long	0x188af
	.byte	0x2
	.byte	0x23
	.byte	0x0
	.byte	0x1
	.byte	0x19
	.ascii "_M_p\0"
	.byte	0xc
	.word	0x108
	.long	0x18881
	.byte	0x2
	.byte	0x23
	.byte	0x0
	.byte	0x1a
	.byte	0x1
	.set L$set$2031,LASF7-Lsection__debug_str
	.long L$set$2031
	.byte	0xc
	.word	0x105
	.byte	0x1
	.byte	0x1b
	.long	0x18919
	.byte	0x1
	.byte	0x1c
	.long	0x18881
	.byte	0x1c
	.long	0x1890e
	.byte	0x0
	.byte	0x0
	.byte	0x0
	.byte	0x12
	.ascii "allocator<sf::Event>\0"
	.byte	0x1
	.byte	0x12
	.ascii "allocator<sf::Event*>\0"
	.byte	0x1
	.byte	0x16
	.ascii "_Deque_base<sf::Event,std::allocator<sf::Event> >\0"
	.byte	0x1
	.long	0x1a33
	.byte	0x17
	.set L$set$2032,LASF24-Lsection__debug_str
	.long L$set$2032
	.byte	0x28
	.byte	0x2c
	.word	0x193
	.byte	0x18
	.long	0xf035
	.byte	0x2
	.byte	0x23
	.byte	0x0
	.byte	0x1
	.byte	0x19
	.ascii "_M_map\0"
	.byte	0x2c
	.word	0x194
	.long	0xf2bc
	.byte	0x2
	.byte	0x23
	.byte	0x0
	.byte	0x19
	.ascii "_M_map_size\0"
	.byte	0x2c
	.word	0x195
	.long	0x38d
	.byte	0x2
	.byte	0x23
	.byte	0x4
	.byte	0x22
	.set L$set$2033,LASF25-Lsection__debug_str
	.long L$set$2033
	.byte	0x2c
	.word	0x196
	.long	0xf09f
	.byte	0x2
	.byte	0x23
	.byte	0x8
	.byte	0x22
	.set L$set$2034,LASF26-Lsection__debug_str
	.long L$set$2034
	.byte	0x2c
	.word	0x197
	.long	0xf09f
	.byte	0x2
	.byte	0x23
	.byte	0x18
	.byte	0x1a
	.byte	0x1
	.set L$set$2035,LASF24-Lsection__debug_str
	.long L$set$2035
	.byte	0x2c
	.word	0x199
	.byte	0x1
	.byte	0x1b
	.long	0xf2df
	.byte	0x1
	.byte	0x1c
	.long	0xf094
	.byte	0x0
	.byte	0x0
	.byte	0x0
	.byte	0x12
	.ascii "_Deque_iterator<sf::Event,sf::Event&,sf::Event*>\0"
	.byte	0x1
	.byte	0x12
	.ascii "_Deque_iterator<sf::Event,const sf::Event&,const sf::Event*>\0"
	.byte	0x1
	.byte	0x12
	.ascii "deque<sf::Event,std::allocator<sf::Event> >\0"
	.byte	0x1
	.byte	0x12
	.ascii "reverse_iterator<std::_Deque_iterator<sf::Event, const sf::Event&, const sf::Event*> >\0"
	.byte	0x1
	.byte	0x12
	.ascii "reverse_iterator<std::_Deque_iterator<sf::Event, sf::Event&, sf::Event*> >\0"
	.byte	0x1
	.byte	0x12
	.ascii "queue<sf::Event,std::deque<sf::Event, std::allocator<sf::Event> > >\0"
	.byte	0x1
	.byte	0x14
	.ascii "_Rb_tree_color\0"
	.byte	0x4
	.byte	0x9
	.byte	0x5d
	.long	0x1beb
	.byte	0x15
	.ascii "_S_red\0"
	.byte	0x0
	.byte	0x15
	.ascii "_S_black\0"
	.byte	0x1
	.byte	0x0
	.byte	0x12
	.ascii "_Rb_tree_node_base\0"
	.byte	0x1
	.byte	0x12
	.ascii "allocator<sf::ResourcePtr<sf::Image>*>\0"
	.byte	0x1
	.byte	0x1d
	.set L$set$2036,LASF27-Lsection__debug_str
	.long L$set$2036
	.byte	0x1
	.byte	0x12
	.ascii "_Rb_tree_node<sf::ResourcePtr<sf::Image>*>\0"
	.byte	0x1
	.byte	0x12
	.ascii "binary_function<sf::ResourcePtr<sf::Image>*,sf::ResourcePtr<sf::Image>*,bool>\0"
	.byte	0x1
	.byte	0x12
	.ascii "less<sf::ResourcePtr<sf::Image>*>\0"
	.byte	0x1
	.byte	0x16
	.ascii "_Rb_tree<sf::ResourcePtr<sf::Image>*,sf::ResourcePtr<sf::Image>*,std::_Identity<sf::ResourcePtr<sf::Image>*>,std::less<sf::ResourcePtr<sf::Image>*>,std::allocator<sf::ResourcePtr<sf::Image>*> >\0"
	.byte	0x1
	.long	0x1e2c
	.byte	0x29
	.ascii "_Rb_tree_impl<std::less<sf::ResourcePtr<sf::Image>*>,false>\0"
	.byte	0x18
	.byte	0x9
	.word	0x19a
	.byte	0x18
	.long	0x10b98
	.byte	0x2
	.byte	0x23
	.byte	0x0
	.byte	0x1
	.byte	0x22
	.set L$set$2037,LASF28-Lsection__debug_str
	.long L$set$2037
	.byte	0x9
	.word	0x19b
	.long	0x10c0a
	.byte	0x2
	.byte	0x23
	.byte	0x0
	.byte	0x22
	.set L$set$2038,LASF29-Lsection__debug_str
	.long L$set$2038
	.byte	0x9
	.word	0x19c
	.long	0x10478
	.byte	0x2
	.byte	0x23
	.byte	0x4
	.byte	0x22
	.set L$set$2039,LASF30-Lsection__debug_str
	.long L$set$2039
	.byte	0x9
	.word	0x19d
	.long	0x38d
	.byte	0x2
	.byte	0x23
	.byte	0x14
	.byte	0x1a
	.byte	0x1
	.set L$set$2040,LASF31-Lsection__debug_str
	.long L$set$2040
	.byte	0x9
	.word	0x1a0
	.byte	0x1
	.byte	0x1b
	.long	0x10c4d
	.byte	0x1
	.byte	0x1c
	.long	0x10bf7
	.byte	0x1c
	.long	0x10c53
	.byte	0x0
	.byte	0x0
	.byte	0x0
	.byte	0x12
	.ascii "_Rb_tree_iterator<sf::ResourcePtr<sf::Image>*>\0"
	.byte	0x1
	.byte	0x12
	.ascii "_Rb_tree_const_iterator<sf::ResourcePtr<sf::Image>*>\0"
	.byte	0x1
	.byte	0x12
	.ascii "reverse_iterator<std::_Rb_tree_iterator<sf::ResourcePtr<sf::Image>*> >\0"
	.byte	0x1
	.byte	0x12
	.ascii "reverse_iterator<std::_Rb_tree_const_iterator<sf::ResourcePtr<sf::Image>*> >\0"
	.byte	0x1
	.byte	0x12
	.ascii "pair<std::_Rb_tree_iterator<sf::ResourcePtr<sf::Image>*>,bool>\0"
	.byte	0x1
	.byte	0x12
	.ascii "pair<std::_Rb_tree_iterator<sf::ResourcePtr<sf::Image>*>,std::_Rb_tree_iterator<sf::ResourcePtr<sf::Image>*> >\0"
	.byte	0x1
	.byte	0x12
	.ascii "pair<std::_Rb_tree_const_iterator<sf::ResourcePtr<sf::Image>*>,std::_Rb_tree_const_iterator<sf::ResourcePtr<sf::Image>*> >\0"
	.byte	0x1
	.byte	0x12
	.ascii "set<sf::ResourcePtr<sf::Image>*,std::less<sf::ResourcePtr<sf::Image>*>,std::allocator<sf::ResourcePtr<sf::Image>*> >\0"
	.byte	0x1
	.byte	0x12
	.ascii "pair<std::_Rb_tree_const_iterator<sf::ResourcePtr<sf::Image>*>,bool>\0"
	.byte	0x1
	.byte	0x12
	.ascii "allocator<sf::Color>\0"
	.byte	0x1
	.byte	0x16
	.ascii "_Vector_base<sf::Color,std::allocator<sf::Color> >\0"
	.byte	0x1
	.long	0x21c9
	.byte	0x2b
	.set L$set$2041,LASF32-Lsection__debug_str
	.long L$set$2041
	.byte	0xc
	.byte	0x2d
	.byte	0x53
	.byte	0x18
	.long	0x11c3e
	.byte	0x2
	.byte	0x23
	.byte	0x0
	.byte	0x1
	.byte	0xd
	.set L$set$2042,LASF25-Lsection__debug_str
	.long L$set$2042
	.byte	0x2d
	.byte	0x54
	.long	0x10460
	.byte	0x2
	.byte	0x23
	.byte	0x0
	.byte	0xd
	.set L$set$2043,LASF26-Lsection__debug_str
	.long L$set$2043
	.byte	0x2d
	.byte	0x55
	.long	0x10460
	.byte	0x2
	.byte	0x23
	.byte	0x4
	.byte	0xc
	.ascii "_M_end_of_storage\0"
	.byte	0x2d
	.byte	0x56
	.long	0x10460
	.byte	0x2
	.byte	0x23
	.byte	0x8
	.byte	0x2c
	.byte	0x1
	.set L$set$2044,LASF32-Lsection__debug_str
	.long L$set$2044
	.byte	0x2d
	.byte	0x57
	.byte	0x1
	.byte	0x1b
	.long	0x11ca8
	.byte	0x1
	.byte	0x1c
	.long	0x11c9d
	.byte	0x0
	.byte	0x0
	.byte	0x0
	.byte	0x12
	.ascii "vector<sf::Color,std::allocator<sf::Color> >\0"
	.byte	0x1
	.byte	0x12
	.ascii "reverse_iterator<__gnu_cxx::__normal_iterator<const sf::Color*, std::vector<sf::Color, std::allocator<sf::Color> > > >\0"
	.byte	0x1
	.byte	0x12
	.ascii "reverse_iterator<__gnu_cxx::__normal_iterator<sf::Color*, std::vector<sf::Color, std::allocator<sf::Color> > > >\0"
	.byte	0x1
	.byte	0x12
	.ascii "allocator<sf::ResourcePtr<sf::Font>*>\0"
	.byte	0x1
	.byte	0x1d
	.set L$set$2045,LASF33-Lsection__debug_str
	.long L$set$2045
	.byte	0x1
	.byte	0x12
	.ascii "_Rb_tree_node<sf::ResourcePtr<sf::Font>*>\0"
	.byte	0x1
	.byte	0x12
	.ascii "binary_function<sf::ResourcePtr<sf::Font>*,sf::ResourcePtr<sf::Font>*,bool>\0"
	.byte	0x1
	.byte	0x12
	.ascii "less<sf::ResourcePtr<sf::Font>*>\0"
	.byte	0x1
	.byte	0x16
	.ascii "_Rb_tree<sf::ResourcePtr<sf::Font>*,sf::ResourcePtr<sf::Font>*,std::_Identity<sf::ResourcePtr<sf::Font>*>,std::less<sf::ResourcePtr<sf::Font>*>,std::allocator<sf::ResourcePtr<sf::Font>*> >\0"
	.byte	0x1
	.long	0x251e
	.byte	0x29
	.ascii "_Rb_tree_impl<std::less<sf::ResourcePtr<sf::Font>*>,false>\0"
	.byte	0x18
	.byte	0x9
	.word	0x19a
	.byte	0x18
	.long	0x12b61
	.byte	0x2
	.byte	0x23
	.byte	0x0
	.byte	0x1
	.byte	0x22
	.set L$set$2046,LASF28-Lsection__debug_str
	.long L$set$2046
	.byte	0x9
	.word	0x19b
	.long	0x12bd3
	.byte	0x2
	.byte	0x23
	.byte	0x0
	.byte	0x22
	.set L$set$2047,LASF29-Lsection__debug_str
	.long L$set$2047
	.byte	0x9
	.word	0x19c
	.long	0x10478
	.byte	0x2
	.byte	0x23
	.byte	0x4
	.byte	0x22
	.set L$set$2048,LASF30-Lsection__debug_str
	.long L$set$2048
	.byte	0x9
	.word	0x19d
	.long	0x38d
	.byte	0x2
	.byte	0x23
	.byte	0x14
	.byte	0x23
	.byte	0x1
	.set L$set$2049,LASF31-Lsection__debug_str
	.long L$set$2049
	.byte	0x9
	.word	0x1a0
	.byte	0x1
	.long	0x2507
	.byte	0x1b
	.long	0x12c16
	.byte	0x1
	.byte	0x1c
	.long	0x12bc0
	.byte	0x1c
	.long	0x12c1c
	.byte	0x0
	.byte	0x2a
	.byte	0x1
	.set L$set$2050,LASF35-Lsection__debug_str
	.long L$set$2050
	.byte	0x1
	.byte	0x1
	.byte	0x1b
